
scraperfinal3:     file format elf64-x86-64


Disassembly of section .init:

0000000000003000 <_init>:
    3000:	f3 0f 1e fa          	endbr64 
    3004:	48 83 ec 08          	sub    $0x8,%rsp
    3008:	48 8b 05 e1 df 00 00 	mov    0xdfe1(%rip),%rax        # 10ff0 <__gmon_start__@Base>
    300f:	48 85 c0             	test   %rax,%rax
    3012:	74 02                	je     3016 <_init+0x16>
    3014:	ff d0                	call   *%rax
    3016:	48 83 c4 08          	add    $0x8,%rsp
    301a:	c3                   	ret    

Disassembly of section .plt:

0000000000003020 <.plt>:
    3020:	ff 35 4a dd 00 00    	push   0xdd4a(%rip)        # 10d70 <_GLOBAL_OFFSET_TABLE_+0x8>
    3026:	ff 25 4c dd 00 00    	jmp    *0xdd4c(%rip)        # 10d78 <_GLOBAL_OFFSET_TABLE_+0x10>
    302c:	0f 1f 40 00          	nopl   0x0(%rax)
    3030:	f3 0f 1e fa          	endbr64 
    3034:	68 00 00 00 00       	push   $0x0
    3039:	e9 e2 ff ff ff       	jmp    3020 <_init+0x20>
    303e:	66 90                	xchg   %ax,%ax
    3040:	f3 0f 1e fa          	endbr64 
    3044:	68 01 00 00 00       	push   $0x1
    3049:	e9 d2 ff ff ff       	jmp    3020 <_init+0x20>
    304e:	66 90                	xchg   %ax,%ax
    3050:	f3 0f 1e fa          	endbr64 
    3054:	68 02 00 00 00       	push   $0x2
    3059:	e9 c2 ff ff ff       	jmp    3020 <_init+0x20>
    305e:	66 90                	xchg   %ax,%ax
    3060:	f3 0f 1e fa          	endbr64 
    3064:	68 03 00 00 00       	push   $0x3
    3069:	e9 b2 ff ff ff       	jmp    3020 <_init+0x20>
    306e:	66 90                	xchg   %ax,%ax
    3070:	f3 0f 1e fa          	endbr64 
    3074:	68 04 00 00 00       	push   $0x4
    3079:	e9 a2 ff ff ff       	jmp    3020 <_init+0x20>
    307e:	66 90                	xchg   %ax,%ax
    3080:	f3 0f 1e fa          	endbr64 
    3084:	68 05 00 00 00       	push   $0x5
    3089:	e9 92 ff ff ff       	jmp    3020 <_init+0x20>
    308e:	66 90                	xchg   %ax,%ax
    3090:	f3 0f 1e fa          	endbr64 
    3094:	68 06 00 00 00       	push   $0x6
    3099:	e9 82 ff ff ff       	jmp    3020 <_init+0x20>
    309e:	66 90                	xchg   %ax,%ax
    30a0:	f3 0f 1e fa          	endbr64 
    30a4:	68 07 00 00 00       	push   $0x7
    30a9:	e9 72 ff ff ff       	jmp    3020 <_init+0x20>
    30ae:	66 90                	xchg   %ax,%ax
    30b0:	f3 0f 1e fa          	endbr64 
    30b4:	68 08 00 00 00       	push   $0x8
    30b9:	e9 62 ff ff ff       	jmp    3020 <_init+0x20>
    30be:	66 90                	xchg   %ax,%ax
    30c0:	f3 0f 1e fa          	endbr64 
    30c4:	68 09 00 00 00       	push   $0x9
    30c9:	e9 52 ff ff ff       	jmp    3020 <_init+0x20>
    30ce:	66 90                	xchg   %ax,%ax
    30d0:	f3 0f 1e fa          	endbr64 
    30d4:	68 0a 00 00 00       	push   $0xa
    30d9:	e9 42 ff ff ff       	jmp    3020 <_init+0x20>
    30de:	66 90                	xchg   %ax,%ax
    30e0:	f3 0f 1e fa          	endbr64 
    30e4:	68 0b 00 00 00       	push   $0xb
    30e9:	e9 32 ff ff ff       	jmp    3020 <_init+0x20>
    30ee:	66 90                	xchg   %ax,%ax
    30f0:	f3 0f 1e fa          	endbr64 
    30f4:	68 0c 00 00 00       	push   $0xc
    30f9:	e9 22 ff ff ff       	jmp    3020 <_init+0x20>
    30fe:	66 90                	xchg   %ax,%ax
    3100:	f3 0f 1e fa          	endbr64 
    3104:	68 0d 00 00 00       	push   $0xd
    3109:	e9 12 ff ff ff       	jmp    3020 <_init+0x20>
    310e:	66 90                	xchg   %ax,%ax
    3110:	f3 0f 1e fa          	endbr64 
    3114:	68 0e 00 00 00       	push   $0xe
    3119:	e9 02 ff ff ff       	jmp    3020 <_init+0x20>
    311e:	66 90                	xchg   %ax,%ax
    3120:	f3 0f 1e fa          	endbr64 
    3124:	68 0f 00 00 00       	push   $0xf
    3129:	e9 f2 fe ff ff       	jmp    3020 <_init+0x20>
    312e:	66 90                	xchg   %ax,%ax
    3130:	f3 0f 1e fa          	endbr64 
    3134:	68 10 00 00 00       	push   $0x10
    3139:	e9 e2 fe ff ff       	jmp    3020 <_init+0x20>
    313e:	66 90                	xchg   %ax,%ax
    3140:	f3 0f 1e fa          	endbr64 
    3144:	68 11 00 00 00       	push   $0x11
    3149:	e9 d2 fe ff ff       	jmp    3020 <_init+0x20>
    314e:	66 90                	xchg   %ax,%ax
    3150:	f3 0f 1e fa          	endbr64 
    3154:	68 12 00 00 00       	push   $0x12
    3159:	e9 c2 fe ff ff       	jmp    3020 <_init+0x20>
    315e:	66 90                	xchg   %ax,%ax
    3160:	f3 0f 1e fa          	endbr64 
    3164:	68 13 00 00 00       	push   $0x13
    3169:	e9 b2 fe ff ff       	jmp    3020 <_init+0x20>
    316e:	66 90                	xchg   %ax,%ax
    3170:	f3 0f 1e fa          	endbr64 
    3174:	68 14 00 00 00       	push   $0x14
    3179:	e9 a2 fe ff ff       	jmp    3020 <_init+0x20>
    317e:	66 90                	xchg   %ax,%ax
    3180:	f3 0f 1e fa          	endbr64 
    3184:	68 15 00 00 00       	push   $0x15
    3189:	e9 92 fe ff ff       	jmp    3020 <_init+0x20>
    318e:	66 90                	xchg   %ax,%ax
    3190:	f3 0f 1e fa          	endbr64 
    3194:	68 16 00 00 00       	push   $0x16
    3199:	e9 82 fe ff ff       	jmp    3020 <_init+0x20>
    319e:	66 90                	xchg   %ax,%ax
    31a0:	f3 0f 1e fa          	endbr64 
    31a4:	68 17 00 00 00       	push   $0x17
    31a9:	e9 72 fe ff ff       	jmp    3020 <_init+0x20>
    31ae:	66 90                	xchg   %ax,%ax
    31b0:	f3 0f 1e fa          	endbr64 
    31b4:	68 18 00 00 00       	push   $0x18
    31b9:	e9 62 fe ff ff       	jmp    3020 <_init+0x20>
    31be:	66 90                	xchg   %ax,%ax
    31c0:	f3 0f 1e fa          	endbr64 
    31c4:	68 19 00 00 00       	push   $0x19
    31c9:	e9 52 fe ff ff       	jmp    3020 <_init+0x20>
    31ce:	66 90                	xchg   %ax,%ax
    31d0:	f3 0f 1e fa          	endbr64 
    31d4:	68 1a 00 00 00       	push   $0x1a
    31d9:	e9 42 fe ff ff       	jmp    3020 <_init+0x20>
    31de:	66 90                	xchg   %ax,%ax
    31e0:	f3 0f 1e fa          	endbr64 
    31e4:	68 1b 00 00 00       	push   $0x1b
    31e9:	e9 32 fe ff ff       	jmp    3020 <_init+0x20>
    31ee:	66 90                	xchg   %ax,%ax
    31f0:	f3 0f 1e fa          	endbr64 
    31f4:	68 1c 00 00 00       	push   $0x1c
    31f9:	e9 22 fe ff ff       	jmp    3020 <_init+0x20>
    31fe:	66 90                	xchg   %ax,%ax
    3200:	f3 0f 1e fa          	endbr64 
    3204:	68 1d 00 00 00       	push   $0x1d
    3209:	e9 12 fe ff ff       	jmp    3020 <_init+0x20>
    320e:	66 90                	xchg   %ax,%ax
    3210:	f3 0f 1e fa          	endbr64 
    3214:	68 1e 00 00 00       	push   $0x1e
    3219:	e9 02 fe ff ff       	jmp    3020 <_init+0x20>
    321e:	66 90                	xchg   %ax,%ax
    3220:	f3 0f 1e fa          	endbr64 
    3224:	68 1f 00 00 00       	push   $0x1f
    3229:	e9 f2 fd ff ff       	jmp    3020 <_init+0x20>
    322e:	66 90                	xchg   %ax,%ax
    3230:	f3 0f 1e fa          	endbr64 
    3234:	68 20 00 00 00       	push   $0x20
    3239:	e9 e2 fd ff ff       	jmp    3020 <_init+0x20>
    323e:	66 90                	xchg   %ax,%ax
    3240:	f3 0f 1e fa          	endbr64 
    3244:	68 21 00 00 00       	push   $0x21
    3249:	e9 d2 fd ff ff       	jmp    3020 <_init+0x20>
    324e:	66 90                	xchg   %ax,%ax
    3250:	f3 0f 1e fa          	endbr64 
    3254:	68 22 00 00 00       	push   $0x22
    3259:	e9 c2 fd ff ff       	jmp    3020 <_init+0x20>
    325e:	66 90                	xchg   %ax,%ax
    3260:	f3 0f 1e fa          	endbr64 
    3264:	68 23 00 00 00       	push   $0x23
    3269:	e9 b2 fd ff ff       	jmp    3020 <_init+0x20>
    326e:	66 90                	xchg   %ax,%ax
    3270:	f3 0f 1e fa          	endbr64 
    3274:	68 24 00 00 00       	push   $0x24
    3279:	e9 a2 fd ff ff       	jmp    3020 <_init+0x20>
    327e:	66 90                	xchg   %ax,%ax
    3280:	f3 0f 1e fa          	endbr64 
    3284:	68 25 00 00 00       	push   $0x25
    3289:	e9 92 fd ff ff       	jmp    3020 <_init+0x20>
    328e:	66 90                	xchg   %ax,%ax
    3290:	f3 0f 1e fa          	endbr64 
    3294:	68 26 00 00 00       	push   $0x26
    3299:	e9 82 fd ff ff       	jmp    3020 <_init+0x20>
    329e:	66 90                	xchg   %ax,%ax
    32a0:	f3 0f 1e fa          	endbr64 
    32a4:	68 27 00 00 00       	push   $0x27
    32a9:	e9 72 fd ff ff       	jmp    3020 <_init+0x20>
    32ae:	66 90                	xchg   %ax,%ax
    32b0:	f3 0f 1e fa          	endbr64 
    32b4:	68 28 00 00 00       	push   $0x28
    32b9:	e9 62 fd ff ff       	jmp    3020 <_init+0x20>
    32be:	66 90                	xchg   %ax,%ax
    32c0:	f3 0f 1e fa          	endbr64 
    32c4:	68 29 00 00 00       	push   $0x29
    32c9:	e9 52 fd ff ff       	jmp    3020 <_init+0x20>
    32ce:	66 90                	xchg   %ax,%ax
    32d0:	f3 0f 1e fa          	endbr64 
    32d4:	68 2a 00 00 00       	push   $0x2a
    32d9:	e9 42 fd ff ff       	jmp    3020 <_init+0x20>
    32de:	66 90                	xchg   %ax,%ax
    32e0:	f3 0f 1e fa          	endbr64 
    32e4:	68 2b 00 00 00       	push   $0x2b
    32e9:	e9 32 fd ff ff       	jmp    3020 <_init+0x20>
    32ee:	66 90                	xchg   %ax,%ax
    32f0:	f3 0f 1e fa          	endbr64 
    32f4:	68 2c 00 00 00       	push   $0x2c
    32f9:	e9 22 fd ff ff       	jmp    3020 <_init+0x20>
    32fe:	66 90                	xchg   %ax,%ax
    3300:	f3 0f 1e fa          	endbr64 
    3304:	68 2d 00 00 00       	push   $0x2d
    3309:	e9 12 fd ff ff       	jmp    3020 <_init+0x20>
    330e:	66 90                	xchg   %ax,%ax
    3310:	f3 0f 1e fa          	endbr64 
    3314:	68 2e 00 00 00       	push   $0x2e
    3319:	e9 02 fd ff ff       	jmp    3020 <_init+0x20>
    331e:	66 90                	xchg   %ax,%ax
    3320:	f3 0f 1e fa          	endbr64 
    3324:	68 2f 00 00 00       	push   $0x2f
    3329:	e9 f2 fc ff ff       	jmp    3020 <_init+0x20>
    332e:	66 90                	xchg   %ax,%ax
    3330:	f3 0f 1e fa          	endbr64 
    3334:	68 30 00 00 00       	push   $0x30
    3339:	e9 e2 fc ff ff       	jmp    3020 <_init+0x20>
    333e:	66 90                	xchg   %ax,%ax
    3340:	f3 0f 1e fa          	endbr64 
    3344:	68 31 00 00 00       	push   $0x31
    3349:	e9 d2 fc ff ff       	jmp    3020 <_init+0x20>
    334e:	66 90                	xchg   %ax,%ax
    3350:	f3 0f 1e fa          	endbr64 
    3354:	68 32 00 00 00       	push   $0x32
    3359:	e9 c2 fc ff ff       	jmp    3020 <_init+0x20>
    335e:	66 90                	xchg   %ax,%ax
    3360:	f3 0f 1e fa          	endbr64 
    3364:	68 33 00 00 00       	push   $0x33
    3369:	e9 b2 fc ff ff       	jmp    3020 <_init+0x20>
    336e:	66 90                	xchg   %ax,%ax
    3370:	f3 0f 1e fa          	endbr64 
    3374:	68 34 00 00 00       	push   $0x34
    3379:	e9 a2 fc ff ff       	jmp    3020 <_init+0x20>
    337e:	66 90                	xchg   %ax,%ax
    3380:	f3 0f 1e fa          	endbr64 
    3384:	68 35 00 00 00       	push   $0x35
    3389:	e9 92 fc ff ff       	jmp    3020 <_init+0x20>
    338e:	66 90                	xchg   %ax,%ax
    3390:	f3 0f 1e fa          	endbr64 
    3394:	68 36 00 00 00       	push   $0x36
    3399:	e9 82 fc ff ff       	jmp    3020 <_init+0x20>
    339e:	66 90                	xchg   %ax,%ax
    33a0:	f3 0f 1e fa          	endbr64 
    33a4:	68 37 00 00 00       	push   $0x37
    33a9:	e9 72 fc ff ff       	jmp    3020 <_init+0x20>
    33ae:	66 90                	xchg   %ax,%ax
    33b0:	f3 0f 1e fa          	endbr64 
    33b4:	68 38 00 00 00       	push   $0x38
    33b9:	e9 62 fc ff ff       	jmp    3020 <_init+0x20>
    33be:	66 90                	xchg   %ax,%ax
    33c0:	f3 0f 1e fa          	endbr64 
    33c4:	68 39 00 00 00       	push   $0x39
    33c9:	e9 52 fc ff ff       	jmp    3020 <_init+0x20>
    33ce:	66 90                	xchg   %ax,%ax
    33d0:	f3 0f 1e fa          	endbr64 
    33d4:	68 3a 00 00 00       	push   $0x3a
    33d9:	e9 42 fc ff ff       	jmp    3020 <_init+0x20>
    33de:	66 90                	xchg   %ax,%ax
    33e0:	f3 0f 1e fa          	endbr64 
    33e4:	68 3b 00 00 00       	push   $0x3b
    33e9:	e9 32 fc ff ff       	jmp    3020 <_init+0x20>
    33ee:	66 90                	xchg   %ax,%ax
    33f0:	f3 0f 1e fa          	endbr64 
    33f4:	68 3c 00 00 00       	push   $0x3c
    33f9:	e9 22 fc ff ff       	jmp    3020 <_init+0x20>
    33fe:	66 90                	xchg   %ax,%ax
    3400:	f3 0f 1e fa          	endbr64 
    3404:	68 3d 00 00 00       	push   $0x3d
    3409:	e9 12 fc ff ff       	jmp    3020 <_init+0x20>
    340e:	66 90                	xchg   %ax,%ax
    3410:	f3 0f 1e fa          	endbr64 
    3414:	68 3e 00 00 00       	push   $0x3e
    3419:	e9 02 fc ff ff       	jmp    3020 <_init+0x20>
    341e:	66 90                	xchg   %ax,%ax
    3420:	f3 0f 1e fa          	endbr64 
    3424:	68 3f 00 00 00       	push   $0x3f
    3429:	e9 f2 fb ff ff       	jmp    3020 <_init+0x20>
    342e:	66 90                	xchg   %ax,%ax
    3430:	f3 0f 1e fa          	endbr64 
    3434:	68 40 00 00 00       	push   $0x40
    3439:	e9 e2 fb ff ff       	jmp    3020 <_init+0x20>
    343e:	66 90                	xchg   %ax,%ax
    3440:	f3 0f 1e fa          	endbr64 
    3444:	68 41 00 00 00       	push   $0x41
    3449:	e9 d2 fb ff ff       	jmp    3020 <_init+0x20>
    344e:	66 90                	xchg   %ax,%ax
    3450:	f3 0f 1e fa          	endbr64 
    3454:	68 42 00 00 00       	push   $0x42
    3459:	e9 c2 fb ff ff       	jmp    3020 <_init+0x20>
    345e:	66 90                	xchg   %ax,%ax
    3460:	f3 0f 1e fa          	endbr64 
    3464:	68 43 00 00 00       	push   $0x43
    3469:	e9 b2 fb ff ff       	jmp    3020 <_init+0x20>
    346e:	66 90                	xchg   %ax,%ax
    3470:	f3 0f 1e fa          	endbr64 
    3474:	68 44 00 00 00       	push   $0x44
    3479:	e9 a2 fb ff ff       	jmp    3020 <_init+0x20>
    347e:	66 90                	xchg   %ax,%ax
    3480:	f3 0f 1e fa          	endbr64 
    3484:	68 45 00 00 00       	push   $0x45
    3489:	e9 92 fb ff ff       	jmp    3020 <_init+0x20>
    348e:	66 90                	xchg   %ax,%ax
    3490:	f3 0f 1e fa          	endbr64 
    3494:	68 46 00 00 00       	push   $0x46
    3499:	e9 82 fb ff ff       	jmp    3020 <_init+0x20>
    349e:	66 90                	xchg   %ax,%ax
    34a0:	f3 0f 1e fa          	endbr64 
    34a4:	68 47 00 00 00       	push   $0x47
    34a9:	e9 72 fb ff ff       	jmp    3020 <_init+0x20>
    34ae:	66 90                	xchg   %ax,%ax
    34b0:	f3 0f 1e fa          	endbr64 
    34b4:	68 48 00 00 00       	push   $0x48
    34b9:	e9 62 fb ff ff       	jmp    3020 <_init+0x20>
    34be:	66 90                	xchg   %ax,%ax
    34c0:	f3 0f 1e fa          	endbr64 
    34c4:	68 49 00 00 00       	push   $0x49
    34c9:	e9 52 fb ff ff       	jmp    3020 <_init+0x20>
    34ce:	66 90                	xchg   %ax,%ax

Disassembly of section .plt.got:

00000000000034d0 <.plt.got>:
    34d0:	f3 0f 1e fa          	endbr64 
    34d4:	ff 25 f6 da 00 00    	jmp    *0xdaf6(%rip)        # 10fd0 <__cxa_finalize@GLIBC_2.2.5>
    34da:	66 0f 1f 44 00 00    	nopw   0x0(%rax,%rax,1)

Disassembly of section .plt.sec:

00000000000034e0 <.plt.sec>:
    34e0:	f3 0f 1e fa          	endbr64 
    34e4:	ff 25 96 d8 00 00    	jmp    *0xd896(%rip)        # 10d80 <_ZNKSt7__cxx1112basic_stringIcSt11char_traitsIcESaIcEE7compareERKS4_@GLIBCXX_3.4.21>
    34ea:	66 0f 1f 44 00 00    	nopw   0x0(%rax,%rax,1)
    34f0:	f3 0f 1e fa          	endbr64 
    34f4:	ff 25 8e d8 00 00    	jmp    *0xd88e(%rip)        # 10d88 <_ZNSt7__cxx1112basic_stringIcSt11char_traitsIcESaIcEEaSERKS4_@GLIBCXX_3.4.21>
    34fa:	66 0f 1f 44 00 00    	nopw   0x0(%rax,%rax,1)
    3500:	f3 0f 1e fa          	endbr64 
    3504:	ff 25 86 d8 00 00    	jmp    *0xd886(%rip)        # 10d90 <_ZNSt7__cxx1112basic_stringIcSt11char_traitsIcESaIcEE6appendEPKcm@GLIBCXX_3.4.21>
    350a:	66 0f 1f 44 00 00    	nopw   0x0(%rax,%rax,1)
    3510:	f3 0f 1e fa          	endbr64 
    3514:	ff 25 7e d8 00 00    	jmp    *0xd87e(%rip)        # 10d98 <_ZSt29_Rb_tree_insert_and_rebalancebPSt18_Rb_tree_node_baseS0_RS_@GLIBCXX_3.4>
    351a:	66 0f 1f 44 00 00    	nopw   0x0(%rax,%rax,1)
    3520:	f3 0f 1e fa          	endbr64 
    3524:	ff 25 76 d8 00 00    	jmp    *0xd876(%rip)        # 10da0 <_ZSt7getlineIcSt11char_traitsIcESaIcEERSt13basic_istreamIT_T0_ES7_RNSt7__cxx1112basic_stringIS4_S5_T1_EE@GLIBCXX_3.4.21>
    352a:	66 0f 1f 44 00 00    	nopw   0x0(%rax,%rax,1)
    3530:	f3 0f 1e fa          	endbr64 
    3534:	ff 25 6e d8 00 00    	jmp    *0xd86e(%rip)        # 10da8 <_ZNSt7__cxx1119basic_ostringstreamIcSt11char_traitsIcESaIcEED1Ev@GLIBCXX_3.4.21>
    353a:	66 0f 1f 44 00 00    	nopw   0x0(%rax,%rax,1)
    3540:	f3 0f 1e fa          	endbr64 
    3544:	ff 25 66 d8 00 00    	jmp    *0xd866(%rip)        # 10db0 <_ZNSt14basic_ifstreamIcSt11char_traitsIcEED1Ev@GLIBCXX_3.4>
    354a:	66 0f 1f 44 00 00    	nopw   0x0(%rax,%rax,1)
    3550:	f3 0f 1e fa          	endbr64 
    3554:	ff 25 5e d8 00 00    	jmp    *0xd85e(%rip)        # 10db8 <popen@GLIBC_2.2.5>
    355a:	66 0f 1f 44 00 00    	nopw   0x0(%rax,%rax,1)
    3560:	f3 0f 1e fa          	endbr64 
    3564:	ff 25 56 d8 00 00    	jmp    *0xd856(%rip)        # 10dc0 <_ZSt17__throw_bad_allocv@GLIBCXX_3.4>
    356a:	66 0f 1f 44 00 00    	nopw   0x0(%rax,%rax,1)
    3570:	f3 0f 1e fa          	endbr64 
    3574:	ff 25 4e d8 00 00    	jmp    *0xd84e(%rip)        # 10dc8 <_ZNKSt7__cxx1112basic_stringIcSt11char_traitsIcESaIcEE13get_allocatorEv@GLIBCXX_3.4.21>
    357a:	66 0f 1f 44 00 00    	nopw   0x0(%rax,%rax,1)
    3580:	f3 0f 1e fa          	endbr64 
    3584:	ff 25 46 d8 00 00    	jmp    *0xd846(%rip)        # 10dd0 <__cxa_begin_catch@CXXABI_1.3>
    358a:	66 0f 1f 44 00 00    	nopw   0x0(%rax,%rax,1)
    3590:	f3 0f 1e fa          	endbr64 
    3594:	ff 25 3e d8 00 00    	jmp    *0xd83e(%rip)        # 10dd8 <_ZNKSt7__cxx1112basic_stringIcSt11char_traitsIcESaIcEE5c_strEv@GLIBCXX_3.4.21>
    359a:	66 0f 1f 44 00 00    	nopw   0x0(%rax,%rax,1)
    35a0:	f3 0f 1e fa          	endbr64 
    35a4:	ff 25 36 d8 00 00    	jmp    *0xd836(%rip)        # 10de0 <_ZNSt7__cxx1112basic_stringIcSt11char_traitsIcESaIcEEC1ERKS4_@GLIBCXX_3.4.21>
    35aa:	66 0f 1f 44 00 00    	nopw   0x0(%rax,%rax,1)
    35b0:	f3 0f 1e fa          	endbr64 
    35b4:	ff 25 2e d8 00 00    	jmp    *0xd82e(%rip)        # 10de8 <strlen@GLIBC_2.2.5>
    35ba:	66 0f 1f 44 00 00    	nopw   0x0(%rax,%rax,1)
    35c0:	f3 0f 1e fa          	endbr64 
    35c4:	ff 25 26 d8 00 00    	jmp    *0xd826(%rip)        # 10df0 <GOMP_loop_end_nowait@GOMP_1.0>
    35ca:	66 0f 1f 44 00 00    	nopw   0x0(%rax,%rax,1)
    35d0:	f3 0f 1e fa          	endbr64 
    35d4:	ff 25 1e d8 00 00    	jmp    *0xd81e(%rip)        # 10df8 <_ZSt20__throw_length_errorPKc@GLIBCXX_3.4>
    35da:	66 0f 1f 44 00 00    	nopw   0x0(%rax,%rax,1)
    35e0:	f3 0f 1e fa          	endbr64 
    35e4:	ff 25 16 d8 00 00    	jmp    *0xd816(%rip)        # 10e00 <_ZNSt7__cxx1112basic_stringIcSt11char_traitsIcESaIcEEC1EOS4_@GLIBCXX_3.4.21>
    35ea:	66 0f 1f 44 00 00    	nopw   0x0(%rax,%rax,1)
    35f0:	f3 0f 1e fa          	endbr64 
    35f4:	ff 25 0e d8 00 00    	jmp    *0xd80e(%rip)        # 10e08 <_ZNSt7__cxx1112basic_stringIcSt11char_traitsIcESaIcEED1Ev@GLIBCXX_3.4.21>
    35fa:	66 0f 1f 44 00 00    	nopw   0x0(%rax,%rax,1)
    3600:	f3 0f 1e fa          	endbr64 
    3604:	ff 25 06 d8 00 00    	jmp    *0xd806(%rip)        # 10e10 <_ZNSt7__cxx1112basic_stringIcSt11char_traitsIcESaIcEEpLEc@GLIBCXX_3.4.21>
    360a:	66 0f 1f 44 00 00    	nopw   0x0(%rax,%rax,1)
    3610:	f3 0f 1e fa          	endbr64 
    3614:	ff 25 fe d7 00 00    	jmp    *0xd7fe(%rip)        # 10e18 <_ZSt20__throw_system_errori@GLIBCXX_3.4.11>
    361a:	66 0f 1f 44 00 00    	nopw   0x0(%rax,%rax,1)
    3620:	f3 0f 1e fa          	endbr64 
    3624:	ff 25 f6 d7 00 00    	jmp    *0xd7f6(%rip)        # 10e20 <_ZNSt7__cxx1112basic_stringIcSt11char_traitsIcESaIcEE13_M_set_lengthEm@GLIBCXX_3.4.21>
    362a:	66 0f 1f 44 00 00    	nopw   0x0(%rax,%rax,1)
    3630:	f3 0f 1e fa          	endbr64 
    3634:	ff 25 ee d7 00 00    	jmp    *0xd7ee(%rip)        # 10e28 <_ZSt18_Rb_tree_incrementPSt18_Rb_tree_node_base@GLIBCXX_3.4>
    363a:	66 0f 1f 44 00 00    	nopw   0x0(%rax,%rax,1)
    3640:	f3 0f 1e fa          	endbr64 
    3644:	ff 25 e6 d7 00 00    	jmp    *0xd7e6(%rip)        # 10e30 <_ZNKSt7__cxx1112basic_stringIcSt11char_traitsIcESaIcEE4sizeEv@GLIBCXX_3.4.21>
    364a:	66 0f 1f 44 00 00    	nopw   0x0(%rax,%rax,1)
    3650:	f3 0f 1e fa          	endbr64 
    3654:	ff 25 de d7 00 00    	jmp    *0xd7de(%rip)        # 10e38 <_ZSt19__throw_logic_errorPKc@GLIBCXX_3.4>
    365a:	66 0f 1f 44 00 00    	nopw   0x0(%rax,%rax,1)
    3660:	f3 0f 1e fa          	endbr64 
    3664:	ff 25 d6 d7 00 00    	jmp    *0xd7d6(%rip)        # 10e40 <pthread_mutex_unlock@GLIBC_2.2.5>
    366a:	66 0f 1f 44 00 00    	nopw   0x0(%rax,%rax,1)
    3670:	f3 0f 1e fa          	endbr64 
    3674:	ff 25 ce d7 00 00    	jmp    *0xd7ce(%rip)        # 10e48 <_ZSt28__throw_bad_array_new_lengthv@GLIBCXX_3.4.29>
    367a:	66 0f 1f 44 00 00    	nopw   0x0(%rax,%rax,1)
    3680:	f3 0f 1e fa          	endbr64 
    3684:	ff 25 c6 d7 00 00    	jmp    *0xd7c6(%rip)        # 10e50 <_ZNSt7__cxx1112basic_stringIcSt11char_traitsIcESaIcEE13_M_local_dataEv@GLIBCXX_3.4.21>
    368a:	66 0f 1f 44 00 00    	nopw   0x0(%rax,%rax,1)
    3690:	f3 0f 1e fa          	endbr64 
    3694:	ff 25 be d7 00 00    	jmp    *0xd7be(%rip)        # 10e58 <_ZNSt7__cxx1112basic_stringIcSt11char_traitsIcESaIcEE7_M_dataEPc@GLIBCXX_3.4.21>
    369a:	66 0f 1f 44 00 00    	nopw   0x0(%rax,%rax,1)
    36a0:	f3 0f 1e fa          	endbr64 
    36a4:	ff 25 b6 d7 00 00    	jmp    *0xd7b6(%rip)        # 10e60 <_ZStlsIcSt11char_traitsIcESaIcEERSt13basic_ostreamIT_T0_ES7_RKNSt7__cxx1112basic_stringIS4_S5_T1_EE@GLIBCXX_3.4.21>
    36aa:	66 0f 1f 44 00 00    	nopw   0x0(%rax,%rax,1)
    36b0:	f3 0f 1e fa          	endbr64 
    36b4:	ff 25 ae d7 00 00    	jmp    *0xd7ae(%rip)        # 10e68 <_ZNKSt7__cxx1112basic_stringIcSt11char_traitsIcESaIcEE5beginEv@GLIBCXX_3.4.21>
    36ba:	66 0f 1f 44 00 00    	nopw   0x0(%rax,%rax,1)
    36c0:	f3 0f 1e fa          	endbr64 
    36c4:	ff 25 a6 d7 00 00    	jmp    *0xd7a6(%rip)        # 10e70 <_ZNSt7__cxx1112basic_stringIcSt11char_traitsIcESaIcEEpLEPKc@GLIBCXX_3.4.21>
    36ca:	66 0f 1f 44 00 00    	nopw   0x0(%rax,%rax,1)
    36d0:	f3 0f 1e fa          	endbr64 
    36d4:	ff 25 9e d7 00 00    	jmp    *0xd79e(%rip)        # 10e78 <_ZStlsISt11char_traitsIcEERSt13basic_ostreamIcT_ES5_PKc@GLIBCXX_3.4>
    36da:	66 0f 1f 44 00 00    	nopw   0x0(%rax,%rax,1)
    36e0:	f3 0f 1e fa          	endbr64 
    36e4:	ff 25 96 d7 00 00    	jmp    *0xd796(%rip)        # 10e80 <_Znwm@GLIBCXX_3.4>
    36ea:	66 0f 1f 44 00 00    	nopw   0x0(%rax,%rax,1)
    36f0:	f3 0f 1e fa          	endbr64 
    36f4:	ff 25 8e d7 00 00    	jmp    *0xd78e(%rip)        # 10e88 <_ZdlPvm@CXXABI_1.3.9>
    36fa:	66 0f 1f 44 00 00    	nopw   0x0(%rax,%rax,1)
    3700:	f3 0f 1e fa          	endbr64 
    3704:	ff 25 86 d7 00 00    	jmp    *0xd786(%rip)        # 10e90 <_ZNKSt7__cxx1119basic_ostringstreamIcSt11char_traitsIcESaIcEE3strEv@GLIBCXX_3.4.21>
    370a:	66 0f 1f 44 00 00    	nopw   0x0(%rax,%rax,1)
    3710:	f3 0f 1e fa          	endbr64 
    3714:	ff 25 7e d7 00 00    	jmp    *0xd77e(%rip)        # 10e98 <_ZNKSt7__cxx1112basic_stringIcSt11char_traitsIcESaIcEE6substrEmm@GLIBCXX_3.4.21>
    371a:	66 0f 1f 44 00 00    	nopw   0x0(%rax,%rax,1)
    3720:	f3 0f 1e fa          	endbr64 
    3724:	ff 25 76 d7 00 00    	jmp    *0xd776(%rip)        # 10ea0 <_ZSt18_Rb_tree_decrementPSt18_Rb_tree_node_base@GLIBCXX_3.4>
    372a:	66 0f 1f 44 00 00    	nopw   0x0(%rax,%rax,1)
    3730:	f3 0f 1e fa          	endbr64 
    3734:	ff 25 6e d7 00 00    	jmp    *0xd76e(%rip)        # 10ea8 <_ZNSolsEPFRSoS_E@GLIBCXX_3.4>
    373a:	66 0f 1f 44 00 00    	nopw   0x0(%rax,%rax,1)
    3740:	f3 0f 1e fa          	endbr64 
    3744:	ff 25 66 d7 00 00    	jmp    *0xd766(%rip)        # 10eb0 <_ZNSt7__cxx1112basic_stringIcSt11char_traitsIcESaIcEE12_Alloc_hiderC1EPcRKS3_@GLIBCXX_3.4.21>
    374a:	66 0f 1f 44 00 00    	nopw   0x0(%rax,%rax,1)
    3750:	f3 0f 1e fa          	endbr64 
    3754:	ff 25 5e d7 00 00    	jmp    *0xd75e(%rip)        # 10eb8 <_ZNSt14basic_ofstreamIcSt11char_traitsIcEEC1EPKcSt13_Ios_Openmode@GLIBCXX_3.4>
    375a:	66 0f 1f 44 00 00    	nopw   0x0(%rax,%rax,1)
    3760:	f3 0f 1e fa          	endbr64 
    3764:	ff 25 56 d7 00 00    	jmp    *0xd756(%rip)        # 10ec0 <_ZNKSt7__cxx1112basic_stringIcSt11char_traitsIcESaIcEE7_M_dataEv@GLIBCXX_3.4.21>
    376a:	66 0f 1f 44 00 00    	nopw   0x0(%rax,%rax,1)
    3770:	f3 0f 1e fa          	endbr64 
    3774:	ff 25 4e d7 00 00    	jmp    *0xd74e(%rip)        # 10ec8 <_ZNSt7__cxx1112basic_stringIcSt11char_traitsIcESaIcEE13_S_copy_charsEPcPKcS7_@GLIBCXX_3.4.21>
    377a:	66 0f 1f 44 00 00    	nopw   0x0(%rax,%rax,1)
    3780:	f3 0f 1e fa          	endbr64 
    3784:	ff 25 46 d7 00 00    	jmp    *0xd746(%rip)        # 10ed0 <__stack_chk_fail@GLIBC_2.4>
    378a:	66 0f 1f 44 00 00    	nopw   0x0(%rax,%rax,1)
    3790:	f3 0f 1e fa          	endbr64 
    3794:	ff 25 3e d7 00 00    	jmp    *0xd73e(%rip)        # 10ed8 <omp_set_num_threads@OMP_1.0>
    379a:	66 0f 1f 44 00 00    	nopw   0x0(%rax,%rax,1)
    37a0:	f3 0f 1e fa          	endbr64 
    37a4:	ff 25 36 d7 00 00    	jmp    *0xd736(%rip)        # 10ee0 <_ZSt18_Rb_tree_incrementPKSt18_Rb_tree_node_base@GLIBCXX_3.4>
    37aa:	66 0f 1f 44 00 00    	nopw   0x0(%rax,%rax,1)
    37b0:	f3 0f 1e fa          	endbr64 
    37b4:	ff 25 2e d7 00 00    	jmp    *0xd72e(%rip)        # 10ee8 <_ZNSt7__cxx1112basic_stringIcSt11char_traitsIcESaIcEE10_M_disposeEv@GLIBCXX_3.4.21>
    37ba:	66 0f 1f 44 00 00    	nopw   0x0(%rax,%rax,1)
    37c0:	f3 0f 1e fa          	endbr64 
    37c4:	ff 25 26 d7 00 00    	jmp    *0xd726(%rip)        # 10ef0 <_ZNKSt9basic_iosIcSt11char_traitsIcEEcvbEv@GLIBCXX_3.4.21>
    37ca:	66 0f 1f 44 00 00    	nopw   0x0(%rax,%rax,1)
    37d0:	f3 0f 1e fa          	endbr64 
    37d4:	ff 25 1e d7 00 00    	jmp    *0xd71e(%rip)        # 10ef8 <GOMP_loop_nonmonotonic_dynamic_next@GOMP_4.5>
    37da:	66 0f 1f 44 00 00    	nopw   0x0(%rax,%rax,1)
    37e0:	f3 0f 1e fa          	endbr64 
    37e4:	ff 25 16 d7 00 00    	jmp    *0xd716(%rip)        # 10f00 <_ZNKSt7__cxx1112basic_stringIcSt11char_traitsIcESaIcEE4findEcm@GLIBCXX_3.4.21>
    37ea:	66 0f 1f 44 00 00    	nopw   0x0(%rax,%rax,1)
    37f0:	f3 0f 1e fa          	endbr64 
    37f4:	ff 25 0e d7 00 00    	jmp    *0xd70e(%rip)        # 10f08 <_ZNSt7__cxx1119basic_ostringstreamIcSt11char_traitsIcESaIcEEC1Ev@GLIBCXX_3.4.26>
    37fa:	66 0f 1f 44 00 00    	nopw   0x0(%rax,%rax,1)
    3800:	f3 0f 1e fa          	endbr64 
    3804:	ff 25 06 d7 00 00    	jmp    *0xd706(%rip)        # 10f10 <_ZNSt7__cxx1112basic_stringIcSt11char_traitsIcESaIcEEaSEPKc@GLIBCXX_3.4.21>
    380a:	66 0f 1f 44 00 00    	nopw   0x0(%rax,%rax,1)
    3810:	f3 0f 1e fa          	endbr64 
    3814:	ff 25 fe d6 00 00    	jmp    *0xd6fe(%rip)        # 10f18 <_ZNSt7__cxx1112basic_stringIcSt11char_traitsIcESaIcEEC1Ev@GLIBCXX_3.4.21>
    381a:	66 0f 1f 44 00 00    	nopw   0x0(%rax,%rax,1)
    3820:	f3 0f 1e fa          	endbr64 
    3824:	ff 25 f6 d6 00 00    	jmp    *0xd6f6(%rip)        # 10f20 <pclose@GLIBC_2.2.5>
    382a:	66 0f 1f 44 00 00    	nopw   0x0(%rax,%rax,1)
    3830:	f3 0f 1e fa          	endbr64 
    3834:	ff 25 ee d6 00 00    	jmp    *0xd6ee(%rip)        # 10f28 <_ZNSt14basic_ofstreamIcSt11char_traitsIcEE5closeEv@GLIBCXX_3.4>
    383a:	66 0f 1f 44 00 00    	nopw   0x0(%rax,%rax,1)
    3840:	f3 0f 1e fa          	endbr64 
    3844:	ff 25 e6 d6 00 00    	jmp    *0xd6e6(%rip)        # 10f30 <__cxa_rethrow@CXXABI_1.3>
    384a:	66 0f 1f 44 00 00    	nopw   0x0(%rax,%rax,1)
    3850:	f3 0f 1e fa          	endbr64 
    3854:	ff 25 de d6 00 00    	jmp    *0xd6de(%rip)        # 10f38 <pthread_mutex_lock@GLIBC_2.2.5>
    385a:	66 0f 1f 44 00 00    	nopw   0x0(%rax,%rax,1)
    3860:	f3 0f 1e fa          	endbr64 
    3864:	ff 25 d6 d6 00 00    	jmp    *0xd6d6(%rip)        # 10f40 <_ZNSt14basic_ofstreamIcSt11char_traitsIcEED1Ev@GLIBCXX_3.4>
    386a:	66 0f 1f 44 00 00    	nopw   0x0(%rax,%rax,1)
    3870:	f3 0f 1e fa          	endbr64 
    3874:	ff 25 ce d6 00 00    	jmp    *0xd6ce(%rip)        # 10f48 <GOMP_parallel@GOMP_4.0>
    387a:	66 0f 1f 44 00 00    	nopw   0x0(%rax,%rax,1)
    3880:	f3 0f 1e fa          	endbr64 
    3884:	ff 25 c6 d6 00 00    	jmp    *0xd6c6(%rip)        # 10f50 <_ZNSt7__cxx1112basic_stringIcSt11char_traitsIcESaIcEE7reserveEm@GLIBCXX_3.4.21>
    388a:	66 0f 1f 44 00 00    	nopw   0x0(%rax,%rax,1)
    3890:	f3 0f 1e fa          	endbr64 
    3894:	ff 25 be d6 00 00    	jmp    *0xd6be(%rip)        # 10f58 <fgets@GLIBC_2.2.5>
    389a:	66 0f 1f 44 00 00    	nopw   0x0(%rax,%rax,1)
    38a0:	f3 0f 1e fa          	endbr64 
    38a4:	ff 25 b6 d6 00 00    	jmp    *0xd6b6(%rip)        # 10f60 <omp_get_thread_num@OMP_1.0>
    38aa:	66 0f 1f 44 00 00    	nopw   0x0(%rax,%rax,1)
    38b0:	f3 0f 1e fa          	endbr64 
    38b4:	ff 25 ae d6 00 00    	jmp    *0xd6ae(%rip)        # 10f68 <_ZNSt14basic_ifstreamIcSt11char_traitsIcEEC1ERKNSt7__cxx1112basic_stringIcS1_SaIcEEESt13_Ios_Openmode@GLIBCXX_3.4.21>
    38ba:	66 0f 1f 44 00 00    	nopw   0x0(%rax,%rax,1)
    38c0:	f3 0f 1e fa          	endbr64 
    38c4:	ff 25 a6 d6 00 00    	jmp    *0xd6a6(%rip)        # 10f70 <__cxa_end_catch@CXXABI_1.3>
    38ca:	66 0f 1f 44 00 00    	nopw   0x0(%rax,%rax,1)
    38d0:	f3 0f 1e fa          	endbr64 
    38d4:	ff 25 9e d6 00 00    	jmp    *0xd69e(%rip)        # 10f78 <GOMP_loop_nonmonotonic_dynamic_start@GOMP_4.5>
    38da:	66 0f 1f 44 00 00    	nopw   0x0(%rax,%rax,1)
    38e0:	f3 0f 1e fa          	endbr64 
    38e4:	ff 25 96 d6 00 00    	jmp    *0xd696(%rip)        # 10f80 <_ZNKSt7__cxx1112basic_stringIcSt11char_traitsIcESaIcEE5emptyEv@GLIBCXX_3.4.21>
    38ea:	66 0f 1f 44 00 00    	nopw   0x0(%rax,%rax,1)
    38f0:	f3 0f 1e fa          	endbr64 
    38f4:	ff 25 8e d6 00 00    	jmp    *0xd68e(%rip)        # 10f88 <_ZNSt7__cxx1112basic_stringIcSt11char_traitsIcESaIcEEC1ERKS3_@GLIBCXX_3.4.21>
    38fa:	66 0f 1f 44 00 00    	nopw   0x0(%rax,%rax,1)
    3900:	f3 0f 1e fa          	endbr64 
    3904:	ff 25 86 d6 00 00    	jmp    *0xd686(%rip)        # 10f90 <_ZNSolsEi@GLIBCXX_3.4>
    390a:	66 0f 1f 44 00 00    	nopw   0x0(%rax,%rax,1)
    3910:	f3 0f 1e fa          	endbr64 
    3914:	ff 25 7e d6 00 00    	jmp    *0xd67e(%rip)        # 10f98 <_Unwind_Resume@GCC_3.0>
    391a:	66 0f 1f 44 00 00    	nopw   0x0(%rax,%rax,1)
    3920:	f3 0f 1e fa          	endbr64 
    3924:	ff 25 76 d6 00 00    	jmp    *0xd676(%rip)        # 10fa0 <_ZNSt7__cxx1112basic_stringIcSt11char_traitsIcESaIcEE9_M_createERmm@GLIBCXX_3.4.21>
    392a:	66 0f 1f 44 00 00    	nopw   0x0(%rax,%rax,1)
    3930:	f3 0f 1e fa          	endbr64 
    3934:	ff 25 6e d6 00 00    	jmp    *0xd66e(%rip)        # 10fa8 <_ZNKSt7__cxx1112basic_stringIcSt11char_traitsIcESaIcEE3endEv@GLIBCXX_3.4.21>
    393a:	66 0f 1f 44 00 00    	nopw   0x0(%rax,%rax,1)
    3940:	f3 0f 1e fa          	endbr64 
    3944:	ff 25 66 d6 00 00    	jmp    *0xd666(%rip)        # 10fb0 <_ZNSt7__cxx1112basic_stringIcSt11char_traitsIcESaIcEE6appendEPKc@GLIBCXX_3.4.21>
    394a:	66 0f 1f 44 00 00    	nopw   0x0(%rax,%rax,1)
    3950:	f3 0f 1e fa          	endbr64 
    3954:	ff 25 5e d6 00 00    	jmp    *0xd65e(%rip)        # 10fb8 <_ZNSt7__cxx1112basic_stringIcSt11char_traitsIcESaIcEE11_M_capacityEm@GLIBCXX_3.4.21>
    395a:	66 0f 1f 44 00 00    	nopw   0x0(%rax,%rax,1)
    3960:	f3 0f 1e fa          	endbr64 
    3964:	ff 25 56 d6 00 00    	jmp    *0xd656(%rip)        # 10fc0 <_ZNKSt7__cxx1112basic_stringIcSt11char_traitsIcESaIcEE4findEPKcm@GLIBCXX_3.4.21>
    396a:	66 0f 1f 44 00 00    	nopw   0x0(%rax,%rax,1)
    3970:	f3 0f 1e fa          	endbr64 
    3974:	ff 25 4e d6 00 00    	jmp    *0xd64e(%rip)        # 10fc8 <_ZNKSt7__cxx1112basic_stringIcSt11char_traitsIcESaIcEE4findERKS4_m@GLIBCXX_3.4.21>
    397a:	66 0f 1f 44 00 00    	nopw   0x0(%rax,%rax,1)

Disassembly of section .text:

0000000000003980 <_start>:
    3980:	f3 0f 1e fa          	endbr64 
    3984:	31 ed                	xor    %ebp,%ebp
    3986:	49 89 d1             	mov    %rdx,%r9
    3989:	5e                   	pop    %rsi
    398a:	48 89 e2             	mov    %rsp,%rdx
    398d:	48 83 e4 f0          	and    $0xfffffffffffffff0,%rsp
    3991:	50                   	push   %rax
    3992:	54                   	push   %rsp
    3993:	45 31 c0             	xor    %r8d,%r8d
    3996:	31 c9                	xor    %ecx,%ecx
    3998:	48 8d 3d 30 14 00 00 	lea    0x1430(%rip),%rdi        # 4dcf <main>
    399f:	ff 15 3b d6 00 00    	call   *0xd63b(%rip)        # 10fe0 <__libc_start_main@GLIBC_2.34>
    39a5:	f4                   	hlt    
    39a6:	66 2e 0f 1f 84 00 00 	cs nopw 0x0(%rax,%rax,1)
    39ad:	00 00 00 

00000000000039b0 <deregister_tm_clones>:
    39b0:	48 8d 3d 61 d6 00 00 	lea    0xd661(%rip),%rdi        # 11018 <__TMC_END__>
    39b7:	48 8d 05 5a d6 00 00 	lea    0xd65a(%rip),%rax        # 11018 <__TMC_END__>
    39be:	48 39 f8             	cmp    %rdi,%rax
    39c1:	74 15                	je     39d8 <deregister_tm_clones+0x28>
    39c3:	48 8b 05 1e d6 00 00 	mov    0xd61e(%rip),%rax        # 10fe8 <_ITM_deregisterTMCloneTable@Base>
    39ca:	48 85 c0             	test   %rax,%rax
    39cd:	74 09                	je     39d8 <deregister_tm_clones+0x28>
    39cf:	ff e0                	jmp    *%rax
    39d1:	0f 1f 80 00 00 00 00 	nopl   0x0(%rax)
    39d8:	c3                   	ret    
    39d9:	0f 1f 80 00 00 00 00 	nopl   0x0(%rax)

00000000000039e0 <register_tm_clones>:
    39e0:	48 8d 3d 31 d6 00 00 	lea    0xd631(%rip),%rdi        # 11018 <__TMC_END__>
    39e7:	48 8d 35 2a d6 00 00 	lea    0xd62a(%rip),%rsi        # 11018 <__TMC_END__>
    39ee:	48 29 fe             	sub    %rdi,%rsi
    39f1:	48 89 f0             	mov    %rsi,%rax
    39f4:	48 c1 ee 3f          	shr    $0x3f,%rsi
    39f8:	48 c1 f8 03          	sar    $0x3,%rax
    39fc:	48 01 c6             	add    %rax,%rsi
    39ff:	48 d1 fe             	sar    %rsi
    3a02:	74 14                	je     3a18 <register_tm_clones+0x38>
    3a04:	48 8b 05 ed d5 00 00 	mov    0xd5ed(%rip),%rax        # 10ff8 <_ITM_registerTMCloneTable@Base>
    3a0b:	48 85 c0             	test   %rax,%rax
    3a0e:	74 08                	je     3a18 <register_tm_clones+0x38>
    3a10:	ff e0                	jmp    *%rax
    3a12:	66 0f 1f 44 00 00    	nopw   0x0(%rax,%rax,1)
    3a18:	c3                   	ret    
    3a19:	0f 1f 80 00 00 00 00 	nopl   0x0(%rax)

0000000000003a20 <__do_global_dtors_aux>:
    3a20:	f3 0f 1e fa          	endbr64 
    3a24:	80 3d 45 d8 00 00 00 	cmpb   $0x0,0xd845(%rip)        # 11270 <completed.0>
    3a2b:	75 2b                	jne    3a58 <__do_global_dtors_aux+0x38>
    3a2d:	55                   	push   %rbp
    3a2e:	48 83 3d 9a d5 00 00 	cmpq   $0x0,0xd59a(%rip)        # 10fd0 <__cxa_finalize@GLIBC_2.2.5>
    3a35:	00 
    3a36:	48 89 e5             	mov    %rsp,%rbp
    3a39:	74 0c                	je     3a47 <__do_global_dtors_aux+0x27>
    3a3b:	48 8b 3d c6 d5 00 00 	mov    0xd5c6(%rip),%rdi        # 11008 <__dso_handle>
    3a42:	e8 89 fa ff ff       	call   34d0 <_init+0x4d0>
    3a47:	e8 64 ff ff ff       	call   39b0 <deregister_tm_clones>
    3a4c:	c6 05 1d d8 00 00 01 	movb   $0x1,0xd81d(%rip)        # 11270 <completed.0>
    3a53:	5d                   	pop    %rbp
    3a54:	c3                   	ret    
    3a55:	0f 1f 00             	nopl   (%rax)
    3a58:	c3                   	ret    
    3a59:	0f 1f 80 00 00 00 00 	nopl   0x0(%rax)

0000000000003a60 <frame_dummy>:
    3a60:	f3 0f 1e fa          	endbr64 
    3a64:	e9 77 ff ff ff       	jmp    39e0 <register_tm_clones>
    3a69:	90                   	nop

0000000000003a6a <_ZL18__gthread_active_pv>:
    3a6a:	55                   	push   %rbp
    3a6b:	48 89 e5             	mov    %rsp,%rbp
    3a6e:	b8 01 00 00 00       	mov    $0x1,%eax
    3a73:	5d                   	pop    %rbp
    3a74:	c3                   	ret    

0000000000003a75 <_Z15escaparComillasRKNSt7__cxx1112basic_stringIcSt11char_traitsIcESaIcEEE>:
    3a75:	f3 0f 1e fa          	endbr64 
    3a79:	55                   	push   %rbp
    3a7a:	48 89 e5             	mov    %rsp,%rbp
    3a7d:	53                   	push   %rbx
    3a7e:	48 83 ec 48          	sub    $0x48,%rsp
    3a82:	48 89 7d b8          	mov    %rdi,-0x48(%rbp)
    3a86:	48 89 75 b0          	mov    %rsi,-0x50(%rbp)
    3a8a:	64 48 8b 04 25 28 00 	mov    %fs:0x28,%rax
    3a91:	00 00 
    3a93:	48 89 45 e8          	mov    %rax,-0x18(%rbp)
    3a97:	31 c0                	xor    %eax,%eax
    3a99:	48 8b 45 b8          	mov    -0x48(%rbp),%rax
    3a9d:	48 89 c7             	mov    %rax,%rdi
    3aa0:	e8 6b fd ff ff       	call   3810 <_init+0x810>
    3aa5:	48 8b 45 b0          	mov    -0x50(%rbp),%rax
    3aa9:	48 89 45 e0          	mov    %rax,-0x20(%rbp)
    3aad:	48 8b 45 e0          	mov    -0x20(%rbp),%rax
    3ab1:	48 89 c7             	mov    %rax,%rdi
    3ab4:	e8 f7 fb ff ff       	call   36b0 <_init+0x6b0>
    3ab9:	48 89 45 d0          	mov    %rax,-0x30(%rbp)
    3abd:	48 8b 45 e0          	mov    -0x20(%rbp),%rax
    3ac1:	48 89 c7             	mov    %rax,%rdi
    3ac4:	e8 67 fe ff ff       	call   3930 <_init+0x930>
    3ac9:	48 89 45 d8          	mov    %rax,-0x28(%rbp)
    3acd:	eb 4e                	jmp    3b1d <_Z15escaparComillasRKNSt7__cxx1112basic_stringIcSt11char_traitsIcESaIcEEE+0xa8>
    3acf:	48 8d 45 d0          	lea    -0x30(%rbp),%rax
    3ad3:	48 89 c7             	mov    %rax,%rdi
    3ad6:	e8 65 22 00 00       	call   5d40 <_ZNK9__gnu_cxx17__normal_iteratorIPKcNSt7__cxx1112basic_stringIcSt11char_traitsIcESaIcEEEEdeEv>
    3adb:	0f b6 00             	movzbl (%rax),%eax
    3ade:	88 45 cf             	mov    %al,-0x31(%rbp)
    3ae1:	80 7d cf 22          	cmpb   $0x22,-0x31(%rbp)
    3ae5:	75 18                	jne    3aff <_Z15escaparComillasRKNSt7__cxx1112basic_stringIcSt11char_traitsIcESaIcEEE+0x8a>
    3ae7:	48 8b 45 b8          	mov    -0x48(%rbp),%rax
    3aeb:	48 8d 15 16 85 00 00 	lea    0x8516(%rip),%rdx        # c008 <_ZSt19piecewise_construct+0x4>
    3af2:	48 89 d6             	mov    %rdx,%rsi
    3af5:	48 89 c7             	mov    %rax,%rdi
    3af8:	e8 c3 fb ff ff       	call   36c0 <_init+0x6c0>
    3afd:	eb 12                	jmp    3b11 <_Z15escaparComillasRKNSt7__cxx1112basic_stringIcSt11char_traitsIcESaIcEEE+0x9c>
    3aff:	0f be 55 cf          	movsbl -0x31(%rbp),%edx
    3b03:	48 8b 45 b8          	mov    -0x48(%rbp),%rax
    3b07:	89 d6                	mov    %edx,%esi
    3b09:	48 89 c7             	mov    %rax,%rdi
    3b0c:	e8 ef fa ff ff       	call   3600 <_init+0x600>
    3b11:	48 8d 45 d0          	lea    -0x30(%rbp),%rax
    3b15:	48 89 c7             	mov    %rax,%rdi
    3b18:	e8 ff 21 00 00       	call   5d1c <_ZN9__gnu_cxx17__normal_iteratorIPKcNSt7__cxx1112basic_stringIcSt11char_traitsIcESaIcEEEEppEv>
    3b1d:	48 8d 55 d8          	lea    -0x28(%rbp),%rdx
    3b21:	48 8d 45 d0          	lea    -0x30(%rbp),%rax
    3b25:	48 89 d6             	mov    %rdx,%rsi
    3b28:	48 89 c7             	mov    %rax,%rdi
    3b2b:	e8 ac 21 00 00       	call   5cdc <_ZN9__gnu_cxxneIPKcNSt7__cxx1112basic_stringIcSt11char_traitsIcESaIcEEEEEbRKNS_17__normal_iteratorIT_T0_EESE_>
    3b30:	84 c0                	test   %al,%al
    3b32:	75 9b                	jne    3acf <_Z15escaparComillasRKNSt7__cxx1112basic_stringIcSt11char_traitsIcESaIcEEE+0x5a>
    3b34:	eb 32                	jmp    3b68 <_Z15escaparComillasRKNSt7__cxx1112basic_stringIcSt11char_traitsIcESaIcEEE+0xf3>
    3b36:	f3 0f 1e fa          	endbr64 
    3b3a:	48 89 c3             	mov    %rax,%rbx
    3b3d:	48 8b 45 b8          	mov    -0x48(%rbp),%rax
    3b41:	48 89 c7             	mov    %rax,%rdi
    3b44:	e8 a7 fa ff ff       	call   35f0 <_init+0x5f0>
    3b49:	48 89 d8             	mov    %rbx,%rax
    3b4c:	48 8b 55 e8          	mov    -0x18(%rbp),%rdx
    3b50:	64 48 2b 14 25 28 00 	sub    %fs:0x28,%rdx
    3b57:	00 00 
    3b59:	74 05                	je     3b60 <_Z15escaparComillasRKNSt7__cxx1112basic_stringIcSt11char_traitsIcESaIcEEE+0xeb>
    3b5b:	e8 20 fc ff ff       	call   3780 <_init+0x780>
    3b60:	48 89 c7             	mov    %rax,%rdi
    3b63:	e8 a8 fd ff ff       	call   3910 <_init+0x910>
    3b68:	48 8b 45 e8          	mov    -0x18(%rbp),%rax
    3b6c:	64 48 2b 04 25 28 00 	sub    %fs:0x28,%rax
    3b73:	00 00 
    3b75:	74 05                	je     3b7c <_Z15escaparComillasRKNSt7__cxx1112basic_stringIcSt11char_traitsIcESaIcEEE+0x107>
    3b77:	e8 04 fc ff ff       	call   3780 <_init+0x780>
    3b7c:	48 8b 45 b8          	mov    -0x48(%rbp),%rax
    3b80:	48 8b 5d f8          	mov    -0x8(%rbp),%rbx
    3b84:	c9                   	leave  
    3b85:	c3                   	ret    

0000000000003b86 <_Z19parsearJSONdePythonRKNSt7__cxx1112basic_stringIcSt11char_traitsIcESaIcEEE>:
    3b86:	f3 0f 1e fa          	endbr64 
    3b8a:	55                   	push   %rbp
    3b8b:	48 89 e5             	mov    %rsp,%rbp
    3b8e:	53                   	push   %rbx
    3b8f:	48 81 ec f8 00 00 00 	sub    $0xf8,%rsp
    3b96:	48 89 bd 08 ff ff ff 	mov    %rdi,-0xf8(%rbp)
    3b9d:	48 89 b5 00 ff ff ff 	mov    %rsi,-0x100(%rbp)
    3ba4:	64 48 8b 04 25 28 00 	mov    %fs:0x28,%rax
    3bab:	00 00 
    3bad:	48 89 45 e8          	mov    %rax,-0x18(%rbp)
    3bb1:	31 c0                	xor    %eax,%eax
    3bb3:	48 8b 85 08 ff ff ff 	mov    -0xf8(%rbp),%rax
    3bba:	48 89 c7             	mov    %rax,%rdi
    3bbd:	e8 00 1f 00 00       	call   5ac2 <_ZNSt6vectorISt3mapINSt7__cxx1112basic_stringIcSt11char_traitsIcESaIcEEES6_St4lessIS6_ESaISt4pairIKS6_S6_EEESaISD_EEC1Ev>
    3bc2:	48 c7 85 18 ff ff ff 	movq   $0x0,-0xe8(%rbp)
    3bc9:	00 00 00 00 
    3bcd:	e9 7e 02 00 00       	jmp    3e50 <_Z19parsearJSONdePythonRKNSt7__cxx1112basic_stringIcSt11char_traitsIcESaIcEEE+0x2ca>
    3bd2:	48 8b 95 18 ff ff ff 	mov    -0xe8(%rbp),%rdx
    3bd9:	48 8b 85 00 ff ff ff 	mov    -0x100(%rbp),%rax
    3be0:	be 7d 00 00 00       	mov    $0x7d,%esi
    3be5:	48 89 c7             	mov    %rax,%rdi
    3be8:	e8 f3 fb ff ff       	call   37e0 <_init+0x7e0>
    3bed:	48 89 85 28 ff ff ff 	mov    %rax,-0xd8(%rbp)
    3bf4:	48 83 bd 28 ff ff ff 	cmpq   $0xffffffffffffffff,-0xd8(%rbp)
    3bfb:	ff 
    3bfc:	75 06                	jne    3c04 <_Z19parsearJSONdePythonRKNSt7__cxx1112basic_stringIcSt11char_traitsIcESaIcEEE+0x7e>
    3bfe:	90                   	nop
    3bff:	e9 09 03 00 00       	jmp    3f0d <_Z19parsearJSONdePythonRKNSt7__cxx1112basic_stringIcSt11char_traitsIcESaIcEEE+0x387>
    3c04:	48 8b 85 28 ff ff ff 	mov    -0xd8(%rbp),%rax
    3c0b:	48 2b 85 18 ff ff ff 	sub    -0xe8(%rbp),%rax
    3c12:	48 8d 48 01          	lea    0x1(%rax),%rcx
    3c16:	48 8d 45 80          	lea    -0x80(%rbp),%rax
    3c1a:	48 8b 95 18 ff ff ff 	mov    -0xe8(%rbp),%rdx
    3c21:	48 8b b5 00 ff ff ff 	mov    -0x100(%rbp),%rsi
    3c28:	48 89 c7             	mov    %rax,%rdi
    3c2b:	e8 e0 fa ff ff       	call   3710 <_init+0x710>
    3c30:	48 8d 85 50 ff ff ff 	lea    -0xb0(%rbp),%rax
    3c37:	48 89 c7             	mov    %rax,%rdi
    3c3a:	e8 eb 1e 00 00       	call   5b2a <_ZNSt3mapINSt7__cxx1112basic_stringIcSt11char_traitsIcESaIcEEES5_St4lessIS5_ESaISt4pairIKS5_S5_EEEC1Ev>
    3c3f:	48 c7 85 20 ff ff ff 	movq   $0x0,-0xe0(%rbp)
    3c46:	00 00 00 00 
    3c4a:	e9 81 01 00 00       	jmp    3dd0 <_Z19parsearJSONdePythonRKNSt7__cxx1112basic_stringIcSt11char_traitsIcESaIcEEE+0x24a>
    3c4f:	48 8b 85 20 ff ff ff 	mov    -0xe0(%rbp),%rax
    3c56:	48 8d 50 01          	lea    0x1(%rax),%rdx
    3c5a:	48 8d 45 80          	lea    -0x80(%rbp),%rax
    3c5e:	48 8d 0d a6 83 00 00 	lea    0x83a6(%rip),%rcx        # c00b <_ZSt19piecewise_construct+0x7>
    3c65:	48 89 ce             	mov    %rcx,%rsi
    3c68:	48 89 c7             	mov    %rax,%rdi
    3c6b:	e8 f0 fc ff ff       	call   3960 <_init+0x960>
    3c70:	48 89 85 30 ff ff ff 	mov    %rax,-0xd0(%rbp)
    3c77:	48 83 bd 30 ff ff ff 	cmpq   $0xffffffffffffffff,-0xd0(%rbp)
    3c7e:	ff 
    3c7f:	0f 84 84 01 00 00    	je     3e09 <_Z19parsearJSONdePythonRKNSt7__cxx1112basic_stringIcSt11char_traitsIcESaIcEEE+0x283>
    3c85:	48 8b 85 30 ff ff ff 	mov    -0xd0(%rbp),%rax
    3c8c:	48 2b 85 20 ff ff ff 	sub    -0xe0(%rbp),%rax
    3c93:	48 8d 48 ff          	lea    -0x1(%rax),%rcx
    3c97:	48 8b 85 20 ff ff ff 	mov    -0xe0(%rbp),%rax
    3c9e:	48 8d 50 01          	lea    0x1(%rax),%rdx
    3ca2:	48 8d 45 a0          	lea    -0x60(%rbp),%rax
    3ca6:	48 8d 75 80          	lea    -0x80(%rbp),%rsi
    3caa:	48 89 c7             	mov    %rax,%rdi
    3cad:	e8 5e fa ff ff       	call   3710 <_init+0x710>
    3cb2:	48 8b 95 30 ff ff ff 	mov    -0xd0(%rbp),%rdx
    3cb9:	48 8d 45 80          	lea    -0x80(%rbp),%rax
    3cbd:	48 8d 0d 49 83 00 00 	lea    0x8349(%rip),%rcx        # c00d <_ZSt19piecewise_construct+0x9>
    3cc4:	48 89 ce             	mov    %rcx,%rsi
    3cc7:	48 89 c7             	mov    %rax,%rdi
    3cca:	e8 91 fc ff ff       	call   3960 <_init+0x960>
    3ccf:	48 89 85 38 ff ff ff 	mov    %rax,-0xc8(%rbp)
    3cd6:	48 8b 95 38 ff ff ff 	mov    -0xc8(%rbp),%rdx
    3cdd:	48 8d 45 80          	lea    -0x80(%rbp),%rax
    3ce1:	48 8d 0d 23 83 00 00 	lea    0x8323(%rip),%rcx        # c00b <_ZSt19piecewise_construct+0x7>
    3ce8:	48 89 ce             	mov    %rcx,%rsi
    3ceb:	48 89 c7             	mov    %rax,%rdi
    3cee:	e8 6d fc ff ff       	call   3960 <_init+0x960>
    3cf3:	48 89 85 40 ff ff ff 	mov    %rax,-0xc0(%rbp)
    3cfa:	48 8b 85 40 ff ff ff 	mov    -0xc0(%rbp),%rax
    3d01:	48 8d 50 01          	lea    0x1(%rax),%rdx
    3d05:	48 8d 45 80          	lea    -0x80(%rbp),%rax
    3d09:	48 8d 0d fb 82 00 00 	lea    0x82fb(%rip),%rcx        # c00b <_ZSt19piecewise_construct+0x7>
    3d10:	48 89 ce             	mov    %rcx,%rsi
    3d13:	48 89 c7             	mov    %rax,%rdi
    3d16:	e8 45 fc ff ff       	call   3960 <_init+0x960>
    3d1b:	48 89 85 48 ff ff ff 	mov    %rax,-0xb8(%rbp)
    3d22:	48 83 bd 40 ff ff ff 	cmpq   $0xffffffffffffffff,-0xc0(%rbp)
    3d29:	ff 
    3d2a:	75 0a                	jne    3d36 <_Z19parsearJSONdePythonRKNSt7__cxx1112basic_stringIcSt11char_traitsIcESaIcEEE+0x1b0>
    3d2c:	bb 00 00 00 00       	mov    $0x0,%ebx
    3d31:	e9 89 00 00 00       	jmp    3dbf <_Z19parsearJSONdePythonRKNSt7__cxx1112basic_stringIcSt11char_traitsIcESaIcEEE+0x239>
    3d36:	48 83 bd 48 ff ff ff 	cmpq   $0xffffffffffffffff,-0xb8(%rbp)
    3d3d:	ff 
    3d3e:	75 07                	jne    3d47 <_Z19parsearJSONdePythonRKNSt7__cxx1112basic_stringIcSt11char_traitsIcESaIcEEE+0x1c1>
    3d40:	bb 00 00 00 00       	mov    $0x0,%ebx
    3d45:	eb 78                	jmp    3dbf <_Z19parsearJSONdePythonRKNSt7__cxx1112basic_stringIcSt11char_traitsIcESaIcEEE+0x239>
    3d47:	48 8b 85 48 ff ff ff 	mov    -0xb8(%rbp),%rax
    3d4e:	48 2b 85 40 ff ff ff 	sub    -0xc0(%rbp),%rax
    3d55:	48 8d 48 ff          	lea    -0x1(%rax),%rcx
    3d59:	48 8b 85 40 ff ff ff 	mov    -0xc0(%rbp),%rax
    3d60:	48 8d 50 01          	lea    0x1(%rax),%rdx
    3d64:	48 8d 45 c0          	lea    -0x40(%rbp),%rax
    3d68:	48 8d 75 80          	lea    -0x80(%rbp),%rsi
    3d6c:	48 89 c7             	mov    %rax,%rdi
    3d6f:	e8 9c f9 ff ff       	call   3710 <_init+0x710>
    3d74:	48 8d 55 a0          	lea    -0x60(%rbp),%rdx
    3d78:	48 8d 85 50 ff ff ff 	lea    -0xb0(%rbp),%rax
    3d7f:	48 89 d6             	mov    %rdx,%rsi
    3d82:	48 89 c7             	mov    %rax,%rdi
    3d85:	e8 34 21 00 00       	call   5ebe <_ZNSt3mapINSt7__cxx1112basic_stringIcSt11char_traitsIcESaIcEEES5_St4lessIS5_ESaISt4pairIKS5_S5_EEEixERS9_>
    3d8a:	48 89 c2             	mov    %rax,%rdx
    3d8d:	48 8d 45 c0          	lea    -0x40(%rbp),%rax
    3d91:	48 89 c6             	mov    %rax,%rsi
    3d94:	48 89 d7             	mov    %rdx,%rdi
    3d97:	e8 54 f7 ff ff       	call   34f0 <_init+0x4f0>
    3d9c:	48 8b 85 48 ff ff ff 	mov    -0xb8(%rbp),%rax
    3da3:	48 83 c0 01          	add    $0x1,%rax
    3da7:	48 89 85 20 ff ff ff 	mov    %rax,-0xe0(%rbp)
    3dae:	48 8d 45 c0          	lea    -0x40(%rbp),%rax
    3db2:	48 89 c7             	mov    %rax,%rdi
    3db5:	e8 36 f8 ff ff       	call   35f0 <_init+0x5f0>
    3dba:	bb 01 00 00 00       	mov    $0x1,%ebx
    3dbf:	48 8d 45 a0          	lea    -0x60(%rbp),%rax
    3dc3:	48 89 c7             	mov    %rax,%rdi
    3dc6:	e8 25 f8 ff ff       	call   35f0 <_init+0x5f0>
    3dcb:	83 fb 01             	cmp    $0x1,%ebx
    3dce:	75 39                	jne    3e09 <_Z19parsearJSONdePythonRKNSt7__cxx1112basic_stringIcSt11char_traitsIcESaIcEEE+0x283>
    3dd0:	48 8b 95 20 ff ff ff 	mov    -0xe0(%rbp),%rdx
    3dd7:	48 8d 45 80          	lea    -0x80(%rbp),%rax
    3ddb:	48 8d 0d 29 82 00 00 	lea    0x8229(%rip),%rcx        # c00b <_ZSt19piecewise_construct+0x7>
    3de2:	48 89 ce             	mov    %rcx,%rsi
    3de5:	48 89 c7             	mov    %rax,%rdi
    3de8:	e8 73 fb ff ff       	call   3960 <_init+0x960>
    3ded:	48 89 85 20 ff ff ff 	mov    %rax,-0xe0(%rbp)
    3df4:	48 83 bd 20 ff ff ff 	cmpq   $0xffffffffffffffff,-0xe0(%rbp)
    3dfb:	ff 
    3dfc:	0f 95 c0             	setne  %al
    3dff:	84 c0                	test   %al,%al
    3e01:	0f 85 48 fe ff ff    	jne    3c4f <_Z19parsearJSONdePythonRKNSt7__cxx1112basic_stringIcSt11char_traitsIcESaIcEEE+0xc9>
    3e07:	eb 01                	jmp    3e0a <_Z19parsearJSONdePythonRKNSt7__cxx1112basic_stringIcSt11char_traitsIcESaIcEEE+0x284>
    3e09:	90                   	nop
    3e0a:	48 8d 95 50 ff ff ff 	lea    -0xb0(%rbp),%rdx
    3e11:	48 8b 85 08 ff ff ff 	mov    -0xf8(%rbp),%rax
    3e18:	48 89 d6             	mov    %rdx,%rsi
    3e1b:	48 89 c7             	mov    %rax,%rdi
    3e1e:	e8 bb 21 00 00       	call   5fde <_ZNSt6vectorISt3mapINSt7__cxx1112basic_stringIcSt11char_traitsIcESaIcEEES6_St4lessIS6_ESaISt4pairIKS6_S6_EEESaISD_EE9push_backERKSD_>
    3e23:	48 8b 85 28 ff ff ff 	mov    -0xd8(%rbp),%rax
    3e2a:	48 83 c0 01          	add    $0x1,%rax
    3e2e:	48 89 85 18 ff ff ff 	mov    %rax,-0xe8(%rbp)
    3e35:	48 8d 85 50 ff ff ff 	lea    -0xb0(%rbp),%rax
    3e3c:	48 89 c7             	mov    %rax,%rdi
    3e3f:	e8 06 1d 00 00       	call   5b4a <_ZNSt3mapINSt7__cxx1112basic_stringIcSt11char_traitsIcESaIcEEES5_St4lessIS5_ESaISt4pairIKS5_S5_EEED1Ev>
    3e44:	48 8d 45 80          	lea    -0x80(%rbp),%rax
    3e48:	48 89 c7             	mov    %rax,%rdi
    3e4b:	e8 a0 f7 ff ff       	call   35f0 <_init+0x5f0>
    3e50:	48 8b 95 18 ff ff ff 	mov    -0xe8(%rbp),%rdx
    3e57:	48 8b 85 00 ff ff ff 	mov    -0x100(%rbp),%rax
    3e5e:	be 7b 00 00 00       	mov    $0x7b,%esi
    3e63:	48 89 c7             	mov    %rax,%rdi
    3e66:	e8 75 f9 ff ff       	call   37e0 <_init+0x7e0>
    3e6b:	48 89 85 18 ff ff ff 	mov    %rax,-0xe8(%rbp)
    3e72:	48 83 bd 18 ff ff ff 	cmpq   $0xffffffffffffffff,-0xe8(%rbp)
    3e79:	ff 
    3e7a:	0f 95 c0             	setne  %al
    3e7d:	84 c0                	test   %al,%al
    3e7f:	0f 85 4d fd ff ff    	jne    3bd2 <_Z19parsearJSONdePythonRKNSt7__cxx1112basic_stringIcSt11char_traitsIcESaIcEEE+0x4c>
    3e85:	e9 83 00 00 00       	jmp    3f0d <_Z19parsearJSONdePythonRKNSt7__cxx1112basic_stringIcSt11char_traitsIcESaIcEEE+0x387>
    3e8a:	f3 0f 1e fa          	endbr64 
    3e8e:	48 89 c3             	mov    %rax,%rbx
    3e91:	48 8d 45 c0          	lea    -0x40(%rbp),%rax
    3e95:	48 89 c7             	mov    %rax,%rdi
    3e98:	e8 53 f7 ff ff       	call   35f0 <_init+0x5f0>
    3e9d:	eb 07                	jmp    3ea6 <_Z19parsearJSONdePythonRKNSt7__cxx1112basic_stringIcSt11char_traitsIcESaIcEEE+0x320>
    3e9f:	f3 0f 1e fa          	endbr64 
    3ea3:	48 89 c3             	mov    %rax,%rbx
    3ea6:	48 8d 45 a0          	lea    -0x60(%rbp),%rax
    3eaa:	48 89 c7             	mov    %rax,%rdi
    3ead:	e8 3e f7 ff ff       	call   35f0 <_init+0x5f0>
    3eb2:	eb 07                	jmp    3ebb <_Z19parsearJSONdePythonRKNSt7__cxx1112basic_stringIcSt11char_traitsIcESaIcEEE+0x335>
    3eb4:	f3 0f 1e fa          	endbr64 
    3eb8:	48 89 c3             	mov    %rax,%rbx
    3ebb:	48 8d 85 50 ff ff ff 	lea    -0xb0(%rbp),%rax
    3ec2:	48 89 c7             	mov    %rax,%rdi
    3ec5:	e8 80 1c 00 00       	call   5b4a <_ZNSt3mapINSt7__cxx1112basic_stringIcSt11char_traitsIcESaIcEEES5_St4lessIS5_ESaISt4pairIKS5_S5_EEED1Ev>
    3eca:	48 8d 45 80          	lea    -0x80(%rbp),%rax
    3ece:	48 89 c7             	mov    %rax,%rdi
    3ed1:	e8 1a f7 ff ff       	call   35f0 <_init+0x5f0>
    3ed6:	eb 07                	jmp    3edf <_Z19parsearJSONdePythonRKNSt7__cxx1112basic_stringIcSt11char_traitsIcESaIcEEE+0x359>
    3ed8:	f3 0f 1e fa          	endbr64 
    3edc:	48 89 c3             	mov    %rax,%rbx
    3edf:	48 8b 85 08 ff ff ff 	mov    -0xf8(%rbp),%rax
    3ee6:	48 89 c7             	mov    %rax,%rdi
    3ee9:	e8 f6 1e 00 00       	call   5de4 <_ZNSt6vectorISt3mapINSt7__cxx1112basic_stringIcSt11char_traitsIcESaIcEEES6_St4lessIS6_ESaISt4pairIKS6_S6_EEESaISD_EED1Ev>
    3eee:	48 89 d8             	mov    %rbx,%rax
    3ef1:	48 8b 55 e8          	mov    -0x18(%rbp),%rdx
    3ef5:	64 48 2b 14 25 28 00 	sub    %fs:0x28,%rdx
    3efc:	00 00 
    3efe:	74 05                	je     3f05 <_Z19parsearJSONdePythonRKNSt7__cxx1112basic_stringIcSt11char_traitsIcESaIcEEE+0x37f>
    3f00:	e8 7b f8 ff ff       	call   3780 <_init+0x780>
    3f05:	48 89 c7             	mov    %rax,%rdi
    3f08:	e8 03 fa ff ff       	call   3910 <_init+0x910>
    3f0d:	48 8b 45 e8          	mov    -0x18(%rbp),%rax
    3f11:	64 48 2b 04 25 28 00 	sub    %fs:0x28,%rax
    3f18:	00 00 
    3f1a:	74 05                	je     3f21 <_Z19parsearJSONdePythonRKNSt7__cxx1112basic_stringIcSt11char_traitsIcESaIcEEE+0x39b>
    3f1c:	e8 5f f8 ff ff       	call   3780 <_init+0x780>
    3f21:	48 8b 85 08 ff ff ff 	mov    -0xf8(%rbp),%rax
    3f28:	48 8b 5d f8          	mov    -0x8(%rbp),%rbx
    3f2c:	c9                   	leave  
    3f2d:	c3                   	ret    

0000000000003f2e <_ZZ19generarProductoJSONRKSt3mapINSt7__cxx1112basic_stringIcSt11char_traitsIcESaIcEEES5_St4lessIS5_ESaISt4pairIKS5_S5_EEEENKUlRKSt6vectorIS5_SaIS5_EEE_clESJ_>:
    3f2e:	55                   	push   %rbp
    3f2f:	48 89 e5             	mov    %rsp,%rbp
    3f32:	53                   	push   %rbx
    3f33:	48 83 ec 68          	sub    $0x68,%rsp
    3f37:	48 89 7d a8          	mov    %rdi,-0x58(%rbp)
    3f3b:	48 89 75 a0          	mov    %rsi,-0x60(%rbp)
    3f3f:	48 89 55 98          	mov    %rdx,-0x68(%rbp)
    3f43:	64 48 8b 04 25 28 00 	mov    %fs:0x28,%rax
    3f4a:	00 00 
    3f4c:	48 89 45 e8          	mov    %rax,-0x18(%rbp)
    3f50:	31 c0                	xor    %eax,%eax
    3f52:	48 8b 45 98          	mov    -0x68(%rbp),%rax
    3f56:	48 89 45 d0          	mov    %rax,-0x30(%rbp)
    3f5a:	48 8b 45 d0          	mov    -0x30(%rbp),%rax
    3f5e:	48 89 c7             	mov    %rax,%rdi
    3f61:	e8 e6 21 00 00       	call   614c <_ZNKSt6vectorINSt7__cxx1112basic_stringIcSt11char_traitsIcESaIcEEESaIS5_EE5beginEv>
    3f66:	48 89 45 b0          	mov    %rax,-0x50(%rbp)
    3f6a:	48 8b 45 d0          	mov    -0x30(%rbp),%rax
    3f6e:	48 89 c7             	mov    %rax,%rdi
    3f71:	e8 22 22 00 00       	call   6198 <_ZNKSt6vectorINSt7__cxx1112basic_stringIcSt11char_traitsIcESaIcEEESaIS5_EE3endEv>
    3f76:	48 89 45 b8          	mov    %rax,-0x48(%rbp)
    3f7a:	e9 84 00 00 00       	jmp    4003 <_ZZ19generarProductoJSONRKSt3mapINSt7__cxx1112basic_stringIcSt11char_traitsIcESaIcEEES5_St4lessIS5_ESaISt4pairIKS5_S5_EEEENKUlRKSt6vectorIS5_SaIS5_EEE_clESJ_+0xd5>
    3f7f:	48 8d 45 b0          	lea    -0x50(%rbp),%rax
    3f83:	48 89 c7             	mov    %rax,%rdi
    3f86:	e8 c1 22 00 00       	call   624c <_ZNK9__gnu_cxx17__normal_iteratorIPKNSt7__cxx1112basic_stringIcSt11char_traitsIcESaIcEEESt6vectorIS6_SaIS6_EEEdeEv>
    3f8b:	48 89 45 d8          	mov    %rax,-0x28(%rbp)
    3f8f:	48 8b 45 a0          	mov    -0x60(%rbp),%rax
    3f93:	48 8b 00             	mov    (%rax),%rax
    3f96:	48 8b 55 d8          	mov    -0x28(%rbp),%rdx
    3f9a:	48 89 d6             	mov    %rdx,%rsi
    3f9d:	48 89 c7             	mov    %rax,%rdi
    3fa0:	e8 bd 22 00 00       	call   6262 <_ZNKSt3mapINSt7__cxx1112basic_stringIcSt11char_traitsIcESaIcEEES5_St4lessIS5_ESaISt4pairIKS5_S5_EEE4findERS9_>
    3fa5:	48 89 45 c0          	mov    %rax,-0x40(%rbp)
    3fa9:	48 8b 45 a0          	mov    -0x60(%rbp),%rax
    3fad:	48 8b 00             	mov    (%rax),%rax
    3fb0:	48 89 c7             	mov    %rax,%rdi
    3fb3:	e8 d4 22 00 00       	call   628c <_ZNKSt3mapINSt7__cxx1112basic_stringIcSt11char_traitsIcESaIcEEES5_St4lessIS5_ESaISt4pairIKS5_S5_EEE3endEv>
    3fb8:	48 89 45 c8          	mov    %rax,-0x38(%rbp)
    3fbc:	48 8d 55 c8          	lea    -0x38(%rbp),%rdx
    3fc0:	48 8d 45 c0          	lea    -0x40(%rbp),%rax
    3fc4:	48 89 d6             	mov    %rdx,%rsi
    3fc7:	48 89 c7             	mov    %rax,%rdi
    3fca:	e8 db 22 00 00       	call   62aa <_ZStneRKSt23_Rb_tree_const_iteratorISt4pairIKNSt7__cxx1112basic_stringIcSt11char_traitsIcESaIcEEES6_EESB_>
    3fcf:	84 c0                	test   %al,%al
    3fd1:	74 24                	je     3ff7 <_ZZ19generarProductoJSONRKSt3mapINSt7__cxx1112basic_stringIcSt11char_traitsIcESaIcEEES5_St4lessIS5_ESaISt4pairIKS5_S5_EEEENKUlRKSt6vectorIS5_SaIS5_EEE_clESJ_+0xc9>
    3fd3:	48 8d 45 c0          	lea    -0x40(%rbp),%rax
    3fd7:	48 89 c7             	mov    %rax,%rdi
    3fda:	e8 f1 22 00 00       	call   62d0 <_ZNKSt23_Rb_tree_const_iteratorISt4pairIKNSt7__cxx1112basic_stringIcSt11char_traitsIcESaIcEEES6_EEptEv>
    3fdf:	48 8d 50 20          	lea    0x20(%rax),%rdx
    3fe3:	48 8b 45 a8          	mov    -0x58(%rbp),%rax
    3fe7:	48 89 d6             	mov    %rdx,%rsi
    3fea:	48 89 c7             	mov    %rax,%rdi
    3fed:	e8 83 fa ff ff       	call   3a75 <_Z15escaparComillasRKNSt7__cxx1112basic_stringIcSt11char_traitsIcESaIcEEE>
    3ff2:	e9 8c 00 00 00       	jmp    4083 <_ZZ19generarProductoJSONRKSt3mapINSt7__cxx1112basic_stringIcSt11char_traitsIcESaIcEEES5_St4lessIS5_ESaISt4pairIKS5_S5_EEEENKUlRKSt6vectorIS5_SaIS5_EEE_clESJ_+0x155>
    3ff7:	48 8d 45 b0          	lea    -0x50(%rbp),%rax
    3ffb:	48 89 c7             	mov    %rax,%rdi
    3ffe:	e8 25 22 00 00       	call   6228 <_ZN9__gnu_cxx17__normal_iteratorIPKNSt7__cxx1112basic_stringIcSt11char_traitsIcESaIcEEESt6vectorIS6_SaIS6_EEEppEv>
    4003:	48 8d 55 b8          	lea    -0x48(%rbp),%rdx
    4007:	48 8d 45 b0          	lea    -0x50(%rbp),%rax
    400b:	48 89 d6             	mov    %rdx,%rsi
    400e:	48 89 c7             	mov    %rax,%rdi
    4011:	e8 d2 21 00 00       	call   61e8 <_ZN9__gnu_cxxneIPKNSt7__cxx1112basic_stringIcSt11char_traitsIcESaIcEEESt6vectorIS6_SaIS6_EEEEbRKNS_17__normal_iteratorIT_T0_EESH_>
    4016:	84 c0                	test   %al,%al
    4018:	0f 85 61 ff ff ff    	jne    3f7f <_ZZ19generarProductoJSONRKSt3mapINSt7__cxx1112basic_stringIcSt11char_traitsIcESaIcEEES5_St4lessIS5_ESaISt4pairIKS5_S5_EEEENKUlRKSt6vectorIS5_SaIS5_EEE_clESJ_+0x51>
    401e:	48 8d 45 c8          	lea    -0x38(%rbp),%rax
    4022:	48 89 45 e0          	mov    %rax,-0x20(%rbp)
    4026:	90                   	nop
    4027:	90                   	nop
    4028:	48 8d 55 c8          	lea    -0x38(%rbp),%rdx
    402c:	48 8b 45 a8          	mov    -0x58(%rbp),%rax
    4030:	48 8d 0d d8 7f 00 00 	lea    0x7fd8(%rip),%rcx        # c00f <_ZSt19piecewise_construct+0xb>
    4037:	48 89 ce             	mov    %rcx,%rsi
    403a:	48 89 c7             	mov    %rax,%rdi
    403d:	e8 b0 22 00 00       	call   62f2 <_ZNSt7__cxx1112basic_stringIcSt11char_traitsIcESaIcEEC1IS3_EEPKcRKS3_>
    4042:	48 8d 45 c8          	lea    -0x38(%rbp),%rax
    4046:	48 89 c7             	mov    %rax,%rdi
    4049:	e8 8a 2c 00 00       	call   6cd8 <_ZNSt15__new_allocatorIcED1Ev>
    404e:	eb 33                	jmp    4083 <_ZZ19generarProductoJSONRKSt3mapINSt7__cxx1112basic_stringIcSt11char_traitsIcESaIcEEES5_St4lessIS5_ESaISt4pairIKS5_S5_EEEENKUlRKSt6vectorIS5_SaIS5_EEE_clESJ_+0x155>
    4050:	f3 0f 1e fa          	endbr64 
    4054:	48 89 c3             	mov    %rax,%rbx
    4057:	48 8d 45 c8          	lea    -0x38(%rbp),%rax
    405b:	48 89 c7             	mov    %rax,%rdi
    405e:	e8 75 2c 00 00       	call   6cd8 <_ZNSt15__new_allocatorIcED1Ev>
    4063:	90                   	nop
    4064:	48 89 d8             	mov    %rbx,%rax
    4067:	48 8b 55 e8          	mov    -0x18(%rbp),%rdx
    406b:	64 48 2b 14 25 28 00 	sub    %fs:0x28,%rdx
    4072:	00 00 
    4074:	74 05                	je     407b <_ZZ19generarProductoJSONRKSt3mapINSt7__cxx1112basic_stringIcSt11char_traitsIcESaIcEEES5_St4lessIS5_ESaISt4pairIKS5_S5_EEEENKUlRKSt6vectorIS5_SaIS5_EEE_clESJ_+0x14d>
    4076:	e8 05 f7 ff ff       	call   3780 <_init+0x780>
    407b:	48 89 c7             	mov    %rax,%rdi
    407e:	e8 8d f8 ff ff       	call   3910 <_init+0x910>
    4083:	48 8b 45 e8          	mov    -0x18(%rbp),%rax
    4087:	64 48 2b 04 25 28 00 	sub    %fs:0x28,%rax
    408e:	00 00 
    4090:	74 05                	je     4097 <_ZZ19generarProductoJSONRKSt3mapINSt7__cxx1112basic_stringIcSt11char_traitsIcESaIcEEES5_St4lessIS5_ESaISt4pairIKS5_S5_EEEENKUlRKSt6vectorIS5_SaIS5_EEE_clESJ_+0x169>
    4092:	e8 e9 f6 ff ff       	call   3780 <_init+0x780>
    4097:	48 8b 45 a8          	mov    -0x58(%rbp),%rax
    409b:	48 8b 5d f8          	mov    -0x8(%rbp),%rbx
    409f:	c9                   	leave  
    40a0:	c3                   	ret    

00000000000040a1 <_Z19generarProductoJSONRKSt3mapINSt7__cxx1112basic_stringIcSt11char_traitsIcESaIcEEES5_St4lessIS5_ESaISt4pairIKS5_S5_EEE>:
    40a1:	f3 0f 1e fa          	endbr64 
    40a5:	55                   	push   %rbp
    40a6:	48 89 e5             	mov    %rsp,%rbp
    40a9:	53                   	push   %rbx
    40aa:	48 81 ec 18 02 00 00 	sub    $0x218,%rsp
    40b1:	48 89 bd e8 fd ff ff 	mov    %rdi,-0x218(%rbp)
    40b8:	48 89 b5 e0 fd ff ff 	mov    %rsi,-0x220(%rbp)
    40bf:	64 48 8b 04 25 28 00 	mov    %fs:0x28,%rax
    40c6:	00 00 
    40c8:	48 89 45 e8          	mov    %rax,-0x18(%rbp)
    40cc:	31 c0                	xor    %eax,%eax
    40ce:	48 8b 85 e0 fd ff ff 	mov    -0x220(%rbp),%rax
    40d5:	48 89 85 f8 fd ff ff 	mov    %rax,-0x208(%rbp)
    40dc:	48 8d 85 70 fe ff ff 	lea    -0x190(%rbp),%rax
    40e3:	48 89 c7             	mov    %rax,%rdi
    40e6:	e8 05 f7 ff ff       	call   37f0 <_init+0x7f0>
    40eb:	48 8d 85 70 fe ff ff 	lea    -0x190(%rbp),%rax
    40f2:	48 8d 15 1a 7f 00 00 	lea    0x7f1a(%rip),%rdx        # c013 <_ZSt19piecewise_construct+0xf>
    40f9:	48 89 d6             	mov    %rdx,%rsi
    40fc:	48 89 c7             	mov    %rax,%rdi
    40ff:	e8 cc f5 ff ff       	call   36d0 <_init+0x6d0>
    4104:	48 8d 85 70 fe ff ff 	lea    -0x190(%rbp),%rax
    410b:	48 8d 15 06 7f 00 00 	lea    0x7f06(%rip),%rdx        # c018 <_ZSt19piecewise_construct+0x14>
    4112:	48 89 d6             	mov    %rdx,%rsi
    4115:	48 89 c7             	mov    %rax,%rdi
    4118:	e8 b3 f5 ff ff       	call   36d0 <_init+0x6d0>
    411d:	48 89 c3             	mov    %rax,%rbx
    4120:	48 8d 05 01 7f 00 00 	lea    0x7f01(%rip),%rax        # c028 <_ZSt19piecewise_construct+0x24>
    4127:	48 89 85 40 fe ff ff 	mov    %rax,-0x1c0(%rbp)
    412e:	48 8d 05 fa 7e 00 00 	lea    0x7efa(%rip),%rax        # c02f <_ZSt19piecewise_construct+0x2b>
    4135:	48 89 85 48 fe ff ff 	mov    %rax,-0x1b8(%rbp)
    413c:	48 8d 85 40 fe ff ff 	lea    -0x1c0(%rbp),%rax
    4143:	48 83 c0 10          	add    $0x10,%rax
    4147:	48 8d 95 f7 fd ff ff 	lea    -0x209(%rbp),%rdx
    414e:	48 89 95 00 fe ff ff 	mov    %rdx,-0x200(%rbp)
    4155:	90                   	nop
    4156:	90                   	nop
    4157:	48 8d 95 f7 fd ff ff 	lea    -0x209(%rbp),%rdx
    415e:	48 8d b5 40 fe ff ff 	lea    -0x1c0(%rbp),%rsi
    4165:	48 8d bd 20 fe ff ff 	lea    -0x1e0(%rbp),%rdi
    416c:	48 89 d1             	mov    %rdx,%rcx
    416f:	48 89 c2             	mov    %rax,%rdx
    4172:	e8 23 22 00 00       	call   639a <_ZNSt6vectorINSt7__cxx1112basic_stringIcSt11char_traitsIcESaIcEEESaIS5_EEC1IPKPKcvEET_SD_RKS6_>
    4177:	48 8d 85 50 fe ff ff 	lea    -0x1b0(%rbp),%rax
    417e:	48 8d 95 20 fe ff ff 	lea    -0x1e0(%rbp),%rdx
    4185:	48 8d 8d f8 fd ff ff 	lea    -0x208(%rbp),%rcx
    418c:	48 89 ce             	mov    %rcx,%rsi
    418f:	48 89 c7             	mov    %rax,%rdi
    4192:	e8 97 fd ff ff       	call   3f2e <_ZZ19generarProductoJSONRKSt3mapINSt7__cxx1112basic_stringIcSt11char_traitsIcESaIcEEES5_St4lessIS5_ESaISt4pairIKS5_S5_EEEENKUlRKSt6vectorIS5_SaIS5_EEE_clESJ_>
    4197:	48 8d 85 50 fe ff ff 	lea    -0x1b0(%rbp),%rax
    419e:	48 89 c6             	mov    %rax,%rsi
    41a1:	48 89 df             	mov    %rbx,%rdi
    41a4:	e8 f7 f4 ff ff       	call   36a0 <_init+0x6a0>
    41a9:	48 89 c2             	mov    %rax,%rdx
    41ac:	48 8d 05 82 7e 00 00 	lea    0x7e82(%rip),%rax        # c035 <_ZSt19piecewise_construct+0x31>
    41b3:	48 89 c6             	mov    %rax,%rsi
    41b6:	48 89 d7             	mov    %rdx,%rdi
    41b9:	e8 12 f5 ff ff       	call   36d0 <_init+0x6d0>
    41be:	48 8d 85 50 fe ff ff 	lea    -0x1b0(%rbp),%rax
    41c5:	48 89 c7             	mov    %rax,%rdi
    41c8:	e8 23 f4 ff ff       	call   35f0 <_init+0x5f0>
    41cd:	48 8d 85 20 fe ff ff 	lea    -0x1e0(%rbp),%rax
    41d4:	48 89 c7             	mov    %rax,%rdi
    41d7:	e8 64 22 00 00       	call   6440 <_ZNSt6vectorINSt7__cxx1112basic_stringIcSt11char_traitsIcESaIcEEESaIS5_EED1Ev>
    41dc:	48 8d 85 f7 fd ff ff 	lea    -0x209(%rbp),%rax
    41e3:	48 89 c7             	mov    %rax,%rdi
    41e6:	e8 31 36 00 00       	call   781c <_ZNSt15__new_allocatorINSt7__cxx1112basic_stringIcSt11char_traitsIcESaIcEEEED1Ev>
    41eb:	90                   	nop
    41ec:	48 8d 85 70 fe ff ff 	lea    -0x190(%rbp),%rax
    41f3:	48 8d 15 3f 7e 00 00 	lea    0x7e3f(%rip),%rdx        # c039 <_ZSt19piecewise_construct+0x35>
    41fa:	48 89 d6             	mov    %rdx,%rsi
    41fd:	48 89 c7             	mov    %rax,%rdi
    4200:	e8 cb f4 ff ff       	call   36d0 <_init+0x6d0>
    4205:	48 89 c3             	mov    %rax,%rbx
    4208:	48 8d 05 3a 7e 00 00 	lea    0x7e3a(%rip),%rax        # c049 <_ZSt19piecewise_construct+0x45>
    420f:	48 89 85 40 fe ff ff 	mov    %rax,-0x1c0(%rbp)
    4216:	48 8d 05 33 7e 00 00 	lea    0x7e33(%rip),%rax        # c050 <_ZSt19piecewise_construct+0x4c>
    421d:	48 89 85 48 fe ff ff 	mov    %rax,-0x1b8(%rbp)
    4224:	48 8d 85 40 fe ff ff 	lea    -0x1c0(%rbp),%rax
    422b:	48 83 c0 10          	add    $0x10,%rax
    422f:	48 8d 95 f7 fd ff ff 	lea    -0x209(%rbp),%rdx
    4236:	48 89 95 08 fe ff ff 	mov    %rdx,-0x1f8(%rbp)
    423d:	90                   	nop
    423e:	90                   	nop
    423f:	48 8d 95 f7 fd ff ff 	lea    -0x209(%rbp),%rdx
    4246:	48 8d b5 40 fe ff ff 	lea    -0x1c0(%rbp),%rsi
    424d:	48 8d bd 20 fe ff ff 	lea    -0x1e0(%rbp),%rdi
    4254:	48 89 d1             	mov    %rdx,%rcx
    4257:	48 89 c2             	mov    %rax,%rdx
    425a:	e8 3b 21 00 00       	call   639a <_ZNSt6vectorINSt7__cxx1112basic_stringIcSt11char_traitsIcESaIcEEESaIS5_EEC1IPKPKcvEET_SD_RKS6_>
    425f:	48 8d 85 50 fe ff ff 	lea    -0x1b0(%rbp),%rax
    4266:	48 8d 95 20 fe ff ff 	lea    -0x1e0(%rbp),%rdx
    426d:	48 8d 8d f8 fd ff ff 	lea    -0x208(%rbp),%rcx
    4274:	48 89 ce             	mov    %rcx,%rsi
    4277:	48 89 c7             	mov    %rax,%rdi
    427a:	e8 af fc ff ff       	call   3f2e <_ZZ19generarProductoJSONRKSt3mapINSt7__cxx1112basic_stringIcSt11char_traitsIcESaIcEEES5_St4lessIS5_ESaISt4pairIKS5_S5_EEEENKUlRKSt6vectorIS5_SaIS5_EEE_clESJ_>
    427f:	48 8d 85 50 fe ff ff 	lea    -0x1b0(%rbp),%rax
    4286:	48 89 c6             	mov    %rax,%rsi
    4289:	48 89 df             	mov    %rbx,%rdi
    428c:	e8 0f f4 ff ff       	call   36a0 <_init+0x6a0>
    4291:	48 89 c2             	mov    %rax,%rdx
    4294:	48 8d 05 9a 7d 00 00 	lea    0x7d9a(%rip),%rax        # c035 <_ZSt19piecewise_construct+0x31>
    429b:	48 89 c6             	mov    %rax,%rsi
    429e:	48 89 d7             	mov    %rdx,%rdi
    42a1:	e8 2a f4 ff ff       	call   36d0 <_init+0x6d0>
    42a6:	48 8d 85 50 fe ff ff 	lea    -0x1b0(%rbp),%rax
    42ad:	48 89 c7             	mov    %rax,%rdi
    42b0:	e8 3b f3 ff ff       	call   35f0 <_init+0x5f0>
    42b5:	48 8d 85 20 fe ff ff 	lea    -0x1e0(%rbp),%rax
    42bc:	48 89 c7             	mov    %rax,%rdi
    42bf:	e8 7c 21 00 00       	call   6440 <_ZNSt6vectorINSt7__cxx1112basic_stringIcSt11char_traitsIcESaIcEEESaIS5_EED1Ev>
    42c4:	48 8d 85 f7 fd ff ff 	lea    -0x209(%rbp),%rax
    42cb:	48 89 c7             	mov    %rax,%rdi
    42ce:	e8 49 35 00 00       	call   781c <_ZNSt15__new_allocatorINSt7__cxx1112basic_stringIcSt11char_traitsIcESaIcEEEED1Ev>
    42d3:	90                   	nop
    42d4:	48 8d 85 70 fe ff ff 	lea    -0x190(%rbp),%rax
    42db:	48 8d 15 74 7d 00 00 	lea    0x7d74(%rip),%rdx        # c056 <_ZSt19piecewise_construct+0x52>
    42e2:	48 89 d6             	mov    %rdx,%rsi
    42e5:	48 89 c7             	mov    %rax,%rdi
    42e8:	e8 e3 f3 ff ff       	call   36d0 <_init+0x6d0>
    42ed:	48 89 c3             	mov    %rax,%rbx
    42f0:	48 8d 05 6f 7d 00 00 	lea    0x7d6f(%rip),%rax        # c066 <_ZSt19piecewise_construct+0x62>
    42f7:	48 89 85 40 fe ff ff 	mov    %rax,-0x1c0(%rbp)
    42fe:	48 8d 05 68 7d 00 00 	lea    0x7d68(%rip),%rax        # c06d <_ZSt19piecewise_construct+0x69>
    4305:	48 89 85 48 fe ff ff 	mov    %rax,-0x1b8(%rbp)
    430c:	48 8d 85 40 fe ff ff 	lea    -0x1c0(%rbp),%rax
    4313:	48 83 c0 10          	add    $0x10,%rax
    4317:	48 8d 95 f7 fd ff ff 	lea    -0x209(%rbp),%rdx
    431e:	48 89 95 10 fe ff ff 	mov    %rdx,-0x1f0(%rbp)
    4325:	90                   	nop
    4326:	90                   	nop
    4327:	48 8d 95 f7 fd ff ff 	lea    -0x209(%rbp),%rdx
    432e:	48 8d b5 40 fe ff ff 	lea    -0x1c0(%rbp),%rsi
    4335:	48 8d bd 20 fe ff ff 	lea    -0x1e0(%rbp),%rdi
    433c:	48 89 d1             	mov    %rdx,%rcx
    433f:	48 89 c2             	mov    %rax,%rdx
    4342:	e8 53 20 00 00       	call   639a <_ZNSt6vectorINSt7__cxx1112basic_stringIcSt11char_traitsIcESaIcEEESaIS5_EEC1IPKPKcvEET_SD_RKS6_>
    4347:	48 8d 85 50 fe ff ff 	lea    -0x1b0(%rbp),%rax
    434e:	48 8d 95 20 fe ff ff 	lea    -0x1e0(%rbp),%rdx
    4355:	48 8d 8d f8 fd ff ff 	lea    -0x208(%rbp),%rcx
    435c:	48 89 ce             	mov    %rcx,%rsi
    435f:	48 89 c7             	mov    %rax,%rdi
    4362:	e8 c7 fb ff ff       	call   3f2e <_ZZ19generarProductoJSONRKSt3mapINSt7__cxx1112basic_stringIcSt11char_traitsIcESaIcEEES5_St4lessIS5_ESaISt4pairIKS5_S5_EEEENKUlRKSt6vectorIS5_SaIS5_EEE_clESJ_>
    4367:	48 8d 85 50 fe ff ff 	lea    -0x1b0(%rbp),%rax
    436e:	48 89 c6             	mov    %rax,%rsi
    4371:	48 89 df             	mov    %rbx,%rdi
    4374:	e8 27 f3 ff ff       	call   36a0 <_init+0x6a0>
    4379:	48 89 c2             	mov    %rax,%rdx
    437c:	48 8d 05 b2 7c 00 00 	lea    0x7cb2(%rip),%rax        # c035 <_ZSt19piecewise_construct+0x31>
    4383:	48 89 c6             	mov    %rax,%rsi
    4386:	48 89 d7             	mov    %rdx,%rdi
    4389:	e8 42 f3 ff ff       	call   36d0 <_init+0x6d0>
    438e:	48 8d 85 50 fe ff ff 	lea    -0x1b0(%rbp),%rax
    4395:	48 89 c7             	mov    %rax,%rdi
    4398:	e8 53 f2 ff ff       	call   35f0 <_init+0x5f0>
    439d:	48 8d 85 20 fe ff ff 	lea    -0x1e0(%rbp),%rax
    43a4:	48 89 c7             	mov    %rax,%rdi
    43a7:	e8 94 20 00 00       	call   6440 <_ZNSt6vectorINSt7__cxx1112basic_stringIcSt11char_traitsIcESaIcEEESaIS5_EED1Ev>
    43ac:	48 8d 85 f7 fd ff ff 	lea    -0x209(%rbp),%rax
    43b3:	48 89 c7             	mov    %rax,%rdi
    43b6:	e8 61 34 00 00       	call   781c <_ZNSt15__new_allocatorINSt7__cxx1112basic_stringIcSt11char_traitsIcESaIcEEEED1Ev>
    43bb:	90                   	nop
    43bc:	48 8d 85 70 fe ff ff 	lea    -0x190(%rbp),%rax
    43c3:	48 8d 15 ad 7c 00 00 	lea    0x7cad(%rip),%rdx        # c077 <_ZSt19piecewise_construct+0x73>
    43ca:	48 89 d6             	mov    %rdx,%rsi
    43cd:	48 89 c7             	mov    %rax,%rdi
    43d0:	e8 fb f2 ff ff       	call   36d0 <_init+0x6d0>
    43d5:	48 89 c3             	mov    %rax,%rbx
    43d8:	48 8d 05 a5 7c 00 00 	lea    0x7ca5(%rip),%rax        # c084 <_ZSt19piecewise_construct+0x80>
    43df:	48 89 85 40 fe ff ff 	mov    %rax,-0x1c0(%rbp)
    43e6:	48 8d 05 9b 7c 00 00 	lea    0x7c9b(%rip),%rax        # c088 <_ZSt19piecewise_construct+0x84>
    43ed:	48 89 85 48 fe ff ff 	mov    %rax,-0x1b8(%rbp)
    43f4:	48 8d 85 40 fe ff ff 	lea    -0x1c0(%rbp),%rax
    43fb:	48 83 c0 10          	add    $0x10,%rax
    43ff:	48 8d 95 f7 fd ff ff 	lea    -0x209(%rbp),%rdx
    4406:	48 89 95 18 fe ff ff 	mov    %rdx,-0x1e8(%rbp)
    440d:	90                   	nop
    440e:	90                   	nop
    440f:	48 8d 95 f7 fd ff ff 	lea    -0x209(%rbp),%rdx
    4416:	48 8d b5 40 fe ff ff 	lea    -0x1c0(%rbp),%rsi
    441d:	48 8d bd 20 fe ff ff 	lea    -0x1e0(%rbp),%rdi
    4424:	48 89 d1             	mov    %rdx,%rcx
    4427:	48 89 c2             	mov    %rax,%rdx
    442a:	e8 6b 1f 00 00       	call   639a <_ZNSt6vectorINSt7__cxx1112basic_stringIcSt11char_traitsIcESaIcEEESaIS5_EEC1IPKPKcvEET_SD_RKS6_>
    442f:	48 8d 85 50 fe ff ff 	lea    -0x1b0(%rbp),%rax
    4436:	48 8d 95 20 fe ff ff 	lea    -0x1e0(%rbp),%rdx
    443d:	48 8d 8d f8 fd ff ff 	lea    -0x208(%rbp),%rcx
    4444:	48 89 ce             	mov    %rcx,%rsi
    4447:	48 89 c7             	mov    %rax,%rdi
    444a:	e8 df fa ff ff       	call   3f2e <_ZZ19generarProductoJSONRKSt3mapINSt7__cxx1112basic_stringIcSt11char_traitsIcESaIcEEES5_St4lessIS5_ESaISt4pairIKS5_S5_EEEENKUlRKSt6vectorIS5_SaIS5_EEE_clESJ_>
    444f:	48 8d 85 50 fe ff ff 	lea    -0x1b0(%rbp),%rax
    4456:	48 89 c6             	mov    %rax,%rsi
    4459:	48 89 df             	mov    %rbx,%rdi
    445c:	e8 3f f2 ff ff       	call   36a0 <_init+0x6a0>
    4461:	48 89 c2             	mov    %rax,%rdx
    4464:	48 8d 05 29 7c 00 00 	lea    0x7c29(%rip),%rax        # c094 <_ZSt19piecewise_construct+0x90>
    446b:	48 89 c6             	mov    %rax,%rsi
    446e:	48 89 d7             	mov    %rdx,%rdi
    4471:	e8 5a f2 ff ff       	call   36d0 <_init+0x6d0>
    4476:	48 8d 85 50 fe ff ff 	lea    -0x1b0(%rbp),%rax
    447d:	48 89 c7             	mov    %rax,%rdi
    4480:	e8 6b f1 ff ff       	call   35f0 <_init+0x5f0>
    4485:	48 8d 85 20 fe ff ff 	lea    -0x1e0(%rbp),%rax
    448c:	48 89 c7             	mov    %rax,%rdi
    448f:	e8 ac 1f 00 00       	call   6440 <_ZNSt6vectorINSt7__cxx1112basic_stringIcSt11char_traitsIcESaIcEEESaIS5_EED1Ev>
    4494:	48 8d 85 f7 fd ff ff 	lea    -0x209(%rbp),%rax
    449b:	48 89 c7             	mov    %rax,%rdi
    449e:	e8 79 33 00 00       	call   781c <_ZNSt15__new_allocatorINSt7__cxx1112basic_stringIcSt11char_traitsIcESaIcEEEED1Ev>
    44a3:	90                   	nop
    44a4:	48 8d 85 70 fe ff ff 	lea    -0x190(%rbp),%rax
    44ab:	48 8d 15 e5 7b 00 00 	lea    0x7be5(%rip),%rdx        # c097 <_ZSt19piecewise_construct+0x93>
    44b2:	48 89 d6             	mov    %rdx,%rsi
    44b5:	48 89 c7             	mov    %rax,%rdi
    44b8:	e8 13 f2 ff ff       	call   36d0 <_init+0x6d0>
    44bd:	48 8b 85 e8 fd ff ff 	mov    -0x218(%rbp),%rax
    44c4:	48 8d 95 70 fe ff ff 	lea    -0x190(%rbp),%rdx
    44cb:	48 89 d6             	mov    %rdx,%rsi
    44ce:	48 89 c7             	mov    %rax,%rdi
    44d1:	e8 2a f2 ff ff       	call   3700 <_init+0x700>
    44d6:	90                   	nop
    44d7:	48 8d 85 70 fe ff ff 	lea    -0x190(%rbp),%rax
    44de:	48 89 c7             	mov    %rax,%rdi
    44e1:	e8 4a f0 ff ff       	call   3530 <_init+0x530>
    44e6:	90                   	nop
    44e7:	48 8b 45 e8          	mov    -0x18(%rbp),%rax
    44eb:	64 48 2b 04 25 28 00 	sub    %fs:0x28,%rax
    44f2:	00 00 
    44f4:	0f 84 69 01 00 00    	je     4663 <_Z19generarProductoJSONRKSt3mapINSt7__cxx1112basic_stringIcSt11char_traitsIcESaIcEEES5_St4lessIS5_ESaISt4pairIKS5_S5_EEE+0x5c2>
    44fa:	e9 5f 01 00 00       	jmp    465e <_Z19generarProductoJSONRKSt3mapINSt7__cxx1112basic_stringIcSt11char_traitsIcESaIcEEES5_St4lessIS5_ESaISt4pairIKS5_S5_EEE+0x5bd>
    44ff:	f3 0f 1e fa          	endbr64 
    4503:	48 89 c3             	mov    %rax,%rbx
    4506:	48 8d 85 50 fe ff ff 	lea    -0x1b0(%rbp),%rax
    450d:	48 89 c7             	mov    %rax,%rdi
    4510:	e8 db f0 ff ff       	call   35f0 <_init+0x5f0>
    4515:	eb 07                	jmp    451e <_Z19generarProductoJSONRKSt3mapINSt7__cxx1112basic_stringIcSt11char_traitsIcESaIcEEES5_St4lessIS5_ESaISt4pairIKS5_S5_EEE+0x47d>
    4517:	f3 0f 1e fa          	endbr64 
    451b:	48 89 c3             	mov    %rax,%rbx
    451e:	48 8d 85 20 fe ff ff 	lea    -0x1e0(%rbp),%rax
    4525:	48 89 c7             	mov    %rax,%rdi
    4528:	e8 13 1f 00 00       	call   6440 <_ZNSt6vectorINSt7__cxx1112basic_stringIcSt11char_traitsIcESaIcEEESaIS5_EED1Ev>
    452d:	eb 07                	jmp    4536 <_Z19generarProductoJSONRKSt3mapINSt7__cxx1112basic_stringIcSt11char_traitsIcESaIcEEES5_St4lessIS5_ESaISt4pairIKS5_S5_EEE+0x495>
    452f:	f3 0f 1e fa          	endbr64 
    4533:	48 89 c3             	mov    %rax,%rbx
    4536:	48 8d 85 f7 fd ff ff 	lea    -0x209(%rbp),%rax
    453d:	48 89 c7             	mov    %rax,%rdi
    4540:	e8 d7 32 00 00       	call   781c <_ZNSt15__new_allocatorINSt7__cxx1112basic_stringIcSt11char_traitsIcESaIcEEEED1Ev>
    4545:	90                   	nop
    4546:	e9 e5 00 00 00       	jmp    4630 <_Z19generarProductoJSONRKSt3mapINSt7__cxx1112basic_stringIcSt11char_traitsIcESaIcEEES5_St4lessIS5_ESaISt4pairIKS5_S5_EEE+0x58f>
    454b:	f3 0f 1e fa          	endbr64 
    454f:	48 89 c3             	mov    %rax,%rbx
    4552:	48 8d 85 50 fe ff ff 	lea    -0x1b0(%rbp),%rax
    4559:	48 89 c7             	mov    %rax,%rdi
    455c:	e8 8f f0 ff ff       	call   35f0 <_init+0x5f0>
    4561:	eb 07                	jmp    456a <_Z19generarProductoJSONRKSt3mapINSt7__cxx1112basic_stringIcSt11char_traitsIcESaIcEEES5_St4lessIS5_ESaISt4pairIKS5_S5_EEE+0x4c9>
    4563:	f3 0f 1e fa          	endbr64 
    4567:	48 89 c3             	mov    %rax,%rbx
    456a:	48 8d 85 20 fe ff ff 	lea    -0x1e0(%rbp),%rax
    4571:	48 89 c7             	mov    %rax,%rdi
    4574:	e8 c7 1e 00 00       	call   6440 <_ZNSt6vectorINSt7__cxx1112basic_stringIcSt11char_traitsIcESaIcEEESaIS5_EED1Ev>
    4579:	eb 07                	jmp    4582 <_Z19generarProductoJSONRKSt3mapINSt7__cxx1112basic_stringIcSt11char_traitsIcESaIcEEES5_St4lessIS5_ESaISt4pairIKS5_S5_EEE+0x4e1>
    457b:	f3 0f 1e fa          	endbr64 
    457f:	48 89 c3             	mov    %rax,%rbx
    4582:	48 8d 85 f7 fd ff ff 	lea    -0x209(%rbp),%rax
    4589:	48 89 c7             	mov    %rax,%rdi
    458c:	e8 8b 32 00 00       	call   781c <_ZNSt15__new_allocatorINSt7__cxx1112basic_stringIcSt11char_traitsIcESaIcEEEED1Ev>
    4591:	90                   	nop
    4592:	e9 99 00 00 00       	jmp    4630 <_Z19generarProductoJSONRKSt3mapINSt7__cxx1112basic_stringIcSt11char_traitsIcESaIcEEES5_St4lessIS5_ESaISt4pairIKS5_S5_EEE+0x58f>
    4597:	f3 0f 1e fa          	endbr64 
    459b:	48 89 c3             	mov    %rax,%rbx
    459e:	48 8d 85 50 fe ff ff 	lea    -0x1b0(%rbp),%rax
    45a5:	48 89 c7             	mov    %rax,%rdi
    45a8:	e8 43 f0 ff ff       	call   35f0 <_init+0x5f0>
    45ad:	eb 07                	jmp    45b6 <_Z19generarProductoJSONRKSt3mapINSt7__cxx1112basic_stringIcSt11char_traitsIcESaIcEEES5_St4lessIS5_ESaISt4pairIKS5_S5_EEE+0x515>
    45af:	f3 0f 1e fa          	endbr64 
    45b3:	48 89 c3             	mov    %rax,%rbx
    45b6:	48 8d 85 20 fe ff ff 	lea    -0x1e0(%rbp),%rax
    45bd:	48 89 c7             	mov    %rax,%rdi
    45c0:	e8 7b 1e 00 00       	call   6440 <_ZNSt6vectorINSt7__cxx1112basic_stringIcSt11char_traitsIcESaIcEEESaIS5_EED1Ev>
    45c5:	eb 07                	jmp    45ce <_Z19generarProductoJSONRKSt3mapINSt7__cxx1112basic_stringIcSt11char_traitsIcESaIcEEES5_St4lessIS5_ESaISt4pairIKS5_S5_EEE+0x52d>
    45c7:	f3 0f 1e fa          	endbr64 
    45cb:	48 89 c3             	mov    %rax,%rbx
    45ce:	48 8d 85 f7 fd ff ff 	lea    -0x209(%rbp),%rax
    45d5:	48 89 c7             	mov    %rax,%rdi
    45d8:	e8 3f 32 00 00       	call   781c <_ZNSt15__new_allocatorINSt7__cxx1112basic_stringIcSt11char_traitsIcESaIcEEEED1Ev>
    45dd:	90                   	nop
    45de:	eb 50                	jmp    4630 <_Z19generarProductoJSONRKSt3mapINSt7__cxx1112basic_stringIcSt11char_traitsIcESaIcEEES5_St4lessIS5_ESaISt4pairIKS5_S5_EEE+0x58f>
    45e0:	f3 0f 1e fa          	endbr64 
    45e4:	48 89 c3             	mov    %rax,%rbx
    45e7:	48 8d 85 50 fe ff ff 	lea    -0x1b0(%rbp),%rax
    45ee:	48 89 c7             	mov    %rax,%rdi
    45f1:	e8 fa ef ff ff       	call   35f0 <_init+0x5f0>
    45f6:	eb 07                	jmp    45ff <_Z19generarProductoJSONRKSt3mapINSt7__cxx1112basic_stringIcSt11char_traitsIcESaIcEEES5_St4lessIS5_ESaISt4pairIKS5_S5_EEE+0x55e>
    45f8:	f3 0f 1e fa          	endbr64 
    45fc:	48 89 c3             	mov    %rax,%rbx
    45ff:	48 8d 85 20 fe ff ff 	lea    -0x1e0(%rbp),%rax
    4606:	48 89 c7             	mov    %rax,%rdi
    4609:	e8 32 1e 00 00       	call   6440 <_ZNSt6vectorINSt7__cxx1112basic_stringIcSt11char_traitsIcESaIcEEESaIS5_EED1Ev>
    460e:	eb 07                	jmp    4617 <_Z19generarProductoJSONRKSt3mapINSt7__cxx1112basic_stringIcSt11char_traitsIcESaIcEEES5_St4lessIS5_ESaISt4pairIKS5_S5_EEE+0x576>
    4610:	f3 0f 1e fa          	endbr64 
    4614:	48 89 c3             	mov    %rax,%rbx
    4617:	48 8d 85 f7 fd ff ff 	lea    -0x209(%rbp),%rax
    461e:	48 89 c7             	mov    %rax,%rdi
    4621:	e8 f6 31 00 00       	call   781c <_ZNSt15__new_allocatorINSt7__cxx1112basic_stringIcSt11char_traitsIcESaIcEEEED1Ev>
    4626:	90                   	nop
    4627:	eb 07                	jmp    4630 <_Z19generarProductoJSONRKSt3mapINSt7__cxx1112basic_stringIcSt11char_traitsIcESaIcEEES5_St4lessIS5_ESaISt4pairIKS5_S5_EEE+0x58f>
    4629:	f3 0f 1e fa          	endbr64 
    462d:	48 89 c3             	mov    %rax,%rbx
    4630:	48 8d 85 70 fe ff ff 	lea    -0x190(%rbp),%rax
    4637:	48 89 c7             	mov    %rax,%rdi
    463a:	e8 f1 ee ff ff       	call   3530 <_init+0x530>
    463f:	48 89 d8             	mov    %rbx,%rax
    4642:	48 8b 55 e8          	mov    -0x18(%rbp),%rdx
    4646:	64 48 2b 14 25 28 00 	sub    %fs:0x28,%rdx
    464d:	00 00 
    464f:	74 05                	je     4656 <_Z19generarProductoJSONRKSt3mapINSt7__cxx1112basic_stringIcSt11char_traitsIcESaIcEEES5_St4lessIS5_ESaISt4pairIKS5_S5_EEE+0x5b5>
    4651:	e8 2a f1 ff ff       	call   3780 <_init+0x780>
    4656:	48 89 c7             	mov    %rax,%rdi
    4659:	e8 b2 f2 ff ff       	call   3910 <_init+0x910>
    465e:	e8 1d f1 ff ff       	call   3780 <_init+0x780>
    4663:	48 8b 85 e8 fd ff ff 	mov    -0x218(%rbp),%rax
    466a:	48 8b 5d f8          	mov    -0x8(%rbp),%rbx
    466e:	c9                   	leave  
    466f:	c3                   	ret    

0000000000004670 <_Z15ejecutarScraperRKNSt7__cxx1112basic_stringIcSt11char_traitsIcESaIcEEE>:
    4670:	f3 0f 1e fa          	endbr64 
    4674:	55                   	push   %rbp
    4675:	48 89 e5             	mov    %rsp,%rbp
    4678:	53                   	push   %rbx
    4679:	48 81 ec 98 08 00 00 	sub    $0x898,%rsp
    4680:	48 89 bd 68 f7 ff ff 	mov    %rdi,-0x898(%rbp)
    4687:	48 89 b5 60 f7 ff ff 	mov    %rsi,-0x8a0(%rbp)
    468e:	64 48 8b 04 25 28 00 	mov    %fs:0x28,%rax
    4695:	00 00 
    4697:	48 89 45 e8          	mov    %rax,-0x18(%rbp)
    469b:	31 c0                	xor    %eax,%eax
    469d:	48 8d 85 a0 f7 ff ff 	lea    -0x860(%rbp),%rax
    46a4:	48 8b 95 60 f7 ff ff 	mov    -0x8a0(%rbp),%rdx
    46ab:	48 8d 0d e9 79 00 00 	lea    0x79e9(%rip),%rcx        # c09b <_ZSt19piecewise_construct+0x97>
    46b2:	48 89 ce             	mov    %rcx,%rsi
    46b5:	48 89 c7             	mov    %rax,%rdi
    46b8:	e8 dd 1d 00 00       	call   649a <_ZStplIcSt11char_traitsIcESaIcEENSt7__cxx1112basic_stringIT_T0_T1_EEPKS5_RKS8_>
    46bd:	48 8d 85 a0 f7 ff ff 	lea    -0x860(%rbp),%rax
    46c4:	48 89 c7             	mov    %rax,%rdi
    46c7:	e8 c4 ee ff ff       	call   3590 <_init+0x590>
    46cc:	48 89 c2             	mov    %rax,%rdx
    46cf:	48 8d 05 ce 79 00 00 	lea    0x79ce(%rip),%rax        # c0a4 <_ZSt19piecewise_construct+0xa0>
    46d6:	48 89 c6             	mov    %rax,%rsi
    46d9:	48 89 d7             	mov    %rdx,%rdi
    46dc:	e8 6f ee ff ff       	call   3550 <_init+0x550>
    46e1:	48 89 85 78 f7 ff ff 	mov    %rax,-0x888(%rbp)
    46e8:	48 8d 85 80 f7 ff ff 	lea    -0x880(%rbp),%rax
    46ef:	48 89 c7             	mov    %rax,%rdi
    46f2:	e8 cb 13 00 00       	call   5ac2 <_ZNSt6vectorISt3mapINSt7__cxx1112basic_stringIcSt11char_traitsIcESaIcEEES6_St4lessIS6_ESaISt4pairIKS6_S6_EEESaISD_EEC1Ev>
    46f7:	48 83 bd 78 f7 ff ff 	cmpq   $0x0,-0x888(%rbp)
    46fe:	00 
    46ff:	75 5e                	jne    475f <_Z15ejecutarScraperRKNSt7__cxx1112basic_stringIcSt11char_traitsIcESaIcEEE+0xef>
    4701:	48 8d 05 9e 79 00 00 	lea    0x799e(%rip),%rax        # c0a6 <_ZSt19piecewise_construct+0xa2>
    4708:	48 89 c6             	mov    %rax,%rsi
    470b:	48 8d 05 4e ca 00 00 	lea    0xca4e(%rip),%rax        # 11160 <_ZSt4cerr@GLIBCXX_3.4>
    4712:	48 89 c7             	mov    %rax,%rdi
    4715:	e8 b6 ef ff ff       	call   36d0 <_init+0x6d0>
    471a:	48 89 c2             	mov    %rax,%rdx
    471d:	48 8b 85 60 f7 ff ff 	mov    -0x8a0(%rbp),%rax
    4724:	48 89 c6             	mov    %rax,%rsi
    4727:	48 89 d7             	mov    %rdx,%rdi
    472a:	e8 71 ef ff ff       	call   36a0 <_init+0x6a0>
    472f:	48 8b 15 a2 c8 00 00 	mov    0xc8a2(%rip),%rdx        # 10fd8 <_ZSt4endlIcSt11char_traitsIcEERSt13basic_ostreamIT_T0_ES6_@GLIBCXX_3.4>
    4736:	48 89 d6             	mov    %rdx,%rsi
    4739:	48 89 c7             	mov    %rax,%rdi
    473c:	e8 ef ef ff ff       	call   3730 <_init+0x730>
    4741:	48 8d 95 80 f7 ff ff 	lea    -0x880(%rbp),%rdx
    4748:	48 8b 85 68 f7 ff ff 	mov    -0x898(%rbp),%rax
    474f:	48 89 d6             	mov    %rdx,%rsi
    4752:	48 89 c7             	mov    %rax,%rdi
    4755:	e8 3a 14 00 00       	call   5b94 <_ZNSt6vectorISt3mapINSt7__cxx1112basic_stringIcSt11char_traitsIcESaIcEEES6_St4lessIS6_ESaISt4pairIKS6_S6_EEESaISD_EEC1EOSF_>
    475a:	e9 87 00 00 00       	jmp    47e6 <_Z15ejecutarScraperRKNSt7__cxx1112basic_stringIcSt11char_traitsIcESaIcEEE+0x176>
    475f:	48 8d 85 c0 f7 ff ff 	lea    -0x840(%rbp),%rax
    4766:	48 89 c7             	mov    %rax,%rdi
    4769:	e8 a2 f0 ff ff       	call   3810 <_init+0x810>
    476e:	eb 19                	jmp    4789 <_Z15ejecutarScraperRKNSt7__cxx1112basic_stringIcSt11char_traitsIcESaIcEEE+0x119>
    4770:	48 8d 95 e0 f7 ff ff 	lea    -0x820(%rbp),%rdx
    4777:	48 8d 85 c0 f7 ff ff 	lea    -0x840(%rbp),%rax
    477e:	48 89 d6             	mov    %rdx,%rsi
    4781:	48 89 c7             	mov    %rax,%rdi
    4784:	e8 37 ef ff ff       	call   36c0 <_init+0x6c0>
    4789:	48 8b 95 78 f7 ff ff 	mov    -0x888(%rbp),%rdx
    4790:	48 8d 85 e0 f7 ff ff 	lea    -0x820(%rbp),%rax
    4797:	be 00 08 00 00       	mov    $0x800,%esi
    479c:	48 89 c7             	mov    %rax,%rdi
    479f:	e8 ec f0 ff ff       	call   3890 <_init+0x890>
    47a4:	48 85 c0             	test   %rax,%rax
    47a7:	0f 95 c0             	setne  %al
    47aa:	84 c0                	test   %al,%al
    47ac:	75 c2                	jne    4770 <_Z15ejecutarScraperRKNSt7__cxx1112basic_stringIcSt11char_traitsIcESaIcEEE+0x100>
    47ae:	48 8b 85 78 f7 ff ff 	mov    -0x888(%rbp),%rax
    47b5:	48 89 c7             	mov    %rax,%rdi
    47b8:	e8 63 f0 ff ff       	call   3820 <_init+0x820>
    47bd:	48 8b 85 68 f7 ff ff 	mov    -0x898(%rbp),%rax
    47c4:	48 8d 95 c0 f7 ff ff 	lea    -0x840(%rbp),%rdx
    47cb:	48 89 d6             	mov    %rdx,%rsi
    47ce:	48 89 c7             	mov    %rax,%rdi
    47d1:	e8 b0 f3 ff ff       	call   3b86 <_Z19parsearJSONdePythonRKNSt7__cxx1112basic_stringIcSt11char_traitsIcESaIcEEE>
    47d6:	90                   	nop
    47d7:	48 8d 85 c0 f7 ff ff 	lea    -0x840(%rbp),%rax
    47de:	48 89 c7             	mov    %rax,%rdi
    47e1:	e8 0a ee ff ff       	call   35f0 <_init+0x5f0>
    47e6:	48 8d 85 80 f7 ff ff 	lea    -0x880(%rbp),%rax
    47ed:	48 89 c7             	mov    %rax,%rdi
    47f0:	e8 ef 15 00 00       	call   5de4 <_ZNSt6vectorISt3mapINSt7__cxx1112basic_stringIcSt11char_traitsIcESaIcEEES6_St4lessIS6_ESaISt4pairIKS6_S6_EEESaISD_EED1Ev>
    47f5:	48 8d 85 a0 f7 ff ff 	lea    -0x860(%rbp),%rax
    47fc:	48 89 c7             	mov    %rax,%rdi
    47ff:	e8 ec ed ff ff       	call   35f0 <_init+0x5f0>
    4804:	48 8b 45 e8          	mov    -0x18(%rbp),%rax
    4808:	64 48 2b 04 25 28 00 	sub    %fs:0x28,%rax
    480f:	00 00 
    4811:	74 6c                	je     487f <_Z15ejecutarScraperRKNSt7__cxx1112basic_stringIcSt11char_traitsIcESaIcEEE+0x20f>
    4813:	eb 65                	jmp    487a <_Z15ejecutarScraperRKNSt7__cxx1112basic_stringIcSt11char_traitsIcESaIcEEE+0x20a>
    4815:	f3 0f 1e fa          	endbr64 
    4819:	48 89 c3             	mov    %rax,%rbx
    481c:	48 8d 85 c0 f7 ff ff 	lea    -0x840(%rbp),%rax
    4823:	48 89 c7             	mov    %rax,%rdi
    4826:	e8 c5 ed ff ff       	call   35f0 <_init+0x5f0>
    482b:	eb 07                	jmp    4834 <_Z15ejecutarScraperRKNSt7__cxx1112basic_stringIcSt11char_traitsIcESaIcEEE+0x1c4>
    482d:	f3 0f 1e fa          	endbr64 
    4831:	48 89 c3             	mov    %rax,%rbx
    4834:	48 8d 85 80 f7 ff ff 	lea    -0x880(%rbp),%rax
    483b:	48 89 c7             	mov    %rax,%rdi
    483e:	e8 a1 15 00 00       	call   5de4 <_ZNSt6vectorISt3mapINSt7__cxx1112basic_stringIcSt11char_traitsIcESaIcEEES6_St4lessIS6_ESaISt4pairIKS6_S6_EEESaISD_EED1Ev>
    4843:	eb 07                	jmp    484c <_Z15ejecutarScraperRKNSt7__cxx1112basic_stringIcSt11char_traitsIcESaIcEEE+0x1dc>
    4845:	f3 0f 1e fa          	endbr64 
    4849:	48 89 c3             	mov    %rax,%rbx
    484c:	48 8d 85 a0 f7 ff ff 	lea    -0x860(%rbp),%rax
    4853:	48 89 c7             	mov    %rax,%rdi
    4856:	e8 95 ed ff ff       	call   35f0 <_init+0x5f0>
    485b:	48 89 d8             	mov    %rbx,%rax
    485e:	48 8b 55 e8          	mov    -0x18(%rbp),%rdx
    4862:	64 48 2b 14 25 28 00 	sub    %fs:0x28,%rdx
    4869:	00 00 
    486b:	74 05                	je     4872 <_Z15ejecutarScraperRKNSt7__cxx1112basic_stringIcSt11char_traitsIcESaIcEEE+0x202>
    486d:	e8 0e ef ff ff       	call   3780 <_init+0x780>
    4872:	48 89 c7             	mov    %rax,%rdi
    4875:	e8 96 f0 ff ff       	call   3910 <_init+0x910>
    487a:	e8 01 ef ff ff       	call   3780 <_init+0x780>
    487f:	48 8b 85 68 f7 ff ff 	mov    -0x898(%rbp),%rax
    4886:	48 8b 5d f8          	mov    -0x8(%rbp),%rbx
    488a:	c9                   	leave  
    488b:	c3                   	ret    

000000000000488c <_Z23obtenerURLsDesdeArchivoRKNSt7__cxx1112basic_stringIcSt11char_traitsIcESaIcEEERKSt3setIS4_St4lessIS4_ESaIS4_EE>:
    488c:	f3 0f 1e fa          	endbr64 
    4890:	55                   	push   %rbp
    4891:	48 89 e5             	mov    %rsp,%rbp
    4894:	53                   	push   %rbx
    4895:	48 81 ec a8 02 00 00 	sub    $0x2a8,%rsp
    489c:	48 89 bd 68 fd ff ff 	mov    %rdi,-0x298(%rbp)
    48a3:	48 89 b5 60 fd ff ff 	mov    %rsi,-0x2a0(%rbp)
    48aa:	48 89 95 58 fd ff ff 	mov    %rdx,-0x2a8(%rbp)
    48b1:	64 48 8b 04 25 28 00 	mov    %fs:0x28,%rax
    48b8:	00 00 
    48ba:	48 89 45 e8          	mov    %rax,-0x18(%rbp)
    48be:	31 c0                	xor    %eax,%eax
    48c0:	48 8b 85 68 fd ff ff 	mov    -0x298(%rbp),%rax
    48c7:	48 89 c7             	mov    %rax,%rdi
    48ca:	e8 37 13 00 00       	call   5c06 <_ZNSt6vectorINSt7__cxx1112basic_stringIcSt11char_traitsIcESaIcEEESaIS5_EEC1Ev>
    48cf:	48 8b 8d 60 fd ff ff 	mov    -0x2a0(%rbp),%rcx
    48d6:	48 8d 85 e0 fd ff ff 	lea    -0x220(%rbp),%rax
    48dd:	ba 08 00 00 00       	mov    $0x8,%edx
    48e2:	48 89 ce             	mov    %rcx,%rsi
    48e5:	48 89 c7             	mov    %rax,%rdi
    48e8:	e8 c3 ef ff ff       	call   38b0 <_init+0x8b0>
    48ed:	48 8d 85 a0 fd ff ff 	lea    -0x260(%rbp),%rax
    48f4:	48 89 c7             	mov    %rax,%rdi
    48f7:	e8 14 ef ff ff       	call   3810 <_init+0x810>
    48fc:	e9 7a 01 00 00       	jmp    4a7b <_Z23obtenerURLsDesdeArchivoRKNSt7__cxx1112basic_stringIcSt11char_traitsIcESaIcEEERKSt3setIS4_St4lessIS4_ESaIS4_EE+0x1ef>
    4901:	48 8d 85 a0 fd ff ff 	lea    -0x260(%rbp),%rax
    4908:	ba 00 00 00 00       	mov    $0x0,%edx
    490d:	48 8d 0d aa 77 00 00 	lea    0x77aa(%rip),%rcx        # c0be <_ZSt19piecewise_construct+0xba>
    4914:	48 89 ce             	mov    %rcx,%rsi
    4917:	48 89 c7             	mov    %rax,%rdi
    491a:	e8 41 f0 ff ff       	call   3960 <_init+0x960>
    491f:	48 83 f8 ff          	cmp    $0xffffffffffffffff,%rax
    4923:	0f 95 c0             	setne  %al
    4926:	84 c0                	test   %al,%al
    4928:	0f 84 4d 01 00 00    	je     4a7b <_Z23obtenerURLsDesdeArchivoRKNSt7__cxx1112basic_stringIcSt11char_traitsIcESaIcEEERKSt3setIS4_St4lessIS4_ESaIS4_EE+0x1ef>
    492e:	48 8d 85 a0 fd ff ff 	lea    -0x260(%rbp),%rax
    4935:	ba 00 00 00 00       	mov    $0x0,%edx
    493a:	48 8d 0d 7d 77 00 00 	lea    0x777d(%rip),%rcx        # c0be <_ZSt19piecewise_construct+0xba>
    4941:	48 89 ce             	mov    %rcx,%rsi
    4944:	48 89 c7             	mov    %rax,%rdi
    4947:	e8 14 f0 ff ff       	call   3960 <_init+0x960>
    494c:	48 89 85 88 fd ff ff 	mov    %rax,-0x278(%rbp)
    4953:	48 8d 85 c0 fd ff ff 	lea    -0x240(%rbp),%rax
    495a:	48 8b 95 88 fd ff ff 	mov    -0x278(%rbp),%rdx
    4961:	48 8d b5 a0 fd ff ff 	lea    -0x260(%rbp),%rsi
    4968:	48 c7 c1 ff ff ff ff 	mov    $0xffffffffffffffff,%rcx
    496f:	48 89 c7             	mov    %rax,%rdi
    4972:	e8 99 ed ff ff       	call   3710 <_init+0x710>
    4977:	48 8b 85 58 fd ff ff 	mov    -0x2a8(%rbp),%rax
    497e:	48 89 85 90 fd ff ff 	mov    %rax,-0x270(%rbp)
    4985:	48 8b 85 90 fd ff ff 	mov    -0x270(%rbp),%rax
    498c:	48 89 c7             	mov    %rax,%rdi
    498f:	e8 76 1c 00 00       	call   660a <_ZNKSt3setINSt7__cxx1112basic_stringIcSt11char_traitsIcESaIcEEESt4lessIS5_ESaIS5_EE5beginEv>
    4994:	48 89 85 78 fd ff ff 	mov    %rax,-0x288(%rbp)
    499b:	48 8b 85 90 fd ff ff 	mov    -0x270(%rbp),%rax
    49a2:	48 89 c7             	mov    %rax,%rdi
    49a5:	e8 7e 1c 00 00       	call   6628 <_ZNKSt3setINSt7__cxx1112basic_stringIcSt11char_traitsIcESaIcEEESt4lessIS5_ESaIS5_EE3endEv>
    49aa:	48 89 85 80 fd ff ff 	mov    %rax,-0x280(%rbp)
    49b1:	eb 69                	jmp    4a1c <_Z23obtenerURLsDesdeArchivoRKNSt7__cxx1112basic_stringIcSt11char_traitsIcESaIcEEERKSt3setIS4_St4lessIS4_ESaIS4_EE+0x190>
    49b3:	48 8d 85 78 fd ff ff 	lea    -0x288(%rbp),%rax
    49ba:	48 89 c7             	mov    %rax,%rdi
    49bd:	e8 d6 1c 00 00       	call   6698 <_ZNKSt23_Rb_tree_const_iteratorINSt7__cxx1112basic_stringIcSt11char_traitsIcESaIcEEEEdeEv>
    49c2:	48 89 85 98 fd ff ff 	mov    %rax,-0x268(%rbp)
    49c9:	48 8b 8d 98 fd ff ff 	mov    -0x268(%rbp),%rcx
    49d0:	48 8d 85 c0 fd ff ff 	lea    -0x240(%rbp),%rax
    49d7:	ba 00 00 00 00       	mov    $0x0,%edx
    49dc:	48 89 ce             	mov    %rcx,%rsi
    49df:	48 89 c7             	mov    %rax,%rdi
    49e2:	e8 89 ef ff ff       	call   3970 <_init+0x970>
    49e7:	48 83 f8 ff          	cmp    $0xffffffffffffffff,%rax
    49eb:	0f 95 c0             	setne  %al
    49ee:	84 c0                	test   %al,%al
    49f0:	74 1b                	je     4a0d <_Z23obtenerURLsDesdeArchivoRKNSt7__cxx1112basic_stringIcSt11char_traitsIcESaIcEEERKSt3setIS4_St4lessIS4_ESaIS4_EE+0x181>
    49f2:	48 8d 85 c0 fd ff ff 	lea    -0x240(%rbp),%rax
    49f9:	48 8d 15 c3 76 00 00 	lea    0x76c3(%rip),%rdx        # c0c3 <_ZSt19piecewise_construct+0xbf>
    4a00:	48 89 d6             	mov    %rdx,%rsi
    4a03:	48 89 c7             	mov    %rax,%rdi
    4a06:	e8 f5 ed ff ff       	call   3800 <_init+0x800>
    4a0b:	eb 30                	jmp    4a3d <_Z23obtenerURLsDesdeArchivoRKNSt7__cxx1112basic_stringIcSt11char_traitsIcESaIcEEERKSt3setIS4_St4lessIS4_ESaIS4_EE+0x1b1>
    4a0d:	48 8d 85 78 fd ff ff 	lea    -0x288(%rbp),%rax
    4a14:	48 89 c7             	mov    %rax,%rdi
    4a17:	e8 50 1c 00 00       	call   666c <_ZNSt23_Rb_tree_const_iteratorINSt7__cxx1112basic_stringIcSt11char_traitsIcESaIcEEEEppEv>
    4a1c:	48 8d 95 80 fd ff ff 	lea    -0x280(%rbp),%rdx
    4a23:	48 8d 85 78 fd ff ff 	lea    -0x288(%rbp),%rax
    4a2a:	48 89 d6             	mov    %rdx,%rsi
    4a2d:	48 89 c7             	mov    %rax,%rdi
    4a30:	e8 11 1c 00 00       	call   6646 <_ZStneRKSt23_Rb_tree_const_iteratorINSt7__cxx1112basic_stringIcSt11char_traitsIcESaIcEEEES8_>
    4a35:	84 c0                	test   %al,%al
    4a37:	0f 85 76 ff ff ff    	jne    49b3 <_Z23obtenerURLsDesdeArchivoRKNSt7__cxx1112basic_stringIcSt11char_traitsIcESaIcEEERKSt3setIS4_St4lessIS4_ESaIS4_EE+0x127>
    4a3d:	48 8d 85 c0 fd ff ff 	lea    -0x240(%rbp),%rax
    4a44:	48 89 c7             	mov    %rax,%rdi
    4a47:	e8 94 ee ff ff       	call   38e0 <_init+0x8e0>
    4a4c:	83 f0 01             	xor    $0x1,%eax
    4a4f:	84 c0                	test   %al,%al
    4a51:	74 19                	je     4a6c <_Z23obtenerURLsDesdeArchivoRKNSt7__cxx1112basic_stringIcSt11char_traitsIcESaIcEEERKSt3setIS4_St4lessIS4_ESaIS4_EE+0x1e0>
    4a53:	48 8d 95 c0 fd ff ff 	lea    -0x240(%rbp),%rdx
    4a5a:	48 8b 85 68 fd ff ff 	mov    -0x298(%rbp),%rax
    4a61:	48 89 d6             	mov    %rdx,%rsi
    4a64:	48 89 c7             	mov    %rax,%rdi
    4a67:	e8 4e 1c 00 00       	call   66ba <_ZNSt6vectorINSt7__cxx1112basic_stringIcSt11char_traitsIcESaIcEEESaIS5_EE9push_backERKS5_>
    4a6c:	48 8d 85 c0 fd ff ff 	lea    -0x240(%rbp),%rax
    4a73:	48 89 c7             	mov    %rax,%rdi
    4a76:	e8 75 eb ff ff       	call   35f0 <_init+0x5f0>
    4a7b:	48 8d 95 a0 fd ff ff 	lea    -0x260(%rbp),%rdx
    4a82:	48 8d 85 e0 fd ff ff 	lea    -0x220(%rbp),%rax
    4a89:	48 89 d6             	mov    %rdx,%rsi
    4a8c:	48 89 c7             	mov    %rax,%rdi
    4a8f:	e8 8c ea ff ff       	call   3520 <_init+0x520>
    4a94:	48 8b 10             	mov    (%rax),%rdx
    4a97:	48 83 ea 18          	sub    $0x18,%rdx
    4a9b:	48 8b 12             	mov    (%rdx),%rdx
    4a9e:	48 01 d0             	add    %rdx,%rax
    4aa1:	48 89 c7             	mov    %rax,%rdi
    4aa4:	e8 17 ed ff ff       	call   37c0 <_init+0x7c0>
    4aa9:	84 c0                	test   %al,%al
    4aab:	0f 85 50 fe ff ff    	jne    4901 <_Z23obtenerURLsDesdeArchivoRKNSt7__cxx1112basic_stringIcSt11char_traitsIcESaIcEEERKSt3setIS4_St4lessIS4_ESaIS4_EE+0x75>
    4ab1:	90                   	nop
    4ab2:	48 8d 85 a0 fd ff ff 	lea    -0x260(%rbp),%rax
    4ab9:	48 89 c7             	mov    %rax,%rdi
    4abc:	e8 2f eb ff ff       	call   35f0 <_init+0x5f0>
    4ac1:	48 8d 85 e0 fd ff ff 	lea    -0x220(%rbp),%rax
    4ac8:	48 89 c7             	mov    %rax,%rdi
    4acb:	e8 70 ea ff ff       	call   3540 <_init+0x540>
    4ad0:	90                   	nop
    4ad1:	48 8b 45 e8          	mov    -0x18(%rbp),%rax
    4ad5:	64 48 2b 04 25 28 00 	sub    %fs:0x28,%rax
    4adc:	00 00 
    4ade:	74 7b                	je     4b5b <_Z23obtenerURLsDesdeArchivoRKNSt7__cxx1112basic_stringIcSt11char_traitsIcESaIcEEERKSt3setIS4_St4lessIS4_ESaIS4_EE+0x2cf>
    4ae0:	eb 74                	jmp    4b56 <_Z23obtenerURLsDesdeArchivoRKNSt7__cxx1112basic_stringIcSt11char_traitsIcESaIcEEERKSt3setIS4_St4lessIS4_ESaIS4_EE+0x2ca>
    4ae2:	f3 0f 1e fa          	endbr64 
    4ae6:	48 89 c3             	mov    %rax,%rbx
    4ae9:	48 8d 85 c0 fd ff ff 	lea    -0x240(%rbp),%rax
    4af0:	48 89 c7             	mov    %rax,%rdi
    4af3:	e8 f8 ea ff ff       	call   35f0 <_init+0x5f0>
    4af8:	eb 07                	jmp    4b01 <_Z23obtenerURLsDesdeArchivoRKNSt7__cxx1112basic_stringIcSt11char_traitsIcESaIcEEERKSt3setIS4_St4lessIS4_ESaIS4_EE+0x275>
    4afa:	f3 0f 1e fa          	endbr64 
    4afe:	48 89 c3             	mov    %rax,%rbx
    4b01:	48 8d 85 a0 fd ff ff 	lea    -0x260(%rbp),%rax
    4b08:	48 89 c7             	mov    %rax,%rdi
    4b0b:	e8 e0 ea ff ff       	call   35f0 <_init+0x5f0>
    4b10:	48 8d 85 e0 fd ff ff 	lea    -0x220(%rbp),%rax
    4b17:	48 89 c7             	mov    %rax,%rdi
    4b1a:	e8 21 ea ff ff       	call   3540 <_init+0x540>
    4b1f:	eb 07                	jmp    4b28 <_Z23obtenerURLsDesdeArchivoRKNSt7__cxx1112basic_stringIcSt11char_traitsIcESaIcEEERKSt3setIS4_St4lessIS4_ESaIS4_EE+0x29c>
    4b21:	f3 0f 1e fa          	endbr64 
    4b25:	48 89 c3             	mov    %rax,%rbx
    4b28:	48 8b 85 68 fd ff ff 	mov    -0x298(%rbp),%rax
    4b2f:	48 89 c7             	mov    %rax,%rdi
    4b32:	e8 09 19 00 00       	call   6440 <_ZNSt6vectorINSt7__cxx1112basic_stringIcSt11char_traitsIcESaIcEEESaIS5_EED1Ev>
    4b37:	48 89 d8             	mov    %rbx,%rax
    4b3a:	48 8b 55 e8          	mov    -0x18(%rbp),%rdx
    4b3e:	64 48 2b 14 25 28 00 	sub    %fs:0x28,%rdx
    4b45:	00 00 
    4b47:	74 05                	je     4b4e <_Z23obtenerURLsDesdeArchivoRKNSt7__cxx1112basic_stringIcSt11char_traitsIcESaIcEEERKSt3setIS4_St4lessIS4_ESaIS4_EE+0x2c2>
    4b49:	e8 32 ec ff ff       	call   3780 <_init+0x780>
    4b4e:	48 89 c7             	mov    %rax,%rdi
    4b51:	e8 ba ed ff ff       	call   3910 <_init+0x910>
    4b56:	e8 25 ec ff ff       	call   3780 <_init+0x780>
    4b5b:	48 8b 85 68 fd ff ff 	mov    -0x298(%rbp),%rax
    4b62:	48 8b 5d f8          	mov    -0x8(%rbp),%rbx
    4b66:	c9                   	leave  
    4b67:	c3                   	ret    

0000000000004b68 <_Z25ejecutarMainScraperConURLRKNSt7__cxx1112basic_stringIcSt11char_traitsIcESaIcEEE>:
    4b68:	f3 0f 1e fa          	endbr64 
    4b6c:	55                   	push   %rbp
    4b6d:	48 89 e5             	mov    %rsp,%rbp
    4b70:	53                   	push   %rbx
    4b71:	48 81 ec 98 08 00 00 	sub    $0x898,%rsp
    4b78:	48 89 bd 68 f7 ff ff 	mov    %rdi,-0x898(%rbp)
    4b7f:	48 89 b5 60 f7 ff ff 	mov    %rsi,-0x8a0(%rbp)
    4b86:	64 48 8b 04 25 28 00 	mov    %fs:0x28,%rax
    4b8d:	00 00 
    4b8f:	48 89 45 e8          	mov    %rax,-0x18(%rbp)
    4b93:	31 c0                	xor    %eax,%eax
    4b95:	48 8d 85 80 f7 ff ff 	lea    -0x880(%rbp),%rax
    4b9c:	48 89 c7             	mov    %rax,%rdi
    4b9f:	e8 1e 0f 00 00       	call   5ac2 <_ZNSt6vectorISt3mapINSt7__cxx1112basic_stringIcSt11char_traitsIcESaIcEEES6_St4lessIS6_ESaISt4pairIKS6_S6_EEESaISD_EEC1Ev>
    4ba4:	48 8d 85 c0 f7 ff ff 	lea    -0x840(%rbp),%rax
    4bab:	48 8b 95 60 f7 ff ff 	mov    -0x8a0(%rbp),%rdx
    4bb2:	48 8d 0d 0f 75 00 00 	lea    0x750f(%rip),%rcx        # c0c8 <_ZSt19piecewise_construct+0xc4>
    4bb9:	48 89 ce             	mov    %rcx,%rsi
    4bbc:	48 89 c7             	mov    %rax,%rdi
    4bbf:	e8 d6 18 00 00       	call   649a <_ZStplIcSt11char_traitsIcESaIcEENSt7__cxx1112basic_stringIT_T0_T1_EEPKS5_RKS8_>
    4bc4:	48 8d 85 a0 f7 ff ff 	lea    -0x860(%rbp),%rax
    4bcb:	48 8d 8d c0 f7 ff ff 	lea    -0x840(%rbp),%rcx
    4bd2:	48 8d 15 32 74 00 00 	lea    0x7432(%rip),%rdx        # c00b <_ZSt19piecewise_construct+0x7>
    4bd9:	48 89 ce             	mov    %rcx,%rsi
    4bdc:	48 89 c7             	mov    %rax,%rdi
    4bdf:	e8 e1 1b 00 00       	call   67c5 <_ZStplIcSt11char_traitsIcESaIcEENSt7__cxx1112basic_stringIT_T0_T1_EEOS8_PKS5_>
    4be4:	48 8d 85 c0 f7 ff ff 	lea    -0x840(%rbp),%rax
    4beb:	48 89 c7             	mov    %rax,%rdi
    4bee:	e8 fd e9 ff ff       	call   35f0 <_init+0x5f0>
    4bf3:	48 8d 85 a0 f7 ff ff 	lea    -0x860(%rbp),%rax
    4bfa:	48 89 c7             	mov    %rax,%rdi
    4bfd:	e8 8e e9 ff ff       	call   3590 <_init+0x590>
    4c02:	48 89 c2             	mov    %rax,%rdx
    4c05:	48 8d 05 98 74 00 00 	lea    0x7498(%rip),%rax        # c0a4 <_ZSt19piecewise_construct+0xa0>
    4c0c:	48 89 c6             	mov    %rax,%rsi
    4c0f:	48 89 d7             	mov    %rdx,%rdi
    4c12:	e8 39 e9 ff ff       	call   3550 <_init+0x550>
    4c17:	48 89 85 78 f7 ff ff 	mov    %rax,-0x888(%rbp)
    4c1e:	48 83 bd 78 f7 ff ff 	cmpq   $0x0,-0x888(%rbp)
    4c25:	00 
    4c26:	75 5e                	jne    4c86 <_Z25ejecutarMainScraperConURLRKNSt7__cxx1112basic_stringIcSt11char_traitsIcESaIcEEE+0x11e>
    4c28:	48 8d 05 c1 74 00 00 	lea    0x74c1(%rip),%rax        # c0f0 <_ZSt19piecewise_construct+0xec>
    4c2f:	48 89 c6             	mov    %rax,%rsi
    4c32:	48 8d 05 27 c5 00 00 	lea    0xc527(%rip),%rax        # 11160 <_ZSt4cerr@GLIBCXX_3.4>
    4c39:	48 89 c7             	mov    %rax,%rdi
    4c3c:	e8 8f ea ff ff       	call   36d0 <_init+0x6d0>
    4c41:	48 89 c2             	mov    %rax,%rdx
    4c44:	48 8b 85 60 f7 ff ff 	mov    -0x8a0(%rbp),%rax
    4c4b:	48 89 c6             	mov    %rax,%rsi
    4c4e:	48 89 d7             	mov    %rdx,%rdi
    4c51:	e8 4a ea ff ff       	call   36a0 <_init+0x6a0>
    4c56:	48 8b 15 7b c3 00 00 	mov    0xc37b(%rip),%rdx        # 10fd8 <_ZSt4endlIcSt11char_traitsIcEERSt13basic_ostreamIT_T0_ES6_@GLIBCXX_3.4>
    4c5d:	48 89 d6             	mov    %rdx,%rsi
    4c60:	48 89 c7             	mov    %rax,%rdi
    4c63:	e8 c8 ea ff ff       	call   3730 <_init+0x730>
    4c68:	48 8d 95 80 f7 ff ff 	lea    -0x880(%rbp),%rdx
    4c6f:	48 8b 85 68 f7 ff ff 	mov    -0x898(%rbp),%rax
    4c76:	48 89 d6             	mov    %rdx,%rsi
    4c79:	48 89 c7             	mov    %rax,%rdi
    4c7c:	e8 13 0f 00 00       	call   5b94 <_ZNSt6vectorISt3mapINSt7__cxx1112basic_stringIcSt11char_traitsIcESaIcEEES6_St4lessIS6_ESaISt4pairIKS6_S6_EEESaISD_EEC1EOSF_>
    4c81:	e9 87 00 00 00       	jmp    4d0d <_Z25ejecutarMainScraperConURLRKNSt7__cxx1112basic_stringIcSt11char_traitsIcESaIcEEE+0x1a5>
    4c86:	48 8d 85 c0 f7 ff ff 	lea    -0x840(%rbp),%rax
    4c8d:	48 89 c7             	mov    %rax,%rdi
    4c90:	e8 7b eb ff ff       	call   3810 <_init+0x810>
    4c95:	eb 19                	jmp    4cb0 <_Z25ejecutarMainScraperConURLRKNSt7__cxx1112basic_stringIcSt11char_traitsIcESaIcEEE+0x148>
    4c97:	48 8d 95 e0 f7 ff ff 	lea    -0x820(%rbp),%rdx
    4c9e:	48 8d 85 c0 f7 ff ff 	lea    -0x840(%rbp),%rax
    4ca5:	48 89 d6             	mov    %rdx,%rsi
    4ca8:	48 89 c7             	mov    %rax,%rdi
    4cab:	e8 10 ea ff ff       	call   36c0 <_init+0x6c0>
    4cb0:	48 8b 95 78 f7 ff ff 	mov    -0x888(%rbp),%rdx
    4cb7:	48 8d 85 e0 f7 ff ff 	lea    -0x820(%rbp),%rax
    4cbe:	be 00 08 00 00       	mov    $0x800,%esi
    4cc3:	48 89 c7             	mov    %rax,%rdi
    4cc6:	e8 c5 eb ff ff       	call   3890 <_init+0x890>
    4ccb:	48 85 c0             	test   %rax,%rax
    4cce:	0f 95 c0             	setne  %al
    4cd1:	84 c0                	test   %al,%al
    4cd3:	75 c2                	jne    4c97 <_Z25ejecutarMainScraperConURLRKNSt7__cxx1112basic_stringIcSt11char_traitsIcESaIcEEE+0x12f>
    4cd5:	48 8b 85 78 f7 ff ff 	mov    -0x888(%rbp),%rax
    4cdc:	48 89 c7             	mov    %rax,%rdi
    4cdf:	e8 3c eb ff ff       	call   3820 <_init+0x820>
    4ce4:	48 8b 85 68 f7 ff ff 	mov    -0x898(%rbp),%rax
    4ceb:	48 8d 95 c0 f7 ff ff 	lea    -0x840(%rbp),%rdx
    4cf2:	48 89 d6             	mov    %rdx,%rsi
    4cf5:	48 89 c7             	mov    %rax,%rdi
    4cf8:	e8 89 ee ff ff       	call   3b86 <_Z19parsearJSONdePythonRKNSt7__cxx1112basic_stringIcSt11char_traitsIcESaIcEEE>
    4cfd:	90                   	nop
    4cfe:	48 8d 85 c0 f7 ff ff 	lea    -0x840(%rbp),%rax
    4d05:	48 89 c7             	mov    %rax,%rdi
    4d08:	e8 e3 e8 ff ff       	call   35f0 <_init+0x5f0>
    4d0d:	48 8d 85 a0 f7 ff ff 	lea    -0x860(%rbp),%rax
    4d14:	48 89 c7             	mov    %rax,%rdi
    4d17:	e8 d4 e8 ff ff       	call   35f0 <_init+0x5f0>
    4d1c:	48 8d 85 80 f7 ff ff 	lea    -0x880(%rbp),%rax
    4d23:	48 89 c7             	mov    %rax,%rdi
    4d26:	e8 b9 10 00 00       	call   5de4 <_ZNSt6vectorISt3mapINSt7__cxx1112basic_stringIcSt11char_traitsIcESaIcEEES6_St4lessIS6_ESaISt4pairIKS6_S6_EEESaISD_EED1Ev>
    4d2b:	48 8b 45 e8          	mov    -0x18(%rbp),%rax
    4d2f:	64 48 2b 04 25 28 00 	sub    %fs:0x28,%rax
    4d36:	00 00 
    4d38:	0f 84 84 00 00 00    	je     4dc2 <_Z25ejecutarMainScraperConURLRKNSt7__cxx1112basic_stringIcSt11char_traitsIcESaIcEEE+0x25a>
    4d3e:	eb 7d                	jmp    4dbd <_Z25ejecutarMainScraperConURLRKNSt7__cxx1112basic_stringIcSt11char_traitsIcESaIcEEE+0x255>
    4d40:	f3 0f 1e fa          	endbr64 
    4d44:	48 89 c3             	mov    %rax,%rbx
    4d47:	48 8d 85 c0 f7 ff ff 	lea    -0x840(%rbp),%rax
    4d4e:	48 89 c7             	mov    %rax,%rdi
    4d51:	e8 9a e8 ff ff       	call   35f0 <_init+0x5f0>
    4d56:	eb 37                	jmp    4d8f <_Z25ejecutarMainScraperConURLRKNSt7__cxx1112basic_stringIcSt11char_traitsIcESaIcEEE+0x227>
    4d58:	f3 0f 1e fa          	endbr64 
    4d5c:	48 89 c3             	mov    %rax,%rbx
    4d5f:	48 8d 85 c0 f7 ff ff 	lea    -0x840(%rbp),%rax
    4d66:	48 89 c7             	mov    %rax,%rdi
    4d69:	e8 82 e8 ff ff       	call   35f0 <_init+0x5f0>
    4d6e:	eb 07                	jmp    4d77 <_Z25ejecutarMainScraperConURLRKNSt7__cxx1112basic_stringIcSt11char_traitsIcESaIcEEE+0x20f>
    4d70:	f3 0f 1e fa          	endbr64 
    4d74:	48 89 c3             	mov    %rax,%rbx
    4d77:	48 8d 85 a0 f7 ff ff 	lea    -0x860(%rbp),%rax
    4d7e:	48 89 c7             	mov    %rax,%rdi
    4d81:	e8 6a e8 ff ff       	call   35f0 <_init+0x5f0>
    4d86:	eb 07                	jmp    4d8f <_Z25ejecutarMainScraperConURLRKNSt7__cxx1112basic_stringIcSt11char_traitsIcESaIcEEE+0x227>
    4d88:	f3 0f 1e fa          	endbr64 
    4d8c:	48 89 c3             	mov    %rax,%rbx
    4d8f:	48 8d 85 80 f7 ff ff 	lea    -0x880(%rbp),%rax
    4d96:	48 89 c7             	mov    %rax,%rdi
    4d99:	e8 46 10 00 00       	call   5de4 <_ZNSt6vectorISt3mapINSt7__cxx1112basic_stringIcSt11char_traitsIcESaIcEEES6_St4lessIS6_ESaISt4pairIKS6_S6_EEESaISD_EED1Ev>
    4d9e:	48 89 d8             	mov    %rbx,%rax
    4da1:	48 8b 55 e8          	mov    -0x18(%rbp),%rdx
    4da5:	64 48 2b 14 25 28 00 	sub    %fs:0x28,%rdx
    4dac:	00 00 
    4dae:	74 05                	je     4db5 <_Z25ejecutarMainScraperConURLRKNSt7__cxx1112basic_stringIcSt11char_traitsIcESaIcEEE+0x24d>
    4db0:	e8 cb e9 ff ff       	call   3780 <_init+0x780>
    4db5:	48 89 c7             	mov    %rax,%rdi
    4db8:	e8 53 eb ff ff       	call   3910 <_init+0x910>
    4dbd:	e8 be e9 ff ff       	call   3780 <_init+0x780>
    4dc2:	48 8b 85 68 f7 ff ff 	mov    -0x898(%rbp),%rax
    4dc9:	48 8b 5d f8          	mov    -0x8(%rbp),%rbx
    4dcd:	c9                   	leave  
    4dce:	c3                   	ret    

0000000000004dcf <main>:
    4dcf:	f3 0f 1e fa          	endbr64 
    4dd3:	55                   	push   %rbp
    4dd4:	48 89 e5             	mov    %rsp,%rbp
    4dd7:	41 57                	push   %r15
    4dd9:	41 56                	push   %r14
    4ddb:	41 55                	push   %r13
    4ddd:	41 54                	push   %r12
    4ddf:	53                   	push   %rbx
    4de0:	48 81 ec 18 03 00 00 	sub    $0x318,%rsp
    4de7:	64 48 8b 04 25 28 00 	mov    %fs:0x28,%rax
    4dee:	00 00 
    4df0:	48 89 45 c8          	mov    %rax,-0x38(%rbp)
    4df4:	31 c0                	xor    %eax,%eax
    4df6:	bf 04 00 00 00       	mov    $0x4,%edi
    4dfb:	e8 90 e9 ff ff       	call   3790 <_init+0x790>
    4e00:	48 8d 85 70 fd ff ff 	lea    -0x290(%rbp),%rax
    4e07:	48 89 85 d8 fc ff ff 	mov    %rax,-0x328(%rbp)
    4e0e:	90                   	nop
    4e0f:	90                   	nop
    4e10:	48 8d 95 70 fd ff ff 	lea    -0x290(%rbp),%rdx
    4e17:	48 8d 85 a0 fd ff ff 	lea    -0x260(%rbp),%rax
    4e1e:	48 8d 0d fb 72 00 00 	lea    0x72fb(%rip),%rcx        # c120 <_ZSt19piecewise_construct+0x11c>
    4e25:	48 89 ce             	mov    %rcx,%rsi
    4e28:	48 89 c7             	mov    %rax,%rdi
    4e2b:	e8 c2 14 00 00       	call   62f2 <_ZNSt7__cxx1112basic_stringIcSt11char_traitsIcESaIcEEC1IS3_EEPKcRKS3_>
    4e30:	48 8d 85 70 fd ff ff 	lea    -0x290(%rbp),%rax
    4e37:	48 89 c7             	mov    %rax,%rdi
    4e3a:	e8 99 1e 00 00       	call   6cd8 <_ZNSt15__new_allocatorIcED1Ev>
    4e3f:	90                   	nop
    4e40:	4c 8d ad c0 fd ff ff 	lea    -0x240(%rbp),%r13
    4e47:	bb 03 00 00 00       	mov    $0x3,%ebx
    4e4c:	48 8d 85 a0 fd ff ff 	lea    -0x260(%rbp),%rax
    4e53:	48 8d 15 d0 72 00 00 	lea    0x72d0(%rip),%rdx        # c12a <_ZSt19piecewise_construct+0x126>
    4e5a:	48 89 c6             	mov    %rax,%rsi
    4e5d:	4c 89 ef             	mov    %r13,%rdi
    4e60:	e8 ab 19 00 00       	call   6810 <_ZStplIcSt11char_traitsIcESaIcEENSt7__cxx1112basic_stringIT_T0_T1_EERKS8_PKS5_>
    4e65:	4d 8d 65 20          	lea    0x20(%r13),%r12
    4e69:	48 83 eb 01          	sub    $0x1,%rbx
    4e6d:	48 8d 85 a0 fd ff ff 	lea    -0x260(%rbp),%rax
    4e74:	48 8d 15 ba 72 00 00 	lea    0x72ba(%rip),%rdx        # c135 <_ZSt19piecewise_construct+0x131>
    4e7b:	48 89 c6             	mov    %rax,%rsi
    4e7e:	4c 89 e7             	mov    %r12,%rdi
    4e81:	e8 8a 19 00 00       	call   6810 <_ZStplIcSt11char_traitsIcESaIcEENSt7__cxx1112basic_stringIT_T0_T1_EERKS8_PKS5_>
    4e86:	49 83 c4 20          	add    $0x20,%r12
    4e8a:	48 83 eb 01          	sub    $0x1,%rbx
    4e8e:	48 8d 85 a0 fd ff ff 	lea    -0x260(%rbp),%rax
    4e95:	48 8d 15 a0 72 00 00 	lea    0x72a0(%rip),%rdx        # c13c <_ZSt19piecewise_construct+0x138>
    4e9c:	48 89 c6             	mov    %rax,%rsi
    4e9f:	4c 89 e7             	mov    %r12,%rdi
    4ea2:	e8 69 19 00 00       	call   6810 <_ZStplIcSt11char_traitsIcESaIcEENSt7__cxx1112basic_stringIT_T0_T1_EERKS8_PKS5_>
    4ea7:	49 8d 4c 24 20       	lea    0x20(%r12),%rcx
    4eac:	48 83 eb 01          	sub    $0x1,%rbx
    4eb0:	48 8d 85 a0 fd ff ff 	lea    -0x260(%rbp),%rax
    4eb7:	48 8d 15 8b 72 00 00 	lea    0x728b(%rip),%rdx        # c149 <_ZSt19piecewise_construct+0x145>
    4ebe:	48 89 c6             	mov    %rax,%rsi
    4ec1:	48 89 cf             	mov    %rcx,%rdi
    4ec4:	e8 47 19 00 00       	call   6810 <_ZStplIcSt11char_traitsIcESaIcEENSt7__cxx1112basic_stringIT_T0_T1_EERKS8_PKS5_>
    4ec9:	bb 03 00 00 00       	mov    $0x3,%ebx
    4ece:	48 8d 85 c0 fd ff ff 	lea    -0x240(%rbp),%rax
    4ed5:	49 89 c6             	mov    %rax,%r14
    4ed8:	41 bf 04 00 00 00    	mov    $0x4,%r15d
    4ede:	48 8d 85 70 fd ff ff 	lea    -0x290(%rbp),%rax
    4ee5:	48 89 85 e0 fc ff ff 	mov    %rax,-0x320(%rbp)
    4eec:	90                   	nop
    4eed:	90                   	nop
    4eee:	48 8d 95 70 fd ff ff 	lea    -0x290(%rbp),%rdx
    4ef5:	4c 89 f6             	mov    %r14,%rsi
    4ef8:	4c 89 ff             	mov    %r15,%rdi
    4efb:	4d 89 f0             	mov    %r14,%r8
    4efe:	4d 89 f9             	mov    %r15,%r9
    4f01:	4c 89 cf             	mov    %r9,%rdi
    4f04:	48 8d 85 f0 fc ff ff 	lea    -0x310(%rbp),%rax
    4f0b:	48 89 d1             	mov    %rdx,%rcx
    4f0e:	48 89 fa             	mov    %rdi,%rdx
    4f11:	48 89 c7             	mov    %rax,%rdi
    4f14:	e8 e5 19 00 00       	call   68fe <_ZNSt6vectorINSt7__cxx1112basic_stringIcSt11char_traitsIcESaIcEEESaIS5_EEC1ESt16initializer_listIS5_ERKS6_>
    4f19:	48 8d 85 70 fd ff ff 	lea    -0x290(%rbp),%rax
    4f20:	48 89 c7             	mov    %rax,%rdi
    4f23:	e8 f4 28 00 00       	call   781c <_ZNSt15__new_allocatorINSt7__cxx1112basic_stringIcSt11char_traitsIcESaIcEEEED1Ev>
    4f28:	90                   	nop
    4f29:	48 8d 9d c0 fd ff ff 	lea    -0x240(%rbp),%rbx
    4f30:	48 83 eb 80          	sub    $0xffffffffffffff80,%rbx
    4f34:	48 8d 85 c0 fd ff ff 	lea    -0x240(%rbp),%rax
    4f3b:	48 39 c3             	cmp    %rax,%rbx
    4f3e:	74 0e                	je     4f4e <main+0x17f>
    4f40:	48 83 eb 20          	sub    $0x20,%rbx
    4f44:	48 89 df             	mov    %rbx,%rdi
    4f47:	e8 a4 e6 ff ff       	call   35f0 <_init+0x5f0>
    4f4c:	eb e6                	jmp    4f34 <main+0x165>
    4f4e:	48 8d 05 00 72 00 00 	lea    0x7200(%rip),%rax        # c155 <_ZSt19piecewise_construct+0x151>
    4f55:	48 89 85 c0 fd ff ff 	mov    %rax,-0x240(%rbp)
    4f5c:	48 8d 05 fd 71 00 00 	lea    0x71fd(%rip),%rax        # c160 <_ZSt19piecewise_construct+0x15c>
    4f63:	48 89 85 c8 fd ff ff 	mov    %rax,-0x238(%rbp)
    4f6a:	48 8d 05 fa 71 00 00 	lea    0x71fa(%rip),%rax        # c16b <_ZSt19piecewise_construct+0x167>
    4f71:	48 89 85 d0 fd ff ff 	mov    %rax,-0x230(%rbp)
    4f78:	48 8d 05 f9 71 00 00 	lea    0x71f9(%rip),%rax        # c178 <_ZSt19piecewise_construct+0x174>
    4f7f:	48 89 85 d8 fd ff ff 	mov    %rax,-0x228(%rbp)
    4f86:	48 8d 85 c0 fd ff ff 	lea    -0x240(%rbp),%rax
    4f8d:	48 83 c0 20          	add    $0x20,%rax
    4f91:	48 8d b5 c0 fd ff ff 	lea    -0x240(%rbp),%rsi
    4f98:	48 8d 8d 70 fd ff ff 	lea    -0x290(%rbp),%rcx
    4f9f:	48 89 c2             	mov    %rax,%rdx
    4fa2:	48 89 cf             	mov    %rcx,%rdi
    4fa5:	e8 62 1a 00 00       	call   6a0c <_ZNSt3setINSt7__cxx1112basic_stringIcSt11char_traitsIcESaIcEEESt4lessIS5_ESaIS5_EEC1IPKPKcEET_SF_>
    4faa:	48 8d 85 50 fd ff ff 	lea    -0x2b0(%rbp),%rax
    4fb1:	48 89 85 e8 fc ff ff 	mov    %rax,-0x318(%rbp)
    4fb8:	90                   	nop
    4fb9:	90                   	nop
    4fba:	48 8d 95 50 fd ff ff 	lea    -0x2b0(%rbp),%rdx
    4fc1:	48 8d 85 c0 fd ff ff 	lea    -0x240(%rbp),%rax
    4fc8:	48 8d 0d b9 71 00 00 	lea    0x71b9(%rip),%rcx        # c188 <_ZSt19piecewise_construct+0x184>
    4fcf:	48 89 ce             	mov    %rcx,%rsi
    4fd2:	48 89 c7             	mov    %rax,%rdi
    4fd5:	e8 18 13 00 00       	call   62f2 <_ZNSt7__cxx1112basic_stringIcSt11char_traitsIcESaIcEEC1IS3_EEPKcRKS3_>
    4fda:	48 8d 85 10 fd ff ff 	lea    -0x2f0(%rbp),%rax
    4fe1:	48 8d 95 70 fd ff ff 	lea    -0x290(%rbp),%rdx
    4fe8:	48 8d 8d c0 fd ff ff 	lea    -0x240(%rbp),%rcx
    4fef:	48 89 ce             	mov    %rcx,%rsi
    4ff2:	48 89 c7             	mov    %rax,%rdi
    4ff5:	e8 92 f8 ff ff       	call   488c <_Z23obtenerURLsDesdeArchivoRKNSt7__cxx1112basic_stringIcSt11char_traitsIcESaIcEEERKSt3setIS4_St4lessIS4_ESaIS4_EE>
    4ffa:	48 8d 85 c0 fd ff ff 	lea    -0x240(%rbp),%rax
    5001:	48 89 c7             	mov    %rax,%rdi
    5004:	e8 e7 e5 ff ff       	call   35f0 <_init+0x5f0>
    5009:	48 8d 85 50 fd ff ff 	lea    -0x2b0(%rbp),%rax
    5010:	48 89 c7             	mov    %rax,%rdi
    5013:	e8 c0 1c 00 00       	call   6cd8 <_ZNSt15__new_allocatorIcED1Ev>
    5018:	90                   	nop
    5019:	48 8d 85 30 fd ff ff 	lea    -0x2d0(%rbp),%rax
    5020:	48 89 c7             	mov    %rax,%rdi
    5023:	e8 de 0b 00 00       	call   5c06 <_ZNSt6vectorINSt7__cxx1112basic_stringIcSt11char_traitsIcESaIcEEESaIS5_EEC1Ev>
    5028:	48 8d 85 f0 fc ff ff 	lea    -0x310(%rbp),%rax
    502f:	48 89 c7             	mov    %rax,%rdi
    5032:	e8 89 1a 00 00       	call   6ac0 <_ZNKSt6vectorINSt7__cxx1112basic_stringIcSt11char_traitsIcESaIcEEESaIS5_EE4sizeEv>
    5037:	89 c3                	mov    %eax,%ebx
    5039:	48 8d 85 10 fd ff ff 	lea    -0x2f0(%rbp),%rax
    5040:	48 89 c7             	mov    %rax,%rdi
    5043:	e8 78 1a 00 00       	call   6ac0 <_ZNKSt6vectorINSt7__cxx1112basic_stringIcSt11char_traitsIcESaIcEEESaIS5_EE4sizeEv>
    5048:	01 d8                	add    %ebx,%eax
    504a:	89 85 cc fc ff ff    	mov    %eax,-0x334(%rbp)
    5050:	8b 85 cc fc ff ff    	mov    -0x334(%rbp),%eax
    5056:	89 85 68 fd ff ff    	mov    %eax,-0x298(%rbp)
    505c:	48 8d 85 f0 fc ff ff 	lea    -0x310(%rbp),%rax
    5063:	48 89 85 50 fd ff ff 	mov    %rax,-0x2b0(%rbp)
    506a:	48 8d 85 10 fd ff ff 	lea    -0x2f0(%rbp),%rax
    5071:	48 89 85 58 fd ff ff 	mov    %rax,-0x2a8(%rbp)
    5078:	48 8d 85 30 fd ff ff 	lea    -0x2d0(%rbp),%rax
    507f:	48 89 85 60 fd ff ff 	mov    %rax,-0x2a0(%rbp)
    5086:	48 8d 85 50 fd ff ff 	lea    -0x2b0(%rbp),%rax
    508d:	b9 00 00 00 00       	mov    $0x0,%ecx
    5092:	ba 00 00 00 00       	mov    $0x0,%edx
    5097:	48 89 c6             	mov    %rax,%rsi
    509a:	48 8d 05 51 03 00 00 	lea    0x351(%rip),%rax        # 53f2 <main._omp_fn.0>
    50a1:	48 89 c7             	mov    %rax,%rdi
    50a4:	e8 c7 e7 ff ff       	call   3870 <_init+0x870>
    50a9:	48 8d 85 c0 fd ff ff 	lea    -0x240(%rbp),%rax
    50b0:	ba 10 00 00 00       	mov    $0x10,%edx
    50b5:	48 8d 0d dc 70 00 00 	lea    0x70dc(%rip),%rcx        # c198 <_ZSt19piecewise_construct+0x194>
    50bc:	48 89 ce             	mov    %rcx,%rsi
    50bf:	48 89 c7             	mov    %rax,%rdi
    50c2:	e8 89 e6 ff ff       	call   3750 <_init+0x750>
    50c7:	48 8d 85 c0 fd ff ff 	lea    -0x240(%rbp),%rax
    50ce:	48 8d 15 e4 70 00 00 	lea    0x70e4(%rip),%rdx        # c1b9 <_ZSt19piecewise_construct+0x1b5>
    50d5:	48 89 d6             	mov    %rdx,%rsi
    50d8:	48 89 c7             	mov    %rax,%rdi
    50db:	e8 f0 e5 ff ff       	call   36d0 <_init+0x6d0>
    50e0:	48 c7 85 d0 fc ff ff 	movq   $0x0,-0x330(%rbp)
    50e7:	00 00 00 00 
    50eb:	e9 89 00 00 00       	jmp    5179 <main+0x3aa>
    50f0:	48 8b 95 d0 fc ff ff 	mov    -0x330(%rbp),%rdx
    50f7:	48 8d 85 30 fd ff ff 	lea    -0x2d0(%rbp),%rax
    50fe:	48 89 d6             	mov    %rdx,%rsi
    5101:	48 89 c7             	mov    %rax,%rdi
    5104:	e8 df 19 00 00       	call   6ae8 <_ZNSt6vectorINSt7__cxx1112basic_stringIcSt11char_traitsIcESaIcEEESaIS5_EEixEm>
    5109:	48 89 c2             	mov    %rax,%rdx
    510c:	48 8d 85 c0 fd ff ff 	lea    -0x240(%rbp),%rax
    5113:	48 89 d6             	mov    %rdx,%rsi
    5116:	48 89 c7             	mov    %rax,%rdi
    5119:	e8 82 e5 ff ff       	call   36a0 <_init+0x6a0>
    511e:	48 8d 85 30 fd ff ff 	lea    -0x2d0(%rbp),%rax
    5125:	48 89 c7             	mov    %rax,%rdi
    5128:	e8 93 19 00 00       	call   6ac0 <_ZNKSt6vectorINSt7__cxx1112basic_stringIcSt11char_traitsIcESaIcEEESaIS5_EE4sizeEv>
    512d:	48 83 e8 01          	sub    $0x1,%rax
    5131:	48 39 85 d0 fc ff ff 	cmp    %rax,-0x330(%rbp)
    5138:	0f 95 c0             	setne  %al
    513b:	84 c0                	test   %al,%al
    513d:	74 19                	je     5158 <main+0x389>
    513f:	48 8d 85 c0 fd ff ff 	lea    -0x240(%rbp),%rax
    5146:	48 8d 15 6f 70 00 00 	lea    0x706f(%rip),%rdx        # c1bc <_ZSt19piecewise_construct+0x1b8>
    514d:	48 89 d6             	mov    %rdx,%rsi
    5150:	48 89 c7             	mov    %rax,%rdi
    5153:	e8 78 e5 ff ff       	call   36d0 <_init+0x6d0>
    5158:	48 8d 85 c0 fd ff ff 	lea    -0x240(%rbp),%rax
    515f:	48 8d 15 58 70 00 00 	lea    0x7058(%rip),%rdx        # c1be <_ZSt19piecewise_construct+0x1ba>
    5166:	48 89 d6             	mov    %rdx,%rsi
    5169:	48 89 c7             	mov    %rax,%rdi
    516c:	e8 5f e5 ff ff       	call   36d0 <_init+0x6d0>
    5171:	48 83 85 d0 fc ff ff 	addq   $0x1,-0x330(%rbp)
    5178:	01 
    5179:	48 8d 85 30 fd ff ff 	lea    -0x2d0(%rbp),%rax
    5180:	48 89 c7             	mov    %rax,%rdi
    5183:	e8 38 19 00 00       	call   6ac0 <_ZNKSt6vectorINSt7__cxx1112basic_stringIcSt11char_traitsIcESaIcEEESaIS5_EE4sizeEv>
    5188:	48 39 85 d0 fc ff ff 	cmp    %rax,-0x330(%rbp)
    518f:	0f 92 c0             	setb   %al
    5192:	84 c0                	test   %al,%al
    5194:	0f 85 56 ff ff ff    	jne    50f0 <main+0x321>
    519a:	48 8d 85 c0 fd ff ff 	lea    -0x240(%rbp),%rax
    51a1:	48 8d 15 18 70 00 00 	lea    0x7018(%rip),%rdx        # c1c0 <_ZSt19piecewise_construct+0x1bc>
    51a8:	48 89 d6             	mov    %rdx,%rsi
    51ab:	48 89 c7             	mov    %rax,%rdi
    51ae:	e8 1d e5 ff ff       	call   36d0 <_init+0x6d0>
    51b3:	48 8d 85 c0 fd ff ff 	lea    -0x240(%rbp),%rax
    51ba:	48 89 c7             	mov    %rax,%rdi
    51bd:	e8 6e e6 ff ff       	call   3830 <_init+0x830>
    51c2:	48 8d 05 ff 6f 00 00 	lea    0x6fff(%rip),%rax        # c1c8 <_ZSt19piecewise_construct+0x1c4>
    51c9:	48 89 c6             	mov    %rax,%rsi
    51cc:	48 8d 05 6d be 00 00 	lea    0xbe6d(%rip),%rax        # 11040 <_ZSt4cout@GLIBCXX_3.4>
    51d3:	48 89 c7             	mov    %rax,%rdi
    51d6:	e8 f5 e4 ff ff       	call   36d0 <_init+0x6d0>
    51db:	48 8b 15 f6 bd 00 00 	mov    0xbdf6(%rip),%rdx        # 10fd8 <_ZSt4endlIcSt11char_traitsIcEERSt13basic_ostreamIT_T0_ES6_@GLIBCXX_3.4>
    51e2:	48 89 d6             	mov    %rdx,%rsi
    51e5:	48 89 c7             	mov    %rax,%rdi
    51e8:	e8 43 e5 ff ff       	call   3730 <_init+0x730>
    51ed:	bb 00 00 00 00       	mov    $0x0,%ebx
    51f2:	48 8d 85 c0 fd ff ff 	lea    -0x240(%rbp),%rax
    51f9:	48 89 c7             	mov    %rax,%rdi
    51fc:	e8 5f e6 ff ff       	call   3860 <_init+0x860>
    5201:	48 8d 85 30 fd ff ff 	lea    -0x2d0(%rbp),%rax
    5208:	48 89 c7             	mov    %rax,%rdi
    520b:	e8 30 12 00 00       	call   6440 <_ZNSt6vectorINSt7__cxx1112basic_stringIcSt11char_traitsIcESaIcEEESaIS5_EED1Ev>
    5210:	48 8d 85 10 fd ff ff 	lea    -0x2f0(%rbp),%rax
    5217:	48 89 c7             	mov    %rax,%rdi
    521a:	e8 21 12 00 00       	call   6440 <_ZNSt6vectorINSt7__cxx1112basic_stringIcSt11char_traitsIcESaIcEEESaIS5_EED1Ev>
    521f:	48 8d 85 70 fd ff ff 	lea    -0x290(%rbp),%rax
    5226:	48 89 c7             	mov    %rax,%rdi
    5229:	e8 f8 09 00 00       	call   5c26 <_ZNSt3setINSt7__cxx1112basic_stringIcSt11char_traitsIcESaIcEEESt4lessIS5_ESaIS5_EED1Ev>
    522e:	48 8d 85 f0 fc ff ff 	lea    -0x310(%rbp),%rax
    5235:	48 89 c7             	mov    %rax,%rdi
    5238:	e8 03 12 00 00       	call   6440 <_ZNSt6vectorINSt7__cxx1112basic_stringIcSt11char_traitsIcESaIcEEESaIS5_EED1Ev>
    523d:	48 8d 85 a0 fd ff ff 	lea    -0x260(%rbp),%rax
    5244:	48 89 c7             	mov    %rax,%rdi
    5247:	e8 a4 e3 ff ff       	call   35f0 <_init+0x5f0>
    524c:	89 d8                	mov    %ebx,%eax
    524e:	48 8b 55 c8          	mov    -0x38(%rbp),%rdx
    5252:	64 48 2b 14 25 28 00 	sub    %fs:0x28,%rdx
    5259:	00 00 
    525b:	0f 84 7f 01 00 00    	je     53e0 <main+0x611>
    5261:	e9 75 01 00 00       	jmp    53db <main+0x60c>
    5266:	f3 0f 1e fa          	endbr64 
    526a:	48 89 c3             	mov    %rax,%rbx
    526d:	48 8d 85 70 fd ff ff 	lea    -0x290(%rbp),%rax
    5274:	48 89 c7             	mov    %rax,%rdi
    5277:	e8 5c 1a 00 00       	call   6cd8 <_ZNSt15__new_allocatorIcED1Ev>
    527c:	90                   	nop
    527d:	48 89 d8             	mov    %rbx,%rax
    5280:	48 8b 55 c8          	mov    -0x38(%rbp),%rdx
    5284:	64 48 2b 14 25 28 00 	sub    %fs:0x28,%rdx
    528b:	00 00 
    528d:	74 05                	je     5294 <main+0x4c5>
    528f:	e8 ec e4 ff ff       	call   3780 <_init+0x780>
    5294:	48 89 c7             	mov    %rax,%rdi
    5297:	e8 74 e6 ff ff       	call   3910 <_init+0x910>
    529c:	f3 0f 1e fa          	endbr64 
    52a0:	49 89 c4             	mov    %rax,%r12
    52a3:	48 8d 85 70 fd ff ff 	lea    -0x290(%rbp),%rax
    52aa:	48 89 c7             	mov    %rax,%rdi
    52ad:	e8 6a 25 00 00       	call   781c <_ZNSt15__new_allocatorINSt7__cxx1112basic_stringIcSt11char_traitsIcESaIcEEEED1Ev>
    52b2:	90                   	nop
    52b3:	4d 89 e6             	mov    %r12,%r14
    52b6:	4c 8d a5 c0 fd ff ff 	lea    -0x240(%rbp),%r12
    52bd:	49 83 ec 80          	sub    $0xffffffffffffff80,%r12
    52c1:	48 8d 85 c0 fd ff ff 	lea    -0x240(%rbp),%rax
    52c8:	49 39 c4             	cmp    %rax,%r12
    52cb:	74 0e                	je     52db <main+0x50c>
    52cd:	49 83 ec 20          	sub    $0x20,%r12
    52d1:	4c 89 e7             	mov    %r12,%rdi
    52d4:	e8 17 e3 ff ff       	call   35f0 <_init+0x5f0>
    52d9:	eb e6                	jmp    52c1 <main+0x4f2>
    52db:	4d 89 f4             	mov    %r14,%r12
    52de:	eb 07                	jmp    52e7 <main+0x518>
    52e0:	f3 0f 1e fa          	endbr64 
    52e4:	49 89 c4             	mov    %rax,%r12
    52e7:	4d 85 ed             	test   %r13,%r13
    52ea:	74 24                	je     5310 <main+0x541>
    52ec:	b8 03 00 00 00       	mov    $0x3,%eax
    52f1:	48 29 d8             	sub    %rbx,%rax
    52f4:	48 c1 e0 05          	shl    $0x5,%rax
    52f8:	49 8d 5c 05 00       	lea    0x0(%r13,%rax,1),%rbx
    52fd:	4c 39 eb             	cmp    %r13,%rbx
    5300:	74 0e                	je     5310 <main+0x541>
    5302:	48 83 eb 20          	sub    $0x20,%rbx
    5306:	48 89 df             	mov    %rbx,%rdi
    5309:	e8 e2 e2 ff ff       	call   35f0 <_init+0x5f0>
    530e:	eb ed                	jmp    52fd <main+0x52e>
    5310:	4c 89 e3             	mov    %r12,%rbx
    5313:	e9 95 00 00 00       	jmp    53ad <main+0x5de>
    5318:	f3 0f 1e fa          	endbr64 
    531c:	48 89 c3             	mov    %rax,%rbx
    531f:	48 8d 85 c0 fd ff ff 	lea    -0x240(%rbp),%rax
    5326:	48 89 c7             	mov    %rax,%rdi
    5329:	e8 c2 e2 ff ff       	call   35f0 <_init+0x5f0>
    532e:	eb 07                	jmp    5337 <main+0x568>
    5330:	f3 0f 1e fa          	endbr64 
    5334:	48 89 c3             	mov    %rax,%rbx
    5337:	48 8d 85 50 fd ff ff 	lea    -0x2b0(%rbp),%rax
    533e:	48 89 c7             	mov    %rax,%rdi
    5341:	e8 92 19 00 00       	call   6cd8 <_ZNSt15__new_allocatorIcED1Ev>
    5346:	90                   	nop
    5347:	eb 3d                	jmp    5386 <main+0x5b7>
    5349:	f3 0f 1e fa          	endbr64 
    534d:	48 89 c3             	mov    %rax,%rbx
    5350:	48 8d 85 c0 fd ff ff 	lea    -0x240(%rbp),%rax
    5357:	48 89 c7             	mov    %rax,%rdi
    535a:	e8 01 e5 ff ff       	call   3860 <_init+0x860>
    535f:	eb 07                	jmp    5368 <main+0x599>
    5361:	f3 0f 1e fa          	endbr64 
    5365:	48 89 c3             	mov    %rax,%rbx
    5368:	48 8d 85 30 fd ff ff 	lea    -0x2d0(%rbp),%rax
    536f:	48 89 c7             	mov    %rax,%rdi
    5372:	e8 c9 10 00 00       	call   6440 <_ZNSt6vectorINSt7__cxx1112basic_stringIcSt11char_traitsIcESaIcEEESaIS5_EED1Ev>
    5377:	48 8d 85 10 fd ff ff 	lea    -0x2f0(%rbp),%rax
    537e:	48 89 c7             	mov    %rax,%rdi
    5381:	e8 ba 10 00 00       	call   6440 <_ZNSt6vectorINSt7__cxx1112basic_stringIcSt11char_traitsIcESaIcEEESaIS5_EED1Ev>
    5386:	48 8d 85 70 fd ff ff 	lea    -0x290(%rbp),%rax
    538d:	48 89 c7             	mov    %rax,%rdi
    5390:	e8 91 08 00 00       	call   5c26 <_ZNSt3setINSt7__cxx1112basic_stringIcSt11char_traitsIcESaIcEEESt4lessIS5_ESaIS5_EED1Ev>
    5395:	eb 07                	jmp    539e <main+0x5cf>
    5397:	f3 0f 1e fa          	endbr64 
    539b:	48 89 c3             	mov    %rax,%rbx
    539e:	48 8d 85 f0 fc ff ff 	lea    -0x310(%rbp),%rax
    53a5:	48 89 c7             	mov    %rax,%rdi
    53a8:	e8 93 10 00 00       	call   6440 <_ZNSt6vectorINSt7__cxx1112basic_stringIcSt11char_traitsIcESaIcEEESaIS5_EED1Ev>
    53ad:	48 8d 85 a0 fd ff ff 	lea    -0x260(%rbp),%rax
    53b4:	48 89 c7             	mov    %rax,%rdi
    53b7:	e8 34 e2 ff ff       	call   35f0 <_init+0x5f0>
    53bc:	48 89 d8             	mov    %rbx,%rax
    53bf:	48 8b 55 c8          	mov    -0x38(%rbp),%rdx
    53c3:	64 48 2b 14 25 28 00 	sub    %fs:0x28,%rdx
    53ca:	00 00 
    53cc:	74 05                	je     53d3 <main+0x604>
    53ce:	e8 ad e3 ff ff       	call   3780 <_init+0x780>
    53d3:	48 89 c7             	mov    %rax,%rdi
    53d6:	e8 35 e5 ff ff       	call   3910 <_init+0x910>
    53db:	e8 a0 e3 ff ff       	call   3780 <_init+0x780>
    53e0:	48 81 c4 18 03 00 00 	add    $0x318,%rsp
    53e7:	5b                   	pop    %rbx
    53e8:	41 5c                	pop    %r12
    53ea:	41 5d                	pop    %r13
    53ec:	41 5e                	pop    %r14
    53ee:	41 5f                	pop    %r15
    53f0:	5d                   	pop    %rbp
    53f1:	c3                   	ret    

00000000000053f2 <main._omp_fn.0>:
    53f2:	f3 0f 1e fa          	endbr64 
    53f6:	55                   	push   %rbp
    53f7:	48 89 e5             	mov    %rsp,%rbp
    53fa:	41 54                	push   %r12
    53fc:	53                   	push   %rbx
    53fd:	48 81 ec c0 00 00 00 	sub    $0xc0,%rsp
    5404:	48 89 bd 38 ff ff ff 	mov    %rdi,-0xc8(%rbp)
    540b:	64 48 8b 04 25 28 00 	mov    %fs:0x28,%rax
    5412:	00 00 
    5414:	48 89 45 e8          	mov    %rax,-0x18(%rbp)
    5418:	31 c0                	xor    %eax,%eax
    541a:	48 8b 85 38 ff ff ff 	mov    -0xc8(%rbp),%rax
    5421:	8b 40 18             	mov    0x18(%rax),%eax
    5424:	89 85 48 ff ff ff    	mov    %eax,-0xb8(%rbp)
    542a:	8b 85 48 ff ff ff    	mov    -0xb8(%rbp),%eax
    5430:	48 98                	cltq   
    5432:	48 8d 8d 58 ff ff ff 	lea    -0xa8(%rbp),%rcx
    5439:	48 8d 95 50 ff ff ff 	lea    -0xb0(%rbp),%rdx
    5440:	49 89 c9             	mov    %rcx,%r9
    5443:	49 89 d0             	mov    %rdx,%r8
    5446:	b9 01 00 00 00       	mov    $0x1,%ecx
    544b:	ba 01 00 00 00       	mov    $0x1,%edx
    5450:	48 89 c6             	mov    %rax,%rsi
    5453:	bf 00 00 00 00       	mov    $0x0,%edi
    5458:	e8 73 e4 ff ff       	call   38d0 <_init+0x8d0>
    545d:	84 c0                	test   %al,%al
    545f:	0f 84 3d 03 00 00    	je     57a2 <main._omp_fn.0+0x3b0>
    5465:	48 8b 85 50 ff ff ff 	mov    -0xb0(%rbp),%rax
    546c:	89 85 44 ff ff ff    	mov    %eax,-0xbc(%rbp)
    5472:	48 8b 85 58 ff ff ff 	mov    -0xa8(%rbp),%rax
    5479:	41 89 c4             	mov    %eax,%r12d
    547c:	e8 1f e4 ff ff       	call   38a0 <_init+0x8a0>
    5481:	89 85 4c ff ff ff    	mov    %eax,-0xb4(%rbp)
    5487:	48 8d 45 80          	lea    -0x80(%rbp),%rax
    548b:	48 89 c7             	mov    %rax,%rdi
    548e:	e8 2f 06 00 00       	call   5ac2 <_ZNSt6vectorISt3mapINSt7__cxx1112basic_stringIcSt11char_traitsIcESaIcEEES6_St4lessIS6_ESaISt4pairIKS6_S6_EEESaISD_EEC1Ev>
    5493:	48 8b 85 38 ff ff ff 	mov    -0xc8(%rbp),%rax
    549a:	48 8b 00             	mov    (%rax),%rax
    549d:	48 89 c7             	mov    %rax,%rdi
    54a0:	e8 1b 16 00 00       	call   6ac0 <_ZNKSt6vectorINSt7__cxx1112basic_stringIcSt11char_traitsIcESaIcEEESaIS5_EE4sizeEv>
    54a5:	3b 85 44 ff ff ff    	cmp    -0xbc(%rbp),%eax
    54ab:	0f 9f c0             	setg   %al
    54ae:	84 c0                	test   %al,%al
    54b0:	0f 85 19 02 00 00    	jne    56cf <main._omp_fn.0+0x2dd>
    54b6:	e9 23 01 00 00       	jmp    55de <main._omp_fn.0+0x1ec>
    54bb:	48 8d 45 80          	lea    -0x80(%rbp),%rax
    54bf:	48 89 85 70 ff ff ff 	mov    %rax,-0x90(%rbp)
    54c6:	48 8b 85 70 ff ff ff 	mov    -0x90(%rbp),%rax
    54cd:	48 89 c7             	mov    %rax,%rdi
    54d0:	e8 73 16 00 00       	call   6b48 <_ZNSt6vectorISt3mapINSt7__cxx1112basic_stringIcSt11char_traitsIcESaIcEEES6_St4lessIS6_ESaISt4pairIKS6_S6_EEESaISD_EE5beginEv>
    54d5:	48 89 85 60 ff ff ff 	mov    %rax,-0xa0(%rbp)
    54dc:	48 8b 85 70 ff ff ff 	mov    -0x90(%rbp),%rax
    54e3:	48 89 c7             	mov    %rax,%rdi
    54e6:	e8 a9 16 00 00       	call   6b94 <_ZNSt6vectorISt3mapINSt7__cxx1112basic_stringIcSt11char_traitsIcESaIcEEES6_St4lessIS6_ESaISt4pairIKS6_S6_EEESaISD_EE3endEv>
    54eb:	48 89 85 68 ff ff ff 	mov    %rax,-0x98(%rbp)
    54f2:	90                   	nop
    54f3:	48 8d 95 68 ff ff ff 	lea    -0x98(%rbp),%rdx
    54fa:	48 8d 85 60 ff ff ff 	lea    -0xa0(%rbp),%rax
    5501:	48 89 d6             	mov    %rdx,%rsi
    5504:	48 89 c7             	mov    %rax,%rdi
    5507:	e8 d8 16 00 00       	call   6be4 <_ZN9__gnu_cxxneIPSt3mapINSt7__cxx1112basic_stringIcSt11char_traitsIcESaIcEEES7_St4lessIS7_ESaISt4pairIKS7_S7_EEESt6vectorISE_SaISE_EEEEbRKNS_17__normal_iteratorIT_T0_EESO_>
    550c:	84 c0                	test   %al,%al
    550e:	75 46                	jne    5556 <main._omp_fn.0+0x164>
    5510:	48 8d 45 80          	lea    -0x80(%rbp),%rax
    5514:	48 89 c7             	mov    %rax,%rdi
    5517:	e8 c8 08 00 00       	call   5de4 <_ZNSt6vectorISt3mapINSt7__cxx1112basic_stringIcSt11char_traitsIcESaIcEEES6_St4lessIS6_ESaISt4pairIKS6_S6_EEESaISD_EED1Ev>
    551c:	83 85 44 ff ff ff 01 	addl   $0x1,-0xbc(%rbp)
    5523:	44 39 a5 44 ff ff ff 	cmp    %r12d,-0xbc(%rbp)
    552a:	0f 8c 4c ff ff ff    	jl     547c <main._omp_fn.0+0x8a>
    5530:	48 8d 95 58 ff ff ff 	lea    -0xa8(%rbp),%rdx
    5537:	48 8d 85 50 ff ff ff 	lea    -0xb0(%rbp),%rax
    553e:	48 89 d6             	mov    %rdx,%rsi
    5541:	48 89 c7             	mov    %rax,%rdi
    5544:	e8 87 e2 ff ff       	call   37d0 <_init+0x7d0>
    5549:	84 c0                	test   %al,%al
    554b:	0f 85 14 ff ff ff    	jne    5465 <main._omp_fn.0+0x73>
    5551:	e9 4c 02 00 00       	jmp    57a2 <main._omp_fn.0+0x3b0>
    5556:	48 8d 85 60 ff ff ff 	lea    -0xa0(%rbp),%rax
    555d:	48 89 c7             	mov    %rax,%rdi
    5560:	e8 e3 16 00 00       	call   6c48 <_ZNK9__gnu_cxx17__normal_iteratorIPSt3mapINSt7__cxx1112basic_stringIcSt11char_traitsIcESaIcEEES7_St4lessIS7_ESaISt4pairIKS7_S7_EEESt6vectorISE_SaISE_EEEdeEv>
    5565:	48 89 85 78 ff ff ff 	mov    %rax,-0x88(%rbp)
    556c:	48 8d 45 c0          	lea    -0x40(%rbp),%rax
    5570:	48 8b 95 78 ff ff ff 	mov    -0x88(%rbp),%rdx
    5577:	48 89 d6             	mov    %rdx,%rsi
    557a:	48 89 c7             	mov    %rax,%rdi
    557d:	e8 1f eb ff ff       	call   40a1 <_Z19generarProductoJSONRKSt3mapINSt7__cxx1112basic_stringIcSt11char_traitsIcESaIcEEES5_St4lessIS5_ESaISt4pairIKS5_S5_EEE>
    5582:	48 8d 45 a0          	lea    -0x60(%rbp),%rax
    5586:	48 8d 15 f3 bc 00 00 	lea    0xbcf3(%rip),%rdx        # 11280 <mutex_json>
    558d:	48 89 d6             	mov    %rdx,%rsi
    5590:	48 89 c7             	mov    %rax,%rdi
    5593:	e8 c6 16 00 00       	call   6c5e <_ZNSt10lock_guardISt5mutexEC1ERS0_>
    5598:	48 8b 85 38 ff ff ff 	mov    -0xc8(%rbp),%rax
    559f:	48 8b 40 10          	mov    0x10(%rax),%rax
    55a3:	48 8d 55 c0          	lea    -0x40(%rbp),%rdx
    55a7:	48 89 d6             	mov    %rdx,%rsi
    55aa:	48 89 c7             	mov    %rax,%rdi
    55ad:	e8 08 11 00 00       	call   66ba <_ZNSt6vectorINSt7__cxx1112basic_stringIcSt11char_traitsIcESaIcEEESaIS5_EE9push_backERKS5_>
    55b2:	48 8d 45 a0          	lea    -0x60(%rbp),%rax
    55b6:	48 89 c7             	mov    %rax,%rdi
    55b9:	e8 d2 16 00 00       	call   6c90 <_ZNSt10lock_guardISt5mutexED1Ev>
    55be:	48 8d 45 c0          	lea    -0x40(%rbp),%rax
    55c2:	48 89 c7             	mov    %rax,%rdi
    55c5:	e8 26 e0 ff ff       	call   35f0 <_init+0x5f0>
    55ca:	48 8d 85 60 ff ff ff 	lea    -0xa0(%rbp),%rax
    55d1:	48 89 c7             	mov    %rax,%rdi
    55d4:	e8 4b 16 00 00       	call   6c24 <_ZN9__gnu_cxx17__normal_iteratorIPSt3mapINSt7__cxx1112basic_stringIcSt11char_traitsIcESaIcEEES7_St4lessIS7_ESaISt4pairIKS7_S7_EEESt6vectorISE_SaISE_EEEppEv>
    55d9:	e9 15 ff ff ff       	jmp    54f3 <main._omp_fn.0+0x101>
    55de:	8b 85 44 ff ff ff    	mov    -0xbc(%rbp),%eax
    55e4:	48 63 d8             	movslq %eax,%rbx
    55e7:	48 8b 85 38 ff ff ff 	mov    -0xc8(%rbp),%rax
    55ee:	48 8b 00             	mov    (%rax),%rax
    55f1:	48 89 c7             	mov    %rax,%rdi
    55f4:	e8 c7 14 00 00       	call   6ac0 <_ZNKSt6vectorINSt7__cxx1112basic_stringIcSt11char_traitsIcESaIcEEESaIS5_EE4sizeEv>
    55f9:	48 29 c3             	sub    %rax,%rbx
    55fc:	48 89 da             	mov    %rbx,%rdx
    55ff:	48 8b 85 38 ff ff ff 	mov    -0xc8(%rbp),%rax
    5606:	48 8b 40 08          	mov    0x8(%rax),%rax
    560a:	48 89 d6             	mov    %rdx,%rsi
    560d:	48 89 c7             	mov    %rax,%rdi
    5610:	e8 d3 14 00 00       	call   6ae8 <_ZNSt6vectorINSt7__cxx1112basic_stringIcSt11char_traitsIcESaIcEEESaIS5_EEixEm>
    5615:	48 89 c2             	mov    %rax,%rdx
    5618:	48 8d 45 c0          	lea    -0x40(%rbp),%rax
    561c:	48 89 d6             	mov    %rdx,%rsi
    561f:	48 89 c7             	mov    %rax,%rdi
    5622:	e8 79 df ff ff       	call   35a0 <_init+0x5a0>
    5627:	48 8d 05 69 6c 00 00 	lea    0x6c69(%rip),%rax        # c297 <_ZSt12__is_ratio_vISt5ratioILl1000000000ELl1EEE+0x1>
    562e:	48 89 c6             	mov    %rax,%rsi
    5631:	48 8d 05 08 ba 00 00 	lea    0xba08(%rip),%rax        # 11040 <_ZSt4cout@GLIBCXX_3.4>
    5638:	48 89 c7             	mov    %rax,%rdi
    563b:	e8 90 e0 ff ff       	call   36d0 <_init+0x6d0>
    5640:	48 89 c2             	mov    %rax,%rdx
    5643:	8b 85 4c ff ff ff    	mov    -0xb4(%rbp),%eax
    5649:	89 c6                	mov    %eax,%esi
    564b:	48 89 d7             	mov    %rdx,%rdi
    564e:	e8 ad e2 ff ff       	call   3900 <_init+0x900>
    5653:	48 89 c2             	mov    %rax,%rdx
    5656:	48 8d 05 4b 6c 00 00 	lea    0x6c4b(%rip),%rax        # c2a8 <_ZSt12__is_ratio_vISt5ratioILl1000000000ELl1EEE+0x12>
    565d:	48 89 c6             	mov    %rax,%rsi
    5660:	48 89 d7             	mov    %rdx,%rdi
    5663:	e8 68 e0 ff ff       	call   36d0 <_init+0x6d0>
    5668:	48 89 c2             	mov    %rax,%rdx
    566b:	48 8d 45 c0          	lea    -0x40(%rbp),%rax
    566f:	48 89 c6             	mov    %rax,%rsi
    5672:	48 89 d7             	mov    %rdx,%rdi
    5675:	e8 26 e0 ff ff       	call   36a0 <_init+0x6a0>
    567a:	48 8b 15 57 b9 00 00 	mov    0xb957(%rip),%rdx        # 10fd8 <_ZSt4endlIcSt11char_traitsIcEERSt13basic_ostreamIT_T0_ES6_@GLIBCXX_3.4>
    5681:	48 89 d6             	mov    %rdx,%rsi
    5684:	48 89 c7             	mov    %rax,%rdi
    5687:	e8 a4 e0 ff ff       	call   3730 <_init+0x730>
    568c:	48 8d 45 a0          	lea    -0x60(%rbp),%rax
    5690:	48 8d 55 c0          	lea    -0x40(%rbp),%rdx
    5694:	48 89 d6             	mov    %rdx,%rsi
    5697:	48 89 c7             	mov    %rax,%rdi
    569a:	e8 c9 f4 ff ff       	call   4b68 <_Z25ejecutarMainScraperConURLRKNSt7__cxx1112basic_stringIcSt11char_traitsIcESaIcEEE>
    569f:	48 8d 55 a0          	lea    -0x60(%rbp),%rdx
    56a3:	48 8d 45 80          	lea    -0x80(%rbp),%rax
    56a7:	48 89 d6             	mov    %rdx,%rsi
    56aa:	48 89 c7             	mov    %rax,%rdi
    56ad:	e8 5a 14 00 00       	call   6b0c <_ZNSt6vectorISt3mapINSt7__cxx1112basic_stringIcSt11char_traitsIcESaIcEEES6_St4lessIS6_ESaISt4pairIKS6_S6_EEESaISD_EEaSEOSF_>
    56b2:	48 8d 45 a0          	lea    -0x60(%rbp),%rax
    56b6:	48 89 c7             	mov    %rax,%rdi
    56b9:	e8 26 07 00 00       	call   5de4 <_ZNSt6vectorISt3mapINSt7__cxx1112basic_stringIcSt11char_traitsIcESaIcEEES6_St4lessIS6_ESaISt4pairIKS6_S6_EEESaISD_EED1Ev>
    56be:	48 8d 45 c0          	lea    -0x40(%rbp),%rax
    56c2:	48 89 c7             	mov    %rax,%rdi
    56c5:	e8 26 df ff ff       	call   35f0 <_init+0x5f0>
    56ca:	e9 ec fd ff ff       	jmp    54bb <main._omp_fn.0+0xc9>
    56cf:	48 8d 05 c1 6b 00 00 	lea    0x6bc1(%rip),%rax        # c297 <_ZSt12__is_ratio_vISt5ratioILl1000000000ELl1EEE+0x1>
    56d6:	48 89 c6             	mov    %rax,%rsi
    56d9:	48 8d 05 60 b9 00 00 	lea    0xb960(%rip),%rax        # 11040 <_ZSt4cout@GLIBCXX_3.4>
    56e0:	48 89 c7             	mov    %rax,%rdi
    56e3:	e8 e8 df ff ff       	call   36d0 <_init+0x6d0>
    56e8:	48 89 c2             	mov    %rax,%rdx
    56eb:	8b 85 4c ff ff ff    	mov    -0xb4(%rbp),%eax
    56f1:	89 c6                	mov    %eax,%esi
    56f3:	48 89 d7             	mov    %rdx,%rdi
    56f6:	e8 05 e2 ff ff       	call   3900 <_init+0x900>
    56fb:	48 89 c2             	mov    %rax,%rdx
    56fe:	48 8d 05 ca 6b 00 00 	lea    0x6bca(%rip),%rax        # c2cf <_ZSt12__is_ratio_vISt5ratioILl1000000000ELl1EEE+0x39>
    5705:	48 89 c6             	mov    %rax,%rsi
    5708:	48 89 d7             	mov    %rdx,%rdi
    570b:	e8 c0 df ff ff       	call   36d0 <_init+0x6d0>
    5710:	48 89 c3             	mov    %rax,%rbx
    5713:	8b 85 44 ff ff ff    	mov    -0xbc(%rbp),%eax
    5719:	48 63 d0             	movslq %eax,%rdx
    571c:	48 8b 85 38 ff ff ff 	mov    -0xc8(%rbp),%rax
    5723:	48 8b 00             	mov    (%rax),%rax
    5726:	48 89 d6             	mov    %rdx,%rsi
    5729:	48 89 c7             	mov    %rax,%rdi
    572c:	e8 b7 13 00 00       	call   6ae8 <_ZNSt6vectorINSt7__cxx1112basic_stringIcSt11char_traitsIcESaIcEEESaIS5_EEixEm>
    5731:	48 89 c6             	mov    %rax,%rsi
    5734:	48 89 df             	mov    %rbx,%rdi
    5737:	e8 64 df ff ff       	call   36a0 <_init+0x6a0>
    573c:	48 8b 15 95 b8 00 00 	mov    0xb895(%rip),%rdx        # 10fd8 <_ZSt4endlIcSt11char_traitsIcEERSt13basic_ostreamIT_T0_ES6_@GLIBCXX_3.4>
    5743:	48 89 d6             	mov    %rdx,%rsi
    5746:	48 89 c7             	mov    %rax,%rdi
    5749:	e8 e2 df ff ff       	call   3730 <_init+0x730>
    574e:	8b 85 44 ff ff ff    	mov    -0xbc(%rbp),%eax
    5754:	48 63 d0             	movslq %eax,%rdx
    5757:	48 8b 85 38 ff ff ff 	mov    -0xc8(%rbp),%rax
    575e:	48 8b 00             	mov    (%rax),%rax
    5761:	48 89 d6             	mov    %rdx,%rsi
    5764:	48 89 c7             	mov    %rax,%rdi
    5767:	e8 7c 13 00 00       	call   6ae8 <_ZNSt6vectorINSt7__cxx1112basic_stringIcSt11char_traitsIcESaIcEEESaIS5_EEixEm>
    576c:	48 89 c2             	mov    %rax,%rdx
    576f:	48 8d 45 a0          	lea    -0x60(%rbp),%rax
    5773:	48 89 d6             	mov    %rdx,%rsi
    5776:	48 89 c7             	mov    %rax,%rdi
    5779:	e8 f2 ee ff ff       	call   4670 <_Z15ejecutarScraperRKNSt7__cxx1112basic_stringIcSt11char_traitsIcESaIcEEE>
    577e:	48 8d 55 a0          	lea    -0x60(%rbp),%rdx
    5782:	48 8d 45 80          	lea    -0x80(%rbp),%rax
    5786:	48 89 d6             	mov    %rdx,%rsi
    5789:	48 89 c7             	mov    %rax,%rdi
    578c:	e8 7b 13 00 00       	call   6b0c <_ZNSt6vectorISt3mapINSt7__cxx1112basic_stringIcSt11char_traitsIcESaIcEEES6_St4lessIS6_ESaISt4pairIKS6_S6_EEESaISD_EEaSEOSF_>
    5791:	48 8d 45 a0          	lea    -0x60(%rbp),%rax
    5795:	48 89 c7             	mov    %rax,%rdi
    5798:	e8 47 06 00 00       	call   5de4 <_ZNSt6vectorISt3mapINSt7__cxx1112basic_stringIcSt11char_traitsIcESaIcEEES6_St4lessIS6_ESaISt4pairIKS6_S6_EEESaISD_EED1Ev>
    579d:	e9 19 fd ff ff       	jmp    54bb <main._omp_fn.0+0xc9>
    57a2:	e8 19 de ff ff       	call   35c0 <_init+0x5c0>
    57a7:	48 8b 45 e8          	mov    -0x18(%rbp),%rax
    57ab:	64 48 2b 04 25 28 00 	sub    %fs:0x28,%rax
    57b2:	00 00 
    57b4:	74 05                	je     57bb <main._omp_fn.0+0x3c9>
    57b6:	e8 c5 df ff ff       	call   3780 <_init+0x780>
    57bb:	48 81 c4 c0 00 00 00 	add    $0xc0,%rsp
    57c2:	5b                   	pop    %rbx
    57c3:	41 5c                	pop    %r12
    57c5:	5d                   	pop    %rbp
    57c6:	c3                   	ret    

00000000000057c7 <_ZSt23__is_constant_evaluatedv>:
    57c7:	f3 0f 1e fa          	endbr64 
    57cb:	55                   	push   %rbp
    57cc:	48 89 e5             	mov    %rsp,%rbp
    57cf:	b8 00 00 00 00       	mov    $0x0,%eax
    57d4:	5d                   	pop    %rbp
    57d5:	c3                   	ret    

00000000000057d6 <_ZnwmPv>:
    57d6:	f3 0f 1e fa          	endbr64 
    57da:	55                   	push   %rbp
    57db:	48 89 e5             	mov    %rsp,%rbp
    57de:	48 89 7d f8          	mov    %rdi,-0x8(%rbp)
    57e2:	48 89 75 f0          	mov    %rsi,-0x10(%rbp)
    57e6:	48 8b 45 f0          	mov    -0x10(%rbp),%rax
    57ea:	5d                   	pop    %rbp
    57eb:	c3                   	ret    

00000000000057ec <_ZdlPvS_>:
    57ec:	f3 0f 1e fa          	endbr64 
    57f0:	55                   	push   %rbp
    57f1:	48 89 e5             	mov    %rsp,%rbp
    57f4:	48 89 7d f8          	mov    %rdi,-0x8(%rbp)
    57f8:	48 89 75 f0          	mov    %rsi,-0x10(%rbp)
    57fc:	90                   	nop
    57fd:	5d                   	pop    %rbp
    57fe:	c3                   	ret    

00000000000057ff <_ZNSt11char_traitsIcE6lengthEPKc>:
    57ff:	f3 0f 1e fa          	endbr64 
    5803:	55                   	push   %rbp
    5804:	48 89 e5             	mov    %rsp,%rbp
    5807:	48 83 ec 10          	sub    $0x10,%rsp
    580b:	48 89 7d f8          	mov    %rdi,-0x8(%rbp)
    580f:	e8 b3 ff ff ff       	call   57c7 <_ZSt23__is_constant_evaluatedv>
    5814:	84 c0                	test   %al,%al
    5816:	74 0e                	je     5826 <_ZNSt11char_traitsIcE6lengthEPKc+0x27>
    5818:	48 8b 45 f8          	mov    -0x8(%rbp),%rax
    581c:	48 89 c7             	mov    %rax,%rdi
    581f:	e8 22 04 00 00       	call   5c46 <_ZN9__gnu_cxx11char_traitsIcE6lengthEPKc>
    5824:	eb 0d                	jmp    5833 <_ZNSt11char_traitsIcE6lengthEPKc+0x34>
    5826:	48 8b 45 f8          	mov    -0x8(%rbp),%rax
    582a:	48 89 c7             	mov    %rax,%rdi
    582d:	e8 7e dd ff ff       	call   35b0 <_init+0x5b0>
    5832:	90                   	nop
    5833:	c9                   	leave  
    5834:	c3                   	ret    

0000000000005835 <_ZL20__gthread_mutex_lockP15pthread_mutex_t>:
    5835:	55                   	push   %rbp
    5836:	48 89 e5             	mov    %rsp,%rbp
    5839:	48 83 ec 10          	sub    $0x10,%rsp
    583d:	48 89 7d f8          	mov    %rdi,-0x8(%rbp)
    5841:	e8 24 e2 ff ff       	call   3a6a <_ZL18__gthread_active_pv>
    5846:	85 c0                	test   %eax,%eax
    5848:	0f 95 c0             	setne  %al
    584b:	84 c0                	test   %al,%al
    584d:	74 0e                	je     585d <_ZL20__gthread_mutex_lockP15pthread_mutex_t+0x28>
    584f:	48 8b 45 f8          	mov    -0x8(%rbp),%rax
    5853:	48 89 c7             	mov    %rax,%rdi
    5856:	e8 f5 df ff ff       	call   3850 <_init+0x850>
    585b:	eb 05                	jmp    5862 <_ZL20__gthread_mutex_lockP15pthread_mutex_t+0x2d>
    585d:	b8 00 00 00 00       	mov    $0x0,%eax
    5862:	c9                   	leave  
    5863:	c3                   	ret    

0000000000005864 <_ZL22__gthread_mutex_unlockP15pthread_mutex_t>:
    5864:	55                   	push   %rbp
    5865:	48 89 e5             	mov    %rsp,%rbp
    5868:	48 83 ec 10          	sub    $0x10,%rsp
    586c:	48 89 7d f8          	mov    %rdi,-0x8(%rbp)
    5870:	e8 f5 e1 ff ff       	call   3a6a <_ZL18__gthread_active_pv>
    5875:	85 c0                	test   %eax,%eax
    5877:	0f 95 c0             	setne  %al
    587a:	84 c0                	test   %al,%al
    587c:	74 0e                	je     588c <_ZL22__gthread_mutex_unlockP15pthread_mutex_t+0x28>
    587e:	48 8b 45 f8          	mov    -0x8(%rbp),%rax
    5882:	48 89 c7             	mov    %rax,%rdi
    5885:	e8 d6 dd ff ff       	call   3660 <_init+0x660>
    588a:	eb 05                	jmp    5891 <_ZL22__gthread_mutex_unlockP15pthread_mutex_t+0x2d>
    588c:	b8 00 00 00 00       	mov    $0x0,%eax
    5891:	c9                   	leave  
    5892:	c3                   	ret    
    5893:	90                   	nop

0000000000005894 <_ZNSt5mutex4lockEv>:
    5894:	f3 0f 1e fa          	endbr64 
    5898:	55                   	push   %rbp
    5899:	48 89 e5             	mov    %rsp,%rbp
    589c:	48 83 ec 20          	sub    $0x20,%rsp
    58a0:	48 89 7d e8          	mov    %rdi,-0x18(%rbp)
    58a4:	48 8b 45 e8          	mov    -0x18(%rbp),%rax
    58a8:	48 89 c7             	mov    %rax,%rdi
    58ab:	e8 85 ff ff ff       	call   5835 <_ZL20__gthread_mutex_lockP15pthread_mutex_t>
    58b0:	89 45 fc             	mov    %eax,-0x4(%rbp)
    58b3:	83 7d fc 00          	cmpl   $0x0,-0x4(%rbp)
    58b7:	74 0a                	je     58c3 <_ZNSt5mutex4lockEv+0x2f>
    58b9:	8b 45 fc             	mov    -0x4(%rbp),%eax
    58bc:	89 c7                	mov    %eax,%edi
    58be:	e8 4d dd ff ff       	call   3610 <_init+0x610>
    58c3:	90                   	nop
    58c4:	c9                   	leave  
    58c5:	c3                   	ret    

00000000000058c6 <_ZNSt5mutex6unlockEv>:
    58c6:	f3 0f 1e fa          	endbr64 
    58ca:	55                   	push   %rbp
    58cb:	48 89 e5             	mov    %rsp,%rbp
    58ce:	48 83 ec 10          	sub    $0x10,%rsp
    58d2:	48 89 7d f8          	mov    %rdi,-0x8(%rbp)
    58d6:	48 8b 45 f8          	mov    -0x8(%rbp),%rax
    58da:	48 89 c7             	mov    %rax,%rdi
    58dd:	e8 82 ff ff ff       	call   5864 <_ZL22__gthread_mutex_unlockP15pthread_mutex_t>
    58e2:	90                   	nop
    58e3:	c9                   	leave  
    58e4:	c3                   	ret    

00000000000058e5 <_ZNSt18_Rb_tree_node_base10_S_minimumEPS_>:
    58e5:	f3 0f 1e fa          	endbr64 
    58e9:	55                   	push   %rbp
    58ea:	48 89 e5             	mov    %rsp,%rbp
    58ed:	48 89 7d f8          	mov    %rdi,-0x8(%rbp)
    58f1:	eb 0c                	jmp    58ff <_ZNSt18_Rb_tree_node_base10_S_minimumEPS_+0x1a>
    58f3:	48 8b 45 f8          	mov    -0x8(%rbp),%rax
    58f7:	48 8b 40 10          	mov    0x10(%rax),%rax
    58fb:	48 89 45 f8          	mov    %rax,-0x8(%rbp)
    58ff:	48 8b 45 f8          	mov    -0x8(%rbp),%rax
    5903:	48 8b 40 10          	mov    0x10(%rax),%rax
    5907:	48 85 c0             	test   %rax,%rax
    590a:	75 e7                	jne    58f3 <_ZNSt18_Rb_tree_node_base10_S_minimumEPS_+0xe>
    590c:	48 8b 45 f8          	mov    -0x8(%rbp),%rax
    5910:	5d                   	pop    %rbp
    5911:	c3                   	ret    

0000000000005912 <_ZNSt18_Rb_tree_node_base10_S_maximumEPS_>:
    5912:	f3 0f 1e fa          	endbr64 
    5916:	55                   	push   %rbp
    5917:	48 89 e5             	mov    %rsp,%rbp
    591a:	48 89 7d f8          	mov    %rdi,-0x8(%rbp)
    591e:	eb 0c                	jmp    592c <_ZNSt18_Rb_tree_node_base10_S_maximumEPS_+0x1a>
    5920:	48 8b 45 f8          	mov    -0x8(%rbp),%rax
    5924:	48 8b 40 18          	mov    0x18(%rax),%rax
    5928:	48 89 45 f8          	mov    %rax,-0x8(%rbp)
    592c:	48 8b 45 f8          	mov    -0x8(%rbp),%rax
    5930:	48 8b 40 18          	mov    0x18(%rax),%rax
    5934:	48 85 c0             	test   %rax,%rax
    5937:	75 e7                	jne    5920 <_ZNSt18_Rb_tree_node_base10_S_maximumEPS_+0xe>
    5939:	48 8b 45 f8          	mov    -0x8(%rbp),%rax
    593d:	5d                   	pop    %rbp
    593e:	c3                   	ret    
    593f:	90                   	nop

0000000000005940 <_ZNSt15_Rb_tree_headerC1Ev>:
    5940:	f3 0f 1e fa          	endbr64 
    5944:	55                   	push   %rbp
    5945:	48 89 e5             	mov    %rsp,%rbp
    5948:	48 83 ec 10          	sub    $0x10,%rsp
    594c:	48 89 7d f8          	mov    %rdi,-0x8(%rbp)
    5950:	48 8b 45 f8          	mov    -0x8(%rbp),%rax
    5954:	c7 00 00 00 00 00    	movl   $0x0,(%rax)
    595a:	48 8b 45 f8          	mov    -0x8(%rbp),%rax
    595e:	48 89 c7             	mov    %rax,%rdi
    5961:	e8 d4 00 00 00       	call   5a3a <_ZNSt15_Rb_tree_header8_M_resetEv>
    5966:	90                   	nop
    5967:	c9                   	leave  
    5968:	c3                   	ret    
    5969:	90                   	nop

000000000000596a <_ZNSt15_Rb_tree_headerC1EOS_>:
    596a:	f3 0f 1e fa          	endbr64 
    596e:	55                   	push   %rbp
    596f:	48 89 e5             	mov    %rsp,%rbp
    5972:	48 83 ec 10          	sub    $0x10,%rsp
    5976:	48 89 7d f8          	mov    %rdi,-0x8(%rbp)
    597a:	48 89 75 f0          	mov    %rsi,-0x10(%rbp)
    597e:	48 8b 45 f0          	mov    -0x10(%rbp),%rax
    5982:	48 8b 40 08          	mov    0x8(%rax),%rax
    5986:	48 85 c0             	test   %rax,%rax
    5989:	74 15                	je     59a0 <_ZNSt15_Rb_tree_headerC1EOS_+0x36>
    598b:	48 8b 55 f0          	mov    -0x10(%rbp),%rdx
    598f:	48 8b 45 f8          	mov    -0x8(%rbp),%rax
    5993:	48 89 d6             	mov    %rdx,%rsi
    5996:	48 89 c7             	mov    %rax,%rdi
    5999:	e8 1c 00 00 00       	call   59ba <_ZNSt15_Rb_tree_header12_M_move_dataERS_>
    599e:	eb 16                	jmp    59b6 <_ZNSt15_Rb_tree_headerC1EOS_+0x4c>
    59a0:	48 8b 45 f8          	mov    -0x8(%rbp),%rax
    59a4:	c7 00 00 00 00 00    	movl   $0x0,(%rax)
    59aa:	48 8b 45 f8          	mov    -0x8(%rbp),%rax
    59ae:	48 89 c7             	mov    %rax,%rdi
    59b1:	e8 84 00 00 00       	call   5a3a <_ZNSt15_Rb_tree_header8_M_resetEv>
    59b6:	90                   	nop
    59b7:	c9                   	leave  
    59b8:	c3                   	ret    
    59b9:	90                   	nop

00000000000059ba <_ZNSt15_Rb_tree_header12_M_move_dataERS_>:
    59ba:	f3 0f 1e fa          	endbr64 
    59be:	55                   	push   %rbp
    59bf:	48 89 e5             	mov    %rsp,%rbp
    59c2:	48 83 ec 10          	sub    $0x10,%rsp
    59c6:	48 89 7d f8          	mov    %rdi,-0x8(%rbp)
    59ca:	48 89 75 f0          	mov    %rsi,-0x10(%rbp)
    59ce:	48 8b 45 f0          	mov    -0x10(%rbp),%rax
    59d2:	8b 10                	mov    (%rax),%edx
    59d4:	48 8b 45 f8          	mov    -0x8(%rbp),%rax
    59d8:	89 10                	mov    %edx,(%rax)
    59da:	48 8b 45 f0          	mov    -0x10(%rbp),%rax
    59de:	48 8b 50 08          	mov    0x8(%rax),%rdx
    59e2:	48 8b 45 f8          	mov    -0x8(%rbp),%rax
    59e6:	48 89 50 08          	mov    %rdx,0x8(%rax)
    59ea:	48 8b 45 f0          	mov    -0x10(%rbp),%rax
    59ee:	48 8b 50 10          	mov    0x10(%rax),%rdx
    59f2:	48 8b 45 f8          	mov    -0x8(%rbp),%rax
    59f6:	48 89 50 10          	mov    %rdx,0x10(%rax)
    59fa:	48 8b 45 f0          	mov    -0x10(%rbp),%rax
    59fe:	48 8b 50 18          	mov    0x18(%rax),%rdx
    5a02:	48 8b 45 f8          	mov    -0x8(%rbp),%rax
    5a06:	48 89 50 18          	mov    %rdx,0x18(%rax)
    5a0a:	48 8b 45 f8          	mov    -0x8(%rbp),%rax
    5a0e:	48 8b 40 08          	mov    0x8(%rax),%rax
    5a12:	48 8b 55 f8          	mov    -0x8(%rbp),%rdx
    5a16:	48 89 50 08          	mov    %rdx,0x8(%rax)
    5a1a:	48 8b 45 f0          	mov    -0x10(%rbp),%rax
    5a1e:	48 8b 50 20          	mov    0x20(%rax),%rdx
    5a22:	48 8b 45 f8          	mov    -0x8(%rbp),%rax
    5a26:	48 89 50 20          	mov    %rdx,0x20(%rax)
    5a2a:	48 8b 45 f0          	mov    -0x10(%rbp),%rax
    5a2e:	48 89 c7             	mov    %rax,%rdi
    5a31:	e8 04 00 00 00       	call   5a3a <_ZNSt15_Rb_tree_header8_M_resetEv>
    5a36:	90                   	nop
    5a37:	c9                   	leave  
    5a38:	c3                   	ret    
    5a39:	90                   	nop

0000000000005a3a <_ZNSt15_Rb_tree_header8_M_resetEv>:
    5a3a:	f3 0f 1e fa          	endbr64 
    5a3e:	55                   	push   %rbp
    5a3f:	48 89 e5             	mov    %rsp,%rbp
    5a42:	48 89 7d f8          	mov    %rdi,-0x8(%rbp)
    5a46:	48 8b 45 f8          	mov    -0x8(%rbp),%rax
    5a4a:	48 c7 40 08 00 00 00 	movq   $0x0,0x8(%rax)
    5a51:	00 
    5a52:	48 8b 55 f8          	mov    -0x8(%rbp),%rdx
    5a56:	48 8b 45 f8          	mov    -0x8(%rbp),%rax
    5a5a:	48 89 50 10          	mov    %rdx,0x10(%rax)
    5a5e:	48 8b 55 f8          	mov    -0x8(%rbp),%rdx
    5a62:	48 8b 45 f8          	mov    -0x8(%rbp),%rax
    5a66:	48 89 50 18          	mov    %rdx,0x18(%rax)
    5a6a:	48 8b 45 f8          	mov    -0x8(%rbp),%rax
    5a6e:	48 c7 40 20 00 00 00 	movq   $0x0,0x20(%rax)
    5a75:	00 
    5a76:	90                   	nop
    5a77:	5d                   	pop    %rbp
    5a78:	c3                   	ret    
    5a79:	90                   	nop

0000000000005a7a <_ZNSt12_Vector_baseISt3mapINSt7__cxx1112basic_stringIcSt11char_traitsIcESaIcEEES6_St4lessIS6_ESaISt4pairIKS6_S6_EEESaISD_EE12_Vector_implD1Ev>:
    5a7a:	f3 0f 1e fa          	endbr64 
    5a7e:	55                   	push   %rbp
    5a7f:	48 89 e5             	mov    %rsp,%rbp
    5a82:	48 83 ec 20          	sub    $0x20,%rsp
    5a86:	48 89 7d e8          	mov    %rdi,-0x18(%rbp)
    5a8a:	48 8b 45 e8          	mov    -0x18(%rbp),%rax
    5a8e:	48 89 45 f8          	mov    %rax,-0x8(%rbp)
    5a92:	48 8b 45 f8          	mov    -0x8(%rbp),%rax
    5a96:	48 89 c7             	mov    %rax,%rdi
    5a99:	e8 06 14 00 00       	call   6ea4 <_ZNSt15__new_allocatorISt3mapINSt7__cxx1112basic_stringIcSt11char_traitsIcESaIcEEES6_St4lessIS6_ESaISt4pairIKS6_S6_EEEED1Ev>
    5a9e:	90                   	nop
    5a9f:	90                   	nop
    5aa0:	c9                   	leave  
    5aa1:	c3                   	ret    

0000000000005aa2 <_ZNSt12_Vector_baseISt3mapINSt7__cxx1112basic_stringIcSt11char_traitsIcESaIcEEES6_St4lessIS6_ESaISt4pairIKS6_S6_EEESaISD_EEC1Ev>:
    5aa2:	f3 0f 1e fa          	endbr64 
    5aa6:	55                   	push   %rbp
    5aa7:	48 89 e5             	mov    %rsp,%rbp
    5aaa:	48 83 ec 10          	sub    $0x10,%rsp
    5aae:	48 89 7d f8          	mov    %rdi,-0x8(%rbp)
    5ab2:	48 8b 45 f8          	mov    -0x8(%rbp),%rax
    5ab6:	48 89 c7             	mov    %rax,%rdi
    5ab9:	e8 98 02 00 00       	call   5d56 <_ZNSt12_Vector_baseISt3mapINSt7__cxx1112basic_stringIcSt11char_traitsIcESaIcEEES6_St4lessIS6_ESaISt4pairIKS6_S6_EEESaISD_EE12_Vector_implC1Ev>
    5abe:	90                   	nop
    5abf:	c9                   	leave  
    5ac0:	c3                   	ret    
    5ac1:	90                   	nop

0000000000005ac2 <_ZNSt6vectorISt3mapINSt7__cxx1112basic_stringIcSt11char_traitsIcESaIcEEES6_St4lessIS6_ESaISt4pairIKS6_S6_EEESaISD_EEC1Ev>:
    5ac2:	f3 0f 1e fa          	endbr64 
    5ac6:	55                   	push   %rbp
    5ac7:	48 89 e5             	mov    %rsp,%rbp
    5aca:	48 83 ec 10          	sub    $0x10,%rsp
    5ace:	48 89 7d f8          	mov    %rdi,-0x8(%rbp)
    5ad2:	48 8b 45 f8          	mov    -0x8(%rbp),%rax
    5ad6:	48 89 c7             	mov    %rax,%rdi
    5ad9:	e8 c4 ff ff ff       	call   5aa2 <_ZNSt12_Vector_baseISt3mapINSt7__cxx1112basic_stringIcSt11char_traitsIcESaIcEEES6_St4lessIS6_ESaISt4pairIKS6_S6_EEESaISD_EEC1Ev>
    5ade:	90                   	nop
    5adf:	c9                   	leave  
    5ae0:	c3                   	ret    
    5ae1:	90                   	nop

0000000000005ae2 <_ZNSt8_Rb_treeINSt7__cxx1112basic_stringIcSt11char_traitsIcESaIcEEESt4pairIKS5_S5_ESt10_Select1stIS8_ESt4lessIS5_ESaIS8_EE13_Rb_tree_implISC_Lb1EED1Ev>:
    5ae2:	f3 0f 1e fa          	endbr64 
    5ae6:	55                   	push   %rbp
    5ae7:	48 89 e5             	mov    %rsp,%rbp
    5aea:	48 83 ec 20          	sub    $0x20,%rsp
    5aee:	48 89 7d e8          	mov    %rdi,-0x18(%rbp)
    5af2:	48 8b 45 e8          	mov    -0x18(%rbp),%rax
    5af6:	48 89 45 f8          	mov    %rax,-0x8(%rbp)
    5afa:	48 8b 45 f8          	mov    -0x8(%rbp),%rax
    5afe:	48 89 c7             	mov    %rax,%rdi
    5b01:	e8 22 14 00 00       	call   6f28 <_ZNSt15__new_allocatorISt13_Rb_tree_nodeISt4pairIKNSt7__cxx1112basic_stringIcSt11char_traitsIcESaIcEEES7_EEED1Ev>
    5b06:	90                   	nop
    5b07:	90                   	nop
    5b08:	c9                   	leave  
    5b09:	c3                   	ret    

0000000000005b0a <_ZNSt8_Rb_treeINSt7__cxx1112basic_stringIcSt11char_traitsIcESaIcEEESt4pairIKS5_S5_ESt10_Select1stIS8_ESt4lessIS5_ESaIS8_EEC1Ev>:
    5b0a:	f3 0f 1e fa          	endbr64 
    5b0e:	55                   	push   %rbp
    5b0f:	48 89 e5             	mov    %rsp,%rbp
    5b12:	48 83 ec 10          	sub    $0x10,%rsp
    5b16:	48 89 7d f8          	mov    %rdi,-0x8(%rbp)
    5b1a:	48 8b 45 f8          	mov    -0x8(%rbp),%rax
    5b1e:	48 89 c7             	mov    %rax,%rdi
    5b21:	e8 18 03 00 00       	call   5e3e <_ZNSt8_Rb_treeINSt7__cxx1112basic_stringIcSt11char_traitsIcESaIcEEESt4pairIKS5_S5_ESt10_Select1stIS8_ESt4lessIS5_ESaIS8_EE13_Rb_tree_implISC_Lb1EEC1Ev>
    5b26:	90                   	nop
    5b27:	c9                   	leave  
    5b28:	c3                   	ret    
    5b29:	90                   	nop

0000000000005b2a <_ZNSt3mapINSt7__cxx1112basic_stringIcSt11char_traitsIcESaIcEEES5_St4lessIS5_ESaISt4pairIKS5_S5_EEEC1Ev>:
    5b2a:	f3 0f 1e fa          	endbr64 
    5b2e:	55                   	push   %rbp
    5b2f:	48 89 e5             	mov    %rsp,%rbp
    5b32:	48 83 ec 10          	sub    $0x10,%rsp
    5b36:	48 89 7d f8          	mov    %rdi,-0x8(%rbp)
    5b3a:	48 8b 45 f8          	mov    -0x8(%rbp),%rax
    5b3e:	48 89 c7             	mov    %rax,%rdi
    5b41:	e8 c4 ff ff ff       	call   5b0a <_ZNSt8_Rb_treeINSt7__cxx1112basic_stringIcSt11char_traitsIcESaIcEEESt4pairIKS5_S5_ESt10_Select1stIS8_ESt4lessIS5_ESaIS8_EEC1Ev>
    5b46:	90                   	nop
    5b47:	c9                   	leave  
    5b48:	c3                   	ret    
    5b49:	90                   	nop

0000000000005b4a <_ZNSt3mapINSt7__cxx1112basic_stringIcSt11char_traitsIcESaIcEEES5_St4lessIS5_ESaISt4pairIKS5_S5_EEED1Ev>:
    5b4a:	f3 0f 1e fa          	endbr64 
    5b4e:	55                   	push   %rbp
    5b4f:	48 89 e5             	mov    %rsp,%rbp
    5b52:	48 83 ec 10          	sub    $0x10,%rsp
    5b56:	48 89 7d f8          	mov    %rdi,-0x8(%rbp)
    5b5a:	48 8b 45 f8          	mov    -0x8(%rbp),%rax
    5b5e:	48 89 c7             	mov    %rax,%rdi
    5b61:	e8 1a 03 00 00       	call   5e80 <_ZNSt8_Rb_treeINSt7__cxx1112basic_stringIcSt11char_traitsIcESaIcEEESt4pairIKS5_S5_ESt10_Select1stIS8_ESt4lessIS5_ESaIS8_EED1Ev>
    5b66:	90                   	nop
    5b67:	c9                   	leave  
    5b68:	c3                   	ret    
    5b69:	90                   	nop

0000000000005b6a <_ZNSt12_Vector_baseISt3mapINSt7__cxx1112basic_stringIcSt11char_traitsIcESaIcEEES6_St4lessIS6_ESaISt4pairIKS6_S6_EEESaISD_EEC1EOSF_>:
    5b6a:	f3 0f 1e fa          	endbr64 
    5b6e:	55                   	push   %rbp
    5b6f:	48 89 e5             	mov    %rsp,%rbp
    5b72:	48 83 ec 10          	sub    $0x10,%rsp
    5b76:	48 89 7d f8          	mov    %rdi,-0x8(%rbp)
    5b7a:	48 89 75 f0          	mov    %rsi,-0x10(%rbp)
    5b7e:	48 8b 45 f8          	mov    -0x8(%rbp),%rax
    5b82:	48 8b 55 f0          	mov    -0x10(%rbp),%rdx
    5b86:	48 89 d6             	mov    %rdx,%rsi
    5b89:	48 89 c7             	mov    %rax,%rdi
    5b8c:	e8 59 05 00 00       	call   60ea <_ZNSt12_Vector_baseISt3mapINSt7__cxx1112basic_stringIcSt11char_traitsIcESaIcEEES6_St4lessIS6_ESaISt4pairIKS6_S6_EEESaISD_EE12_Vector_implC1EOSG_>
    5b91:	90                   	nop
    5b92:	c9                   	leave  
    5b93:	c3                   	ret    

0000000000005b94 <_ZNSt6vectorISt3mapINSt7__cxx1112basic_stringIcSt11char_traitsIcESaIcEEES6_St4lessIS6_ESaISt4pairIKS6_S6_EEESaISD_EEC1EOSF_>:
    5b94:	f3 0f 1e fa          	endbr64 
    5b98:	55                   	push   %rbp
    5b99:	48 89 e5             	mov    %rsp,%rbp
    5b9c:	48 83 ec 10          	sub    $0x10,%rsp
    5ba0:	48 89 7d f8          	mov    %rdi,-0x8(%rbp)
    5ba4:	48 89 75 f0          	mov    %rsi,-0x10(%rbp)
    5ba8:	48 8b 45 f8          	mov    -0x8(%rbp),%rax
    5bac:	48 8b 55 f0          	mov    -0x10(%rbp),%rdx
    5bb0:	48 89 d6             	mov    %rdx,%rsi
    5bb3:	48 89 c7             	mov    %rax,%rdi
    5bb6:	e8 af ff ff ff       	call   5b6a <_ZNSt12_Vector_baseISt3mapINSt7__cxx1112basic_stringIcSt11char_traitsIcESaIcEEES6_St4lessIS6_ESaISt4pairIKS6_S6_EEESaISD_EEC1EOSF_>
    5bbb:	90                   	nop
    5bbc:	c9                   	leave  
    5bbd:	c3                   	ret    

0000000000005bbe <_ZNSt12_Vector_baseINSt7__cxx1112basic_stringIcSt11char_traitsIcESaIcEEESaIS5_EE12_Vector_implD1Ev>:
    5bbe:	f3 0f 1e fa          	endbr64 
    5bc2:	55                   	push   %rbp
    5bc3:	48 89 e5             	mov    %rsp,%rbp
    5bc6:	48 83 ec 20          	sub    $0x20,%rsp
    5bca:	48 89 7d e8          	mov    %rdi,-0x18(%rbp)
    5bce:	48 8b 45 e8          	mov    -0x18(%rbp),%rax
    5bd2:	48 89 45 f8          	mov    %rax,-0x8(%rbp)
    5bd6:	48 8b 45 f8          	mov    -0x8(%rbp),%rax
    5bda:	48 89 c7             	mov    %rax,%rdi
    5bdd:	e8 3a 1c 00 00       	call   781c <_ZNSt15__new_allocatorINSt7__cxx1112basic_stringIcSt11char_traitsIcESaIcEEEED1Ev>
    5be2:	90                   	nop
    5be3:	90                   	nop
    5be4:	c9                   	leave  
    5be5:	c3                   	ret    

0000000000005be6 <_ZNSt12_Vector_baseINSt7__cxx1112basic_stringIcSt11char_traitsIcESaIcEEESaIS5_EEC1Ev>:
    5be6:	f3 0f 1e fa          	endbr64 
    5bea:	55                   	push   %rbp
    5beb:	48 89 e5             	mov    %rsp,%rbp
    5bee:	48 83 ec 10          	sub    $0x10,%rsp
    5bf2:	48 89 7d f8          	mov    %rdi,-0x8(%rbp)
    5bf6:	48 8b 45 f8          	mov    -0x8(%rbp),%rax
    5bfa:	48 89 c7             	mov    %rax,%rdi
    5bfd:	e8 84 09 00 00       	call   6586 <_ZNSt12_Vector_baseINSt7__cxx1112basic_stringIcSt11char_traitsIcESaIcEEESaIS5_EE12_Vector_implC1Ev>
    5c02:	90                   	nop
    5c03:	c9                   	leave  
    5c04:	c3                   	ret    
    5c05:	90                   	nop

0000000000005c06 <_ZNSt6vectorINSt7__cxx1112basic_stringIcSt11char_traitsIcESaIcEEESaIS5_EEC1Ev>:
    5c06:	f3 0f 1e fa          	endbr64 
    5c0a:	55                   	push   %rbp
    5c0b:	48 89 e5             	mov    %rsp,%rbp
    5c0e:	48 83 ec 10          	sub    $0x10,%rsp
    5c12:	48 89 7d f8          	mov    %rdi,-0x8(%rbp)
    5c16:	48 8b 45 f8          	mov    -0x8(%rbp),%rax
    5c1a:	48 89 c7             	mov    %rax,%rdi
    5c1d:	e8 c4 ff ff ff       	call   5be6 <_ZNSt12_Vector_baseINSt7__cxx1112basic_stringIcSt11char_traitsIcESaIcEEESaIS5_EEC1Ev>
    5c22:	90                   	nop
    5c23:	c9                   	leave  
    5c24:	c3                   	ret    
    5c25:	90                   	nop

0000000000005c26 <_ZNSt3setINSt7__cxx1112basic_stringIcSt11char_traitsIcESaIcEEESt4lessIS5_ESaIS5_EED1Ev>:
    5c26:	f3 0f 1e fa          	endbr64 
    5c2a:	55                   	push   %rbp
    5c2b:	48 89 e5             	mov    %rsp,%rbp
    5c2e:	48 83 ec 10          	sub    $0x10,%rsp
    5c32:	48 89 7d f8          	mov    %rdi,-0x8(%rbp)
    5c36:	48 8b 45 f8          	mov    -0x8(%rbp),%rax
    5c3a:	48 89 c7             	mov    %rax,%rdi
    5c3d:	e8 40 0e 00 00       	call   6a82 <_ZNSt8_Rb_treeINSt7__cxx1112basic_stringIcSt11char_traitsIcESaIcEEES5_St9_IdentityIS5_ESt4lessIS5_ESaIS5_EED1Ev>
    5c42:	90                   	nop
    5c43:	c9                   	leave  
    5c44:	c3                   	ret    
    5c45:	90                   	nop

0000000000005c46 <_ZN9__gnu_cxx11char_traitsIcE6lengthEPKc>:
    5c46:	f3 0f 1e fa          	endbr64 
    5c4a:	55                   	push   %rbp
    5c4b:	48 89 e5             	mov    %rsp,%rbp
    5c4e:	48 83 ec 30          	sub    $0x30,%rsp
    5c52:	48 89 7d d8          	mov    %rdi,-0x28(%rbp)
    5c56:	64 48 8b 04 25 28 00 	mov    %fs:0x28,%rax
    5c5d:	00 00 
    5c5f:	48 89 45 f8          	mov    %rax,-0x8(%rbp)
    5c63:	31 c0                	xor    %eax,%eax
    5c65:	48 c7 45 f0 00 00 00 	movq   $0x0,-0x10(%rbp)
    5c6c:	00 
    5c6d:	eb 05                	jmp    5c74 <_ZN9__gnu_cxx11char_traitsIcE6lengthEPKc+0x2e>
    5c6f:	48 83 45 f0 01       	addq   $0x1,-0x10(%rbp)
    5c74:	c6 45 ef 00          	movb   $0x0,-0x11(%rbp)
    5c78:	48 8b 55 d8          	mov    -0x28(%rbp),%rdx
    5c7c:	48 8b 45 f0          	mov    -0x10(%rbp),%rax
    5c80:	48 01 c2             	add    %rax,%rdx
    5c83:	48 8d 45 ef          	lea    -0x11(%rbp),%rax
    5c87:	48 89 c6             	mov    %rax,%rsi
    5c8a:	48 89 d7             	mov    %rdx,%rdi
    5c8d:	e8 20 10 00 00       	call   6cb2 <_ZN9__gnu_cxx11char_traitsIcE2eqERKcS3_>
    5c92:	83 f0 01             	xor    $0x1,%eax
    5c95:	84 c0                	test   %al,%al
    5c97:	75 d6                	jne    5c6f <_ZN9__gnu_cxx11char_traitsIcE6lengthEPKc+0x29>
    5c99:	48 8b 45 f0          	mov    -0x10(%rbp),%rax
    5c9d:	48 8b 55 f8          	mov    -0x8(%rbp),%rdx
    5ca1:	64 48 2b 14 25 28 00 	sub    %fs:0x28,%rdx
    5ca8:	00 00 
    5caa:	74 05                	je     5cb1 <_ZN9__gnu_cxx11char_traitsIcE6lengthEPKc+0x6b>
    5cac:	e8 cf da ff ff       	call   3780 <_init+0x780>
    5cb1:	c9                   	leave  
    5cb2:	c3                   	ret    
    5cb3:	90                   	nop

0000000000005cb4 <_ZNSt7__cxx1112basic_stringIcSt11char_traitsIcESaIcEE12_Alloc_hiderD1Ev>:
    5cb4:	f3 0f 1e fa          	endbr64 
    5cb8:	55                   	push   %rbp
    5cb9:	48 89 e5             	mov    %rsp,%rbp
    5cbc:	48 83 ec 20          	sub    $0x20,%rsp
    5cc0:	48 89 7d e8          	mov    %rdi,-0x18(%rbp)
    5cc4:	48 8b 45 e8          	mov    -0x18(%rbp),%rax
    5cc8:	48 89 45 f8          	mov    %rax,-0x8(%rbp)
    5ccc:	48 8b 45 f8          	mov    -0x8(%rbp),%rax
    5cd0:	48 89 c7             	mov    %rax,%rdi
    5cd3:	e8 00 10 00 00       	call   6cd8 <_ZNSt15__new_allocatorIcED1Ev>
    5cd8:	90                   	nop
    5cd9:	90                   	nop
    5cda:	c9                   	leave  
    5cdb:	c3                   	ret    

0000000000005cdc <_ZN9__gnu_cxxneIPKcNSt7__cxx1112basic_stringIcSt11char_traitsIcESaIcEEEEEbRKNS_17__normal_iteratorIT_T0_EESE_>:
    5cdc:	f3 0f 1e fa          	endbr64 
    5ce0:	55                   	push   %rbp
    5ce1:	48 89 e5             	mov    %rsp,%rbp
    5ce4:	53                   	push   %rbx
    5ce5:	48 83 ec 18          	sub    $0x18,%rsp
    5ce9:	48 89 7d e8          	mov    %rdi,-0x18(%rbp)
    5ced:	48 89 75 e0          	mov    %rsi,-0x20(%rbp)
    5cf1:	48 8b 45 e8          	mov    -0x18(%rbp),%rax
    5cf5:	48 89 c7             	mov    %rax,%rdi
    5cf8:	e8 63 11 00 00       	call   6e60 <_ZNK9__gnu_cxx17__normal_iteratorIPKcNSt7__cxx1112basic_stringIcSt11char_traitsIcESaIcEEEE4baseEv>
    5cfd:	48 8b 18             	mov    (%rax),%rbx
    5d00:	48 8b 45 e0          	mov    -0x20(%rbp),%rax
    5d04:	48 89 c7             	mov    %rax,%rdi
    5d07:	e8 54 11 00 00       	call   6e60 <_ZNK9__gnu_cxx17__normal_iteratorIPKcNSt7__cxx1112basic_stringIcSt11char_traitsIcESaIcEEEE4baseEv>
    5d0c:	48 8b 00             	mov    (%rax),%rax
    5d0f:	48 39 c3             	cmp    %rax,%rbx
    5d12:	0f 95 c0             	setne  %al
    5d15:	48 8b 5d f8          	mov    -0x8(%rbp),%rbx
    5d19:	c9                   	leave  
    5d1a:	c3                   	ret    
    5d1b:	90                   	nop

0000000000005d1c <_ZN9__gnu_cxx17__normal_iteratorIPKcNSt7__cxx1112basic_stringIcSt11char_traitsIcESaIcEEEEppEv>:
    5d1c:	f3 0f 1e fa          	endbr64 
    5d20:	55                   	push   %rbp
    5d21:	48 89 e5             	mov    %rsp,%rbp
    5d24:	48 89 7d f8          	mov    %rdi,-0x8(%rbp)
    5d28:	48 8b 45 f8          	mov    -0x8(%rbp),%rax
    5d2c:	48 8b 00             	mov    (%rax),%rax
    5d2f:	48 8d 50 01          	lea    0x1(%rax),%rdx
    5d33:	48 8b 45 f8          	mov    -0x8(%rbp),%rax
    5d37:	48 89 10             	mov    %rdx,(%rax)
    5d3a:	48 8b 45 f8          	mov    -0x8(%rbp),%rax
    5d3e:	5d                   	pop    %rbp
    5d3f:	c3                   	ret    

0000000000005d40 <_ZNK9__gnu_cxx17__normal_iteratorIPKcNSt7__cxx1112basic_stringIcSt11char_traitsIcESaIcEEEEdeEv>:
    5d40:	f3 0f 1e fa          	endbr64 
    5d44:	55                   	push   %rbp
    5d45:	48 89 e5             	mov    %rsp,%rbp
    5d48:	48 89 7d f8          	mov    %rdi,-0x8(%rbp)
    5d4c:	48 8b 45 f8          	mov    -0x8(%rbp),%rax
    5d50:	48 8b 00             	mov    (%rax),%rax
    5d53:	5d                   	pop    %rbp
    5d54:	c3                   	ret    
    5d55:	90                   	nop

0000000000005d56 <_ZNSt12_Vector_baseISt3mapINSt7__cxx1112basic_stringIcSt11char_traitsIcESaIcEEES6_St4lessIS6_ESaISt4pairIKS6_S6_EEESaISD_EE12_Vector_implC1Ev>:
    5d56:	f3 0f 1e fa          	endbr64 
    5d5a:	55                   	push   %rbp
    5d5b:	48 89 e5             	mov    %rsp,%rbp
    5d5e:	48 83 ec 20          	sub    $0x20,%rsp
    5d62:	48 89 7d e8          	mov    %rdi,-0x18(%rbp)
    5d66:	48 8b 45 e8          	mov    -0x18(%rbp),%rax
    5d6a:	48 89 45 f0          	mov    %rax,-0x10(%rbp)
    5d6e:	48 8b 45 f0          	mov    -0x10(%rbp),%rax
    5d72:	48 89 45 f8          	mov    %rax,-0x8(%rbp)
    5d76:	90                   	nop
    5d77:	90                   	nop
    5d78:	48 8b 45 e8          	mov    -0x18(%rbp),%rax
    5d7c:	48 89 c7             	mov    %rax,%rdi
    5d7f:	e8 ee 10 00 00       	call   6e72 <_ZNSt12_Vector_baseISt3mapINSt7__cxx1112basic_stringIcSt11char_traitsIcESaIcEEES6_St4lessIS6_ESaISt4pairIKS6_S6_EEESaISD_EE17_Vector_impl_dataC1Ev>
    5d84:	90                   	nop
    5d85:	c9                   	leave  
    5d86:	c3                   	ret    
    5d87:	90                   	nop

0000000000005d88 <_ZNSt12_Vector_baseISt3mapINSt7__cxx1112basic_stringIcSt11char_traitsIcESaIcEEES6_St4lessIS6_ESaISt4pairIKS6_S6_EEESaISD_EED1Ev>:
    5d88:	f3 0f 1e fa          	endbr64 
    5d8c:	55                   	push   %rbp
    5d8d:	48 89 e5             	mov    %rsp,%rbp
    5d90:	48 83 ec 10          	sub    $0x10,%rsp
    5d94:	48 89 7d f8          	mov    %rdi,-0x8(%rbp)
    5d98:	48 8b 45 f8          	mov    -0x8(%rbp),%rax
    5d9c:	48 8b 50 10          	mov    0x10(%rax),%rdx
    5da0:	48 8b 45 f8          	mov    -0x8(%rbp),%rax
    5da4:	48 8b 00             	mov    (%rax),%rax
    5da7:	48 29 c2             	sub    %rax,%rdx
    5daa:	48 c1 fa 04          	sar    $0x4,%rdx
    5dae:	48 b8 ab aa aa aa aa 	movabs $0xaaaaaaaaaaaaaaab,%rax
    5db5:	aa aa aa 
    5db8:	48 0f af c2          	imul   %rdx,%rax
    5dbc:	48 89 c2             	mov    %rax,%rdx
    5dbf:	48 8b 45 f8          	mov    -0x8(%rbp),%rax
    5dc3:	48 8b 08             	mov    (%rax),%rcx
    5dc6:	48 8b 45 f8          	mov    -0x8(%rbp),%rax
    5dca:	48 89 ce             	mov    %rcx,%rsi
    5dcd:	48 89 c7             	mov    %rax,%rdi
    5dd0:	e8 df 10 00 00       	call   6eb4 <_ZNSt12_Vector_baseISt3mapINSt7__cxx1112basic_stringIcSt11char_traitsIcESaIcEEES6_St4lessIS6_ESaISt4pairIKS6_S6_EEESaISD_EE13_M_deallocateEPSD_m>
    5dd5:	48 8b 45 f8          	mov    -0x8(%rbp),%rax
    5dd9:	48 89 c7             	mov    %rax,%rdi
    5ddc:	e8 99 fc ff ff       	call   5a7a <_ZNSt12_Vector_baseISt3mapINSt7__cxx1112basic_stringIcSt11char_traitsIcESaIcEEES6_St4lessIS6_ESaISt4pairIKS6_S6_EEESaISD_EE12_Vector_implD1Ev>
    5de1:	90                   	nop
    5de2:	c9                   	leave  
    5de3:	c3                   	ret    

0000000000005de4 <_ZNSt6vectorISt3mapINSt7__cxx1112basic_stringIcSt11char_traitsIcESaIcEEES6_St4lessIS6_ESaISt4pairIKS6_S6_EEESaISD_EED1Ev>:
    5de4:	f3 0f 1e fa          	endbr64 
    5de8:	55                   	push   %rbp
    5de9:	48 89 e5             	mov    %rsp,%rbp
    5dec:	48 83 ec 30          	sub    $0x30,%rsp
    5df0:	48 89 7d d8          	mov    %rdi,-0x28(%rbp)
    5df4:	48 8b 45 d8          	mov    -0x28(%rbp),%rax
    5df8:	48 89 c7             	mov    %rax,%rdi
    5dfb:	e8 06 11 00 00       	call   6f06 <_ZNSt12_Vector_baseISt3mapINSt7__cxx1112basic_stringIcSt11char_traitsIcESaIcEEES6_St4lessIS6_ESaISt4pairIKS6_S6_EEESaISD_EE19_M_get_Tp_allocatorEv>
    5e00:	48 8b 55 d8          	mov    -0x28(%rbp),%rdx
    5e04:	48 8b 52 08          	mov    0x8(%rdx),%rdx
    5e08:	48 8b 4d d8          	mov    -0x28(%rbp),%rcx
    5e0c:	48 8b 09             	mov    (%rcx),%rcx
    5e0f:	48 89 4d e8          	mov    %rcx,-0x18(%rbp)
    5e13:	48 89 55 f0          	mov    %rdx,-0x10(%rbp)
    5e17:	48 89 45 f8          	mov    %rax,-0x8(%rbp)
    5e1b:	48 8b 55 f0          	mov    -0x10(%rbp),%rdx
    5e1f:	48 8b 45 e8          	mov    -0x18(%rbp),%rax
    5e23:	48 89 d6             	mov    %rdx,%rsi
    5e26:	48 89 c7             	mov    %rax,%rdi
    5e29:	e8 18 25 00 00       	call   8346 <_ZSt8_DestroyIPSt3mapINSt7__cxx1112basic_stringIcSt11char_traitsIcESaIcEEES6_St4lessIS6_ESaISt4pairIKS6_S6_EEEEvT_SF_>
    5e2e:	90                   	nop
    5e2f:	48 8b 45 d8          	mov    -0x28(%rbp),%rax
    5e33:	48 89 c7             	mov    %rax,%rdi
    5e36:	e8 4d ff ff ff       	call   5d88 <_ZNSt12_Vector_baseISt3mapINSt7__cxx1112basic_stringIcSt11char_traitsIcESaIcEEES6_St4lessIS6_ESaISt4pairIKS6_S6_EEESaISD_EED1Ev>
    5e3b:	90                   	nop
    5e3c:	c9                   	leave  
    5e3d:	c3                   	ret    

0000000000005e3e <_ZNSt8_Rb_treeINSt7__cxx1112basic_stringIcSt11char_traitsIcESaIcEEESt4pairIKS5_S5_ESt10_Select1stIS8_ESt4lessIS5_ESaIS8_EE13_Rb_tree_implISC_Lb1EEC1Ev>:
    5e3e:	f3 0f 1e fa          	endbr64 
    5e42:	55                   	push   %rbp
    5e43:	48 89 e5             	mov    %rsp,%rbp
    5e46:	48 83 ec 20          	sub    $0x20,%rsp
    5e4a:	48 89 7d e8          	mov    %rdi,-0x18(%rbp)
    5e4e:	48 8b 45 e8          	mov    -0x18(%rbp),%rax
    5e52:	48 89 45 f0          	mov    %rax,-0x10(%rbp)
    5e56:	48 8b 45 f0          	mov    -0x10(%rbp),%rax
    5e5a:	48 89 45 f8          	mov    %rax,-0x8(%rbp)
    5e5e:	90                   	nop
    5e5f:	90                   	nop
    5e60:	48 8b 45 e8          	mov    -0x18(%rbp),%rax
    5e64:	48 89 c7             	mov    %rax,%rdi
    5e67:	e8 ac 10 00 00       	call   6f18 <_ZNSt20_Rb_tree_key_compareISt4lessINSt7__cxx1112basic_stringIcSt11char_traitsIcESaIcEEEEEC1Ev>
    5e6c:	48 8b 45 e8          	mov    -0x18(%rbp),%rax
    5e70:	48 83 c0 08          	add    $0x8,%rax
    5e74:	48 89 c7             	mov    %rax,%rdi
    5e77:	e8 c4 fa ff ff       	call   5940 <_ZNSt15_Rb_tree_headerC1Ev>
    5e7c:	90                   	nop
    5e7d:	c9                   	leave  
    5e7e:	c3                   	ret    
    5e7f:	90                   	nop

0000000000005e80 <_ZNSt8_Rb_treeINSt7__cxx1112basic_stringIcSt11char_traitsIcESaIcEEESt4pairIKS5_S5_ESt10_Select1stIS8_ESt4lessIS5_ESaIS8_EED1Ev>:
    5e80:	f3 0f 1e fa          	endbr64 
    5e84:	55                   	push   %rbp
    5e85:	48 89 e5             	mov    %rsp,%rbp
    5e88:	48 83 ec 10          	sub    $0x10,%rsp
    5e8c:	48 89 7d f8          	mov    %rdi,-0x8(%rbp)
    5e90:	48 8b 45 f8          	mov    -0x8(%rbp),%rax
    5e94:	48 89 c7             	mov    %rax,%rdi
    5e97:	e8 06 11 00 00       	call   6fa2 <_ZNSt8_Rb_treeINSt7__cxx1112basic_stringIcSt11char_traitsIcESaIcEEESt4pairIKS5_S5_ESt10_Select1stIS8_ESt4lessIS5_ESaIS8_EE8_M_beginEv>
    5e9c:	48 89 c2             	mov    %rax,%rdx
    5e9f:	48 8b 45 f8          	mov    -0x8(%rbp),%rax
    5ea3:	48 89 d6             	mov    %rdx,%rsi
    5ea6:	48 89 c7             	mov    %rax,%rdi
    5ea9:	e8 8a 10 00 00       	call   6f38 <_ZNSt8_Rb_treeINSt7__cxx1112basic_stringIcSt11char_traitsIcESaIcEEESt4pairIKS5_S5_ESt10_Select1stIS8_ESt4lessIS5_ESaIS8_EE8_M_eraseEPSt13_Rb_tree_nodeIS8_E>
    5eae:	48 8b 45 f8          	mov    -0x8(%rbp),%rax
    5eb2:	48 89 c7             	mov    %rax,%rdi
    5eb5:	e8 28 fc ff ff       	call   5ae2 <_ZNSt8_Rb_treeINSt7__cxx1112basic_stringIcSt11char_traitsIcESaIcEEESt4pairIKS5_S5_ESt10_Select1stIS8_ESt4lessIS5_ESaIS8_EE13_Rb_tree_implISC_Lb1EED1Ev>
    5eba:	90                   	nop
    5ebb:	c9                   	leave  
    5ebc:	c3                   	ret    
    5ebd:	90                   	nop

0000000000005ebe <_ZNSt3mapINSt7__cxx1112basic_stringIcSt11char_traitsIcESaIcEEES5_St4lessIS5_ESaISt4pairIKS5_S5_EEEixERS9_>:
    5ebe:	f3 0f 1e fa          	endbr64 
    5ec2:	55                   	push   %rbp
    5ec3:	48 89 e5             	mov    %rsp,%rbp
    5ec6:	53                   	push   %rbx
    5ec7:	48 83 ec 48          	sub    $0x48,%rsp
    5ecb:	48 89 7d b8          	mov    %rdi,-0x48(%rbp)
    5ecf:	48 89 75 b0          	mov    %rsi,-0x50(%rbp)
    5ed3:	64 48 8b 04 25 28 00 	mov    %fs:0x28,%rax
    5eda:	00 00 
    5edc:	48 89 45 e8          	mov    %rax,-0x18(%rbp)
    5ee0:	31 c0                	xor    %eax,%eax
    5ee2:	48 8b 55 b0          	mov    -0x50(%rbp),%rdx
    5ee6:	48 8b 45 b8          	mov    -0x48(%rbp),%rax
    5eea:	48 89 d6             	mov    %rdx,%rsi
    5eed:	48 89 c7             	mov    %rax,%rdi
    5ef0:	e8 cb 10 00 00       	call   6fc0 <_ZNSt3mapINSt7__cxx1112basic_stringIcSt11char_traitsIcESaIcEEES5_St4lessIS5_ESaISt4pairIKS5_S5_EEE11lower_boundERS9_>
    5ef5:	48 89 45 d0          	mov    %rax,-0x30(%rbp)
    5ef9:	48 8b 45 b8          	mov    -0x48(%rbp),%rax
    5efd:	48 89 c7             	mov    %rax,%rdi
    5f00:	e8 e5 10 00 00       	call   6fea <_ZNSt3mapINSt7__cxx1112basic_stringIcSt11char_traitsIcESaIcEEES5_St4lessIS5_ESaISt4pairIKS5_S5_EEE3endEv>
    5f05:	48 89 45 e0          	mov    %rax,-0x20(%rbp)
    5f09:	48 8d 55 e0          	lea    -0x20(%rbp),%rdx
    5f0d:	48 8d 45 d0          	lea    -0x30(%rbp),%rax
    5f11:	48 89 d6             	mov    %rdx,%rsi
    5f14:	48 89 c7             	mov    %rax,%rdi
    5f17:	e8 ec 10 00 00       	call   7008 <_ZSteqRKSt17_Rb_tree_iteratorISt4pairIKNSt7__cxx1112basic_stringIcSt11char_traitsIcESaIcEEES6_EESB_>
    5f1c:	84 c0                	test   %al,%al
    5f1e:	75 32                	jne    5f52 <_ZNSt3mapINSt7__cxx1112basic_stringIcSt11char_traitsIcESaIcEEES5_St4lessIS5_ESaISt4pairIKS5_S5_EEEixERS9_+0x94>
    5f20:	48 8b 45 b8          	mov    -0x48(%rbp),%rax
    5f24:	48 89 c7             	mov    %rax,%rdi
    5f27:	e8 02 11 00 00       	call   702e <_ZNKSt3mapINSt7__cxx1112basic_stringIcSt11char_traitsIcESaIcEEES5_St4lessIS5_ESaISt4pairIKS5_S5_EEE8key_compEv>
    5f2c:	48 8d 45 d0          	lea    -0x30(%rbp),%rax
    5f30:	48 89 c7             	mov    %rax,%rdi
    5f33:	e8 16 11 00 00       	call   704e <_ZNKSt17_Rb_tree_iteratorISt4pairIKNSt7__cxx1112basic_stringIcSt11char_traitsIcESaIcEEES6_EEdeEv>
    5f38:	48 89 c2             	mov    %rax,%rdx
    5f3b:	48 8b 4d b0          	mov    -0x50(%rbp),%rcx
    5f3f:	48 8d 45 d8          	lea    -0x28(%rbp),%rax
    5f43:	48 89 ce             	mov    %rcx,%rsi
    5f46:	48 89 c7             	mov    %rax,%rdi
    5f49:	e8 22 11 00 00       	call   7070 <_ZNKSt4lessINSt7__cxx1112basic_stringIcSt11char_traitsIcESaIcEEEEclERKS5_S8_>
    5f4e:	84 c0                	test   %al,%al
    5f50:	74 07                	je     5f59 <_ZNSt3mapINSt7__cxx1112basic_stringIcSt11char_traitsIcESaIcEEES5_St4lessIS5_ESaISt4pairIKS5_S5_EEEixERS9_+0x9b>
    5f52:	b8 01 00 00 00       	mov    $0x1,%eax
    5f57:	eb 05                	jmp    5f5e <_ZNSt3mapINSt7__cxx1112basic_stringIcSt11char_traitsIcESaIcEEES5_St4lessIS5_ESaISt4pairIKS5_S5_EEEixERS9_+0xa0>
    5f59:	b8 00 00 00 00       	mov    $0x0,%eax
    5f5e:	84 c0                	test   %al,%al
    5f60:	74 52                	je     5fb4 <_ZNSt3mapINSt7__cxx1112basic_stringIcSt11char_traitsIcESaIcEEES5_St4lessIS5_ESaISt4pairIKS5_S5_EEEixERS9_+0xf6>
    5f62:	48 8b 5d b8          	mov    -0x48(%rbp),%rbx
    5f66:	48 8b 55 b0          	mov    -0x50(%rbp),%rdx
    5f6a:	48 8d 45 d8          	lea    -0x28(%rbp),%rax
    5f6e:	48 89 d6             	mov    %rdx,%rsi
    5f71:	48 89 c7             	mov    %rax,%rdi
    5f74:	e8 25 11 00 00       	call   709e <_ZNSt5tupleIJRKNSt7__cxx1112basic_stringIcSt11char_traitsIcESaIcEEEEEC1ILb1ELb1EEES7_>
    5f79:	48 8d 55 d0          	lea    -0x30(%rbp),%rdx
    5f7d:	48 8d 45 e0          	lea    -0x20(%rbp),%rax
    5f81:	48 89 d6             	mov    %rdx,%rsi
    5f84:	48 89 c7             	mov    %rax,%rdi
    5f87:	e8 3c 11 00 00       	call   70c8 <_ZNSt23_Rb_tree_const_iteratorISt4pairIKNSt7__cxx1112basic_stringIcSt11char_traitsIcESaIcEEES6_EEC1ERKSt17_Rb_tree_iteratorIS8_E>
    5f8c:	48 8d 4d cf          	lea    -0x31(%rbp),%rcx
    5f90:	48 8d 55 d8          	lea    -0x28(%rbp),%rdx
    5f94:	48 8b 45 e0          	mov    -0x20(%rbp),%rax
    5f98:	49 89 c8             	mov    %rcx,%r8
    5f9b:	48 89 d1             	mov    %rdx,%rcx
    5f9e:	48 8d 15 5f 60 00 00 	lea    0x605f(%rip),%rdx        # c004 <_ZSt19piecewise_construct>
    5fa5:	48 89 c6             	mov    %rax,%rsi
    5fa8:	48 89 df             	mov    %rbx,%rdi
    5fab:	e8 3a 11 00 00       	call   70ea <_ZNSt8_Rb_treeINSt7__cxx1112basic_stringIcSt11char_traitsIcESaIcEEESt4pairIKS5_S5_ESt10_Select1stIS8_ESt4lessIS5_ESaIS8_EE22_M_emplace_hint_uniqueIJRKSt21piecewise_construct_tSt5tupleIJRS7_EESJ_IJEEEEESt17_Rb_tree_iteratorIS8_ESt23_Rb_tree_const_iteratorIS8_EDpOT_>
    5fb0:	48 89 45 d0          	mov    %rax,-0x30(%rbp)
    5fb4:	48 8d 45 d0          	lea    -0x30(%rbp),%rax
    5fb8:	48 89 c7             	mov    %rax,%rdi
    5fbb:	e8 8e 10 00 00       	call   704e <_ZNKSt17_Rb_tree_iteratorISt4pairIKNSt7__cxx1112basic_stringIcSt11char_traitsIcESaIcEEES6_EEdeEv>
    5fc0:	48 83 c0 20          	add    $0x20,%rax
    5fc4:	48 8b 55 e8          	mov    -0x18(%rbp),%rdx
    5fc8:	64 48 2b 14 25 28 00 	sub    %fs:0x28,%rdx
    5fcf:	00 00 
    5fd1:	74 05                	je     5fd8 <_ZNSt3mapINSt7__cxx1112basic_stringIcSt11char_traitsIcESaIcEEES5_St4lessIS5_ESaISt4pairIKS5_S5_EEEixERS9_+0x11a>
    5fd3:	e8 a8 d7 ff ff       	call   3780 <_init+0x780>
    5fd8:	48 8b 5d f8          	mov    -0x8(%rbp),%rbx
    5fdc:	c9                   	leave  
    5fdd:	c3                   	ret    

0000000000005fde <_ZNSt6vectorISt3mapINSt7__cxx1112basic_stringIcSt11char_traitsIcESaIcEEES6_St4lessIS6_ESaISt4pairIKS6_S6_EEESaISD_EE9push_backERKSD_>:
    5fde:	f3 0f 1e fa          	endbr64 
    5fe2:	55                   	push   %rbp
    5fe3:	48 89 e5             	mov    %rsp,%rbp
    5fe6:	41 56                	push   %r14
    5fe8:	41 55                	push   %r13
    5fea:	41 54                	push   %r12
    5fec:	53                   	push   %rbx
    5fed:	48 83 ec 40          	sub    $0x40,%rsp
    5ff1:	48 89 7d a8          	mov    %rdi,-0x58(%rbp)
    5ff5:	48 89 75 a0          	mov    %rsi,-0x60(%rbp)
    5ff9:	48 8b 45 a8          	mov    -0x58(%rbp),%rax
    5ffd:	48 8b 50 08          	mov    0x8(%rax),%rdx
    6001:	48 8b 45 a8          	mov    -0x58(%rbp),%rax
    6005:	48 8b 40 10          	mov    0x10(%rax),%rax
    6009:	48 39 c2             	cmp    %rax,%rdx
    600c:	0f 84 a7 00 00 00    	je     60b9 <_ZNSt6vectorISt3mapINSt7__cxx1112basic_stringIcSt11char_traitsIcESaIcEEES6_St4lessIS6_ESaISt4pairIKS6_S6_EEESaISD_EE9push_backERKSD_+0xdb>
    6012:	48 8b 45 a8          	mov    -0x58(%rbp),%rax
    6016:	48 8b 40 08          	mov    0x8(%rax),%rax
    601a:	48 8b 55 a8          	mov    -0x58(%rbp),%rdx
    601e:	48 89 55 b0          	mov    %rdx,-0x50(%rbp)
    6022:	48 89 45 b8          	mov    %rax,-0x48(%rbp)
    6026:	48 8b 45 a0          	mov    -0x60(%rbp),%rax
    602a:	48 89 45 c0          	mov    %rax,-0x40(%rbp)
    602e:	48 8b 45 c0          	mov    -0x40(%rbp),%rax
    6032:	48 89 c7             	mov    %rax,%rdi
    6035:	e8 32 2a 00 00       	call   8a6c <_ZSt7forwardIRKSt3mapINSt7__cxx1112basic_stringIcSt11char_traitsIcESaIcEEES6_St4lessIS6_ESaISt4pairIKS6_S6_EEEEOT_RNSt16remove_referenceISG_E4typeE>
    603a:	48 8b 55 b0          	mov    -0x50(%rbp),%rdx
    603e:	48 89 55 c8          	mov    %rdx,-0x38(%rbp)
    6042:	48 8b 55 b8          	mov    -0x48(%rbp),%rdx
    6046:	48 89 55 d0          	mov    %rdx,-0x30(%rbp)
    604a:	48 89 45 d8          	mov    %rax,-0x28(%rbp)
    604e:	48 8b 5d d0          	mov    -0x30(%rbp),%rbx
    6052:	48 89 de             	mov    %rbx,%rsi
    6055:	bf 30 00 00 00       	mov    $0x30,%edi
    605a:	e8 77 f7 ff ff       	call   57d6 <_ZnwmPv>
    605f:	49 89 c4             	mov    %rax,%r12
    6062:	41 be 01 00 00 00    	mov    $0x1,%r14d
    6068:	48 8b 45 d8          	mov    -0x28(%rbp),%rax
    606c:	48 89 c7             	mov    %rax,%rdi
    606f:	e8 f8 29 00 00       	call   8a6c <_ZSt7forwardIRKSt3mapINSt7__cxx1112basic_stringIcSt11char_traitsIcESaIcEEES6_St4lessIS6_ESaISt4pairIKS6_S6_EEEEOT_RNSt16remove_referenceISG_E4typeE>
    6074:	48 89 c6             	mov    %rax,%rsi
    6077:	4c 89 e7             	mov    %r12,%rdi
    607a:	e8 ff 29 00 00       	call   8a7e <_ZNSt3mapINSt7__cxx1112basic_stringIcSt11char_traitsIcESaIcEEES5_St4lessIS5_ESaISt4pairIKS5_S5_EEEC1ERKSC_>
    607f:	90                   	nop
    6080:	90                   	nop
    6081:	48 8b 45 a8          	mov    -0x58(%rbp),%rax
    6085:	48 8b 40 08          	mov    0x8(%rax),%rax
    6089:	48 8d 50 30          	lea    0x30(%rax),%rdx
    608d:	48 8b 45 a8          	mov    -0x58(%rbp),%rax
    6091:	48 89 50 08          	mov    %rdx,0x8(%rax)
    6095:	eb 44                	jmp    60db <_ZNSt6vectorISt3mapINSt7__cxx1112basic_stringIcSt11char_traitsIcESaIcEEES6_St4lessIS6_ESaISt4pairIKS6_S6_EEESaISD_EE9push_backERKSD_+0xfd>
    6097:	f3 0f 1e fa          	endbr64 
    609b:	49 89 c5             	mov    %rax,%r13
    609e:	45 84 f6             	test   %r14b,%r14b
    60a1:	74 0b                	je     60ae <_ZNSt6vectorISt3mapINSt7__cxx1112basic_stringIcSt11char_traitsIcESaIcEEES6_St4lessIS6_ESaISt4pairIKS6_S6_EEESaISD_EE9push_backERKSD_+0xd0>
    60a3:	48 89 de             	mov    %rbx,%rsi
    60a6:	4c 89 e7             	mov    %r12,%rdi
    60a9:	e8 3e f7 ff ff       	call   57ec <_ZdlPvS_>
    60ae:	4c 89 e8             	mov    %r13,%rax
    60b1:	48 89 c7             	mov    %rax,%rdi
    60b4:	e8 57 d8 ff ff       	call   3910 <_init+0x910>
    60b9:	48 8b 45 a8          	mov    -0x58(%rbp),%rax
    60bd:	48 89 c7             	mov    %rax,%rdi
    60c0:	e8 cf 0a 00 00       	call   6b94 <_ZNSt6vectorISt3mapINSt7__cxx1112basic_stringIcSt11char_traitsIcESaIcEEES6_St4lessIS6_ESaISt4pairIKS6_S6_EEESaISD_EE3endEv>
    60c5:	48 89 c1             	mov    %rax,%rcx
    60c8:	48 8b 55 a0          	mov    -0x60(%rbp),%rdx
    60cc:	48 8b 45 a8          	mov    -0x58(%rbp),%rax
    60d0:	48 89 ce             	mov    %rcx,%rsi
    60d3:	48 89 c7             	mov    %rax,%rdi
    60d6:	e8 4b 11 00 00       	call   7226 <_ZNSt6vectorISt3mapINSt7__cxx1112basic_stringIcSt11char_traitsIcESaIcEEES6_St4lessIS6_ESaISt4pairIKS6_S6_EEESaISD_EE17_M_realloc_insertIJRKSD_EEEvN9__gnu_cxx17__normal_iteratorIPSD_SF_EEDpOT_>
    60db:	90                   	nop
    60dc:	48 83 c4 40          	add    $0x40,%rsp
    60e0:	5b                   	pop    %rbx
    60e1:	41 5c                	pop    %r12
    60e3:	41 5d                	pop    %r13
    60e5:	41 5e                	pop    %r14
    60e7:	5d                   	pop    %rbp
    60e8:	c3                   	ret    
    60e9:	90                   	nop

00000000000060ea <_ZNSt12_Vector_baseISt3mapINSt7__cxx1112basic_stringIcSt11char_traitsIcESaIcEEES6_St4lessIS6_ESaISt4pairIKS6_S6_EEESaISD_EE12_Vector_implC1EOSG_>:
    60ea:	f3 0f 1e fa          	endbr64 
    60ee:	55                   	push   %rbp
    60ef:	48 89 e5             	mov    %rsp,%rbp
    60f2:	53                   	push   %rbx
    60f3:	48 83 ec 38          	sub    $0x38,%rsp
    60f7:	48 89 7d c8          	mov    %rdi,-0x38(%rbp)
    60fb:	48 89 75 c0          	mov    %rsi,-0x40(%rbp)
    60ff:	48 8b 45 c0          	mov    -0x40(%rbp),%rax
    6103:	48 89 c7             	mov    %rax,%rdi
    6106:	e8 17 15 00 00       	call   7622 <_ZSt4moveIRNSt12_Vector_baseISt3mapINSt7__cxx1112basic_stringIcSt11char_traitsIcESaIcEEES7_St4lessIS7_ESaISt4pairIKS7_S7_EEESaISE_EE12_Vector_implEEONSt16remove_referenceIT_E4typeEOSK_>
    610b:	48 8b 55 c8          	mov    -0x38(%rbp),%rdx
    610f:	48 89 55 d0          	mov    %rdx,-0x30(%rbp)
    6113:	48 89 45 d8          	mov    %rax,-0x28(%rbp)
    6117:	48 8b 45 d0          	mov    -0x30(%rbp),%rax
    611b:	48 89 45 e0          	mov    %rax,-0x20(%rbp)
    611f:	48 8b 45 d8          	mov    -0x28(%rbp),%rax
    6123:	48 89 45 e8          	mov    %rax,-0x18(%rbp)
    6127:	90                   	nop
    6128:	90                   	nop
    6129:	48 8b 5d c8          	mov    -0x38(%rbp),%rbx
    612d:	48 8b 45 c0          	mov    -0x40(%rbp),%rax
    6131:	48 89 c7             	mov    %rax,%rdi
    6134:	e8 e9 14 00 00       	call   7622 <_ZSt4moveIRNSt12_Vector_baseISt3mapINSt7__cxx1112basic_stringIcSt11char_traitsIcESaIcEEES7_St4lessIS7_ESaISt4pairIKS7_S7_EEESaISE_EE12_Vector_implEEONSt16remove_referenceIT_E4typeEOSK_>
    6139:	48 89 c6             	mov    %rax,%rsi
    613c:	48 89 df             	mov    %rbx,%rdi
    613f:	e8 f0 14 00 00       	call   7634 <_ZNSt12_Vector_baseISt3mapINSt7__cxx1112basic_stringIcSt11char_traitsIcESaIcEEES6_St4lessIS6_ESaISt4pairIKS6_S6_EEESaISD_EE17_Vector_impl_dataC1EOSG_>
    6144:	90                   	nop
    6145:	48 8b 5d f8          	mov    -0x8(%rbp),%rbx
    6149:	c9                   	leave  
    614a:	c3                   	ret    
    614b:	90                   	nop

000000000000614c <_ZNKSt6vectorINSt7__cxx1112basic_stringIcSt11char_traitsIcESaIcEEESaIS5_EE5beginEv>:
    614c:	f3 0f 1e fa          	endbr64 
    6150:	55                   	push   %rbp
    6151:	48 89 e5             	mov    %rsp,%rbp
    6154:	48 83 ec 20          	sub    $0x20,%rsp
    6158:	48 89 7d e8          	mov    %rdi,-0x18(%rbp)
    615c:	64 48 8b 04 25 28 00 	mov    %fs:0x28,%rax
    6163:	00 00 
    6165:	48 89 45 f8          	mov    %rax,-0x8(%rbp)
    6169:	31 c0                	xor    %eax,%eax
    616b:	48 8b 55 e8          	mov    -0x18(%rbp),%rdx
    616f:	48 8d 45 f0          	lea    -0x10(%rbp),%rax
    6173:	48 89 d6             	mov    %rdx,%rsi
    6176:	48 89 c7             	mov    %rax,%rdi
    6179:	e8 22 15 00 00       	call   76a0 <_ZN9__gnu_cxx17__normal_iteratorIPKNSt7__cxx1112basic_stringIcSt11char_traitsIcESaIcEEESt6vectorIS6_SaIS6_EEEC1ERKS8_>
    617e:	48 8b 45 f0          	mov    -0x10(%rbp),%rax
    6182:	48 8b 55 f8          	mov    -0x8(%rbp),%rdx
    6186:	64 48 2b 14 25 28 00 	sub    %fs:0x28,%rdx
    618d:	00 00 
    618f:	74 05                	je     6196 <_ZNKSt6vectorINSt7__cxx1112basic_stringIcSt11char_traitsIcESaIcEEESaIS5_EE5beginEv+0x4a>
    6191:	e8 ea d5 ff ff       	call   3780 <_init+0x780>
    6196:	c9                   	leave  
    6197:	c3                   	ret    

0000000000006198 <_ZNKSt6vectorINSt7__cxx1112basic_stringIcSt11char_traitsIcESaIcEEESaIS5_EE3endEv>:
    6198:	f3 0f 1e fa          	endbr64 
    619c:	55                   	push   %rbp
    619d:	48 89 e5             	mov    %rsp,%rbp
    61a0:	48 83 ec 20          	sub    $0x20,%rsp
    61a4:	48 89 7d e8          	mov    %rdi,-0x18(%rbp)
    61a8:	64 48 8b 04 25 28 00 	mov    %fs:0x28,%rax
    61af:	00 00 
    61b1:	48 89 45 f8          	mov    %rax,-0x8(%rbp)
    61b5:	31 c0                	xor    %eax,%eax
    61b7:	48 8b 45 e8          	mov    -0x18(%rbp),%rax
    61bb:	48 8d 50 08          	lea    0x8(%rax),%rdx
    61bf:	48 8d 45 f0          	lea    -0x10(%rbp),%rax
    61c3:	48 89 d6             	mov    %rdx,%rsi
    61c6:	48 89 c7             	mov    %rax,%rdi
    61c9:	e8 d2 14 00 00       	call   76a0 <_ZN9__gnu_cxx17__normal_iteratorIPKNSt7__cxx1112basic_stringIcSt11char_traitsIcESaIcEEESt6vectorIS6_SaIS6_EEEC1ERKS8_>
    61ce:	48 8b 45 f0          	mov    -0x10(%rbp),%rax
    61d2:	48 8b 55 f8          	mov    -0x8(%rbp),%rdx
    61d6:	64 48 2b 14 25 28 00 	sub    %fs:0x28,%rdx
    61dd:	00 00 
    61df:	74 05                	je     61e6 <_ZNKSt6vectorINSt7__cxx1112basic_stringIcSt11char_traitsIcESaIcEEESaIS5_EE3endEv+0x4e>
    61e1:	e8 9a d5 ff ff       	call   3780 <_init+0x780>
    61e6:	c9                   	leave  
    61e7:	c3                   	ret    

00000000000061e8 <_ZN9__gnu_cxxneIPKNSt7__cxx1112basic_stringIcSt11char_traitsIcESaIcEEESt6vectorIS6_SaIS6_EEEEbRKNS_17__normal_iteratorIT_T0_EESH_>:
    61e8:	f3 0f 1e fa          	endbr64 
    61ec:	55                   	push   %rbp
    61ed:	48 89 e5             	mov    %rsp,%rbp
    61f0:	53                   	push   %rbx
    61f1:	48 83 ec 18          	sub    $0x18,%rsp
    61f5:	48 89 7d e8          	mov    %rdi,-0x18(%rbp)
    61f9:	48 89 75 e0          	mov    %rsi,-0x20(%rbp)
    61fd:	48 8b 45 e8          	mov    -0x18(%rbp),%rax
    6201:	48 89 c7             	mov    %rax,%rdi
    6204:	e8 b9 14 00 00       	call   76c2 <_ZNK9__gnu_cxx17__normal_iteratorIPKNSt7__cxx1112basic_stringIcSt11char_traitsIcESaIcEEESt6vectorIS6_SaIS6_EEE4baseEv>
    6209:	48 8b 18             	mov    (%rax),%rbx
    620c:	48 8b 45 e0          	mov    -0x20(%rbp),%rax
    6210:	48 89 c7             	mov    %rax,%rdi
    6213:	e8 aa 14 00 00       	call   76c2 <_ZNK9__gnu_cxx17__normal_iteratorIPKNSt7__cxx1112basic_stringIcSt11char_traitsIcESaIcEEESt6vectorIS6_SaIS6_EEE4baseEv>
    6218:	48 8b 00             	mov    (%rax),%rax
    621b:	48 39 c3             	cmp    %rax,%rbx
    621e:	0f 95 c0             	setne  %al
    6221:	48 8b 5d f8          	mov    -0x8(%rbp),%rbx
    6225:	c9                   	leave  
    6226:	c3                   	ret    
    6227:	90                   	nop

0000000000006228 <_ZN9__gnu_cxx17__normal_iteratorIPKNSt7__cxx1112basic_stringIcSt11char_traitsIcESaIcEEESt6vectorIS6_SaIS6_EEEppEv>:
    6228:	f3 0f 1e fa          	endbr64 
    622c:	55                   	push   %rbp
    622d:	48 89 e5             	mov    %rsp,%rbp
    6230:	48 89 7d f8          	mov    %rdi,-0x8(%rbp)
    6234:	48 8b 45 f8          	mov    -0x8(%rbp),%rax
    6238:	48 8b 00             	mov    (%rax),%rax
    623b:	48 8d 50 20          	lea    0x20(%rax),%rdx
    623f:	48 8b 45 f8          	mov    -0x8(%rbp),%rax
    6243:	48 89 10             	mov    %rdx,(%rax)
    6246:	48 8b 45 f8          	mov    -0x8(%rbp),%rax
    624a:	5d                   	pop    %rbp
    624b:	c3                   	ret    

000000000000624c <_ZNK9__gnu_cxx17__normal_iteratorIPKNSt7__cxx1112basic_stringIcSt11char_traitsIcESaIcEEESt6vectorIS6_SaIS6_EEEdeEv>:
    624c:	f3 0f 1e fa          	endbr64 
    6250:	55                   	push   %rbp
    6251:	48 89 e5             	mov    %rsp,%rbp
    6254:	48 89 7d f8          	mov    %rdi,-0x8(%rbp)
    6258:	48 8b 45 f8          	mov    -0x8(%rbp),%rax
    625c:	48 8b 00             	mov    (%rax),%rax
    625f:	5d                   	pop    %rbp
    6260:	c3                   	ret    
    6261:	90                   	nop

0000000000006262 <_ZNKSt3mapINSt7__cxx1112basic_stringIcSt11char_traitsIcESaIcEEES5_St4lessIS5_ESaISt4pairIKS5_S5_EEE4findERS9_>:
    6262:	f3 0f 1e fa          	endbr64 
    6266:	55                   	push   %rbp
    6267:	48 89 e5             	mov    %rsp,%rbp
    626a:	48 83 ec 10          	sub    $0x10,%rsp
    626e:	48 89 7d f8          	mov    %rdi,-0x8(%rbp)
    6272:	48 89 75 f0          	mov    %rsi,-0x10(%rbp)
    6276:	48 8b 45 f8          	mov    -0x8(%rbp),%rax
    627a:	48 8b 55 f0          	mov    -0x10(%rbp),%rdx
    627e:	48 89 d6             	mov    %rdx,%rsi
    6281:	48 89 c7             	mov    %rax,%rdi
    6284:	e8 4b 14 00 00       	call   76d4 <_ZNKSt8_Rb_treeINSt7__cxx1112basic_stringIcSt11char_traitsIcESaIcEEESt4pairIKS5_S5_ESt10_Select1stIS8_ESt4lessIS5_ESaIS8_EE4findERS7_>
    6289:	c9                   	leave  
    628a:	c3                   	ret    
    628b:	90                   	nop

000000000000628c <_ZNKSt3mapINSt7__cxx1112basic_stringIcSt11char_traitsIcESaIcEEES5_St4lessIS5_ESaISt4pairIKS5_S5_EEE3endEv>:
    628c:	f3 0f 1e fa          	endbr64 
    6290:	55                   	push   %rbp
    6291:	48 89 e5             	mov    %rsp,%rbp
    6294:	48 83 ec 10          	sub    $0x10,%rsp
    6298:	48 89 7d f8          	mov    %rdi,-0x8(%rbp)
    629c:	48 8b 45 f8          	mov    -0x8(%rbp),%rax
    62a0:	48 89 c7             	mov    %rax,%rdi
    62a3:	e8 02 15 00 00       	call   77aa <_ZNKSt8_Rb_treeINSt7__cxx1112basic_stringIcSt11char_traitsIcESaIcEEESt4pairIKS5_S5_ESt10_Select1stIS8_ESt4lessIS5_ESaIS8_EE3endEv>
    62a8:	c9                   	leave  
    62a9:	c3                   	ret    

00000000000062aa <_ZStneRKSt23_Rb_tree_const_iteratorISt4pairIKNSt7__cxx1112basic_stringIcSt11char_traitsIcESaIcEEES6_EESB_>:
    62aa:	f3 0f 1e fa          	endbr64 
    62ae:	55                   	push   %rbp
    62af:	48 89 e5             	mov    %rsp,%rbp
    62b2:	48 89 7d f8          	mov    %rdi,-0x8(%rbp)
    62b6:	48 89 75 f0          	mov    %rsi,-0x10(%rbp)
    62ba:	48 8b 45 f8          	mov    -0x8(%rbp),%rax
    62be:	48 8b 10             	mov    (%rax),%rdx
    62c1:	48 8b 45 f0          	mov    -0x10(%rbp),%rax
    62c5:	48 8b 00             	mov    (%rax),%rax
    62c8:	48 39 c2             	cmp    %rax,%rdx
    62cb:	0f 95 c0             	setne  %al
    62ce:	5d                   	pop    %rbp
    62cf:	c3                   	ret    

00000000000062d0 <_ZNKSt23_Rb_tree_const_iteratorISt4pairIKNSt7__cxx1112basic_stringIcSt11char_traitsIcESaIcEEES6_EEptEv>:
    62d0:	f3 0f 1e fa          	endbr64 
    62d4:	55                   	push   %rbp
    62d5:	48 89 e5             	mov    %rsp,%rbp
    62d8:	48 83 ec 10          	sub    $0x10,%rsp
    62dc:	48 89 7d f8          	mov    %rdi,-0x8(%rbp)
    62e0:	48 8b 45 f8          	mov    -0x8(%rbp),%rax
    62e4:	48 8b 00             	mov    (%rax),%rax
    62e7:	48 89 c7             	mov    %rax,%rdi
    62ea:	e8 0b 15 00 00       	call   77fa <_ZNKSt13_Rb_tree_nodeISt4pairIKNSt7__cxx1112basic_stringIcSt11char_traitsIcESaIcEEES6_EE9_M_valptrEv>
    62ef:	c9                   	leave  
    62f0:	c3                   	ret    
    62f1:	90                   	nop

00000000000062f2 <_ZNSt7__cxx1112basic_stringIcSt11char_traitsIcESaIcEEC1IS3_EEPKcRKS3_>:
    62f2:	f3 0f 1e fa          	endbr64 
    62f6:	55                   	push   %rbp
    62f7:	48 89 e5             	mov    %rsp,%rbp
    62fa:	53                   	push   %rbx
    62fb:	48 83 ec 38          	sub    $0x38,%rsp
    62ff:	48 89 7d d8          	mov    %rdi,-0x28(%rbp)
    6303:	48 89 75 d0          	mov    %rsi,-0x30(%rbp)
    6307:	48 89 55 c8          	mov    %rdx,-0x38(%rbp)
    630b:	48 8b 5d d8          	mov    -0x28(%rbp),%rbx
    630f:	48 8b 45 d8          	mov    -0x28(%rbp),%rax
    6313:	48 89 c7             	mov    %rax,%rdi
    6316:	e8 65 d3 ff ff       	call   3680 <_init+0x680>
    631b:	48 89 c1             	mov    %rax,%rcx
    631e:	48 8b 45 c8          	mov    -0x38(%rbp),%rax
    6322:	48 89 c2             	mov    %rax,%rdx
    6325:	48 89 ce             	mov    %rcx,%rsi
    6328:	48 89 df             	mov    %rbx,%rdi
    632b:	e8 10 d4 ff ff       	call   3740 <_init+0x740>
    6330:	48 83 7d d0 00       	cmpq   $0x0,-0x30(%rbp)
    6335:	75 0f                	jne    6346 <_ZNSt7__cxx1112basic_stringIcSt11char_traitsIcESaIcEEC1IS3_EEPKcRKS3_+0x54>
    6337:	48 8d 05 d2 5e 00 00 	lea    0x5ed2(%rip),%rax        # c210 <_ZSt19piecewise_construct+0x20c>
    633e:	48 89 c7             	mov    %rax,%rdi
    6341:	e8 0a d3 ff ff       	call   3650 <_init+0x650>
    6346:	48 8b 45 d0          	mov    -0x30(%rbp),%rax
    634a:	48 89 c7             	mov    %rax,%rdi
    634d:	e8 ad f4 ff ff       	call   57ff <_ZNSt11char_traitsIcE6lengthEPKc>
    6352:	48 8b 55 d0          	mov    -0x30(%rbp),%rdx
    6356:	48 01 d0             	add    %rdx,%rax
    6359:	48 89 45 e8          	mov    %rax,-0x18(%rbp)
    635d:	48 8b 55 e8          	mov    -0x18(%rbp),%rdx
    6361:	48 8b 4d d0          	mov    -0x30(%rbp),%rcx
    6365:	48 8b 45 d8          	mov    -0x28(%rbp),%rax
    6369:	48 89 ce             	mov    %rcx,%rsi
    636c:	48 89 c7             	mov    %rax,%rdi
    636f:	e8 c0 09 00 00       	call   6d34 <_ZNSt7__cxx1112basic_stringIcSt11char_traitsIcESaIcEE12_M_constructIPKcEEvT_S8_St20forward_iterator_tag>
    6374:	eb 1e                	jmp    6394 <_ZNSt7__cxx1112basic_stringIcSt11char_traitsIcESaIcEEC1IS3_EEPKcRKS3_+0xa2>
    6376:	f3 0f 1e fa          	endbr64 
    637a:	48 89 c3             	mov    %rax,%rbx
    637d:	48 8b 45 d8          	mov    -0x28(%rbp),%rax
    6381:	48 89 c7             	mov    %rax,%rdi
    6384:	e8 2b f9 ff ff       	call   5cb4 <_ZNSt7__cxx1112basic_stringIcSt11char_traitsIcESaIcEE12_Alloc_hiderD1Ev>
    6389:	48 89 d8             	mov    %rbx,%rax
    638c:	48 89 c7             	mov    %rax,%rdi
    638f:	e8 7c d5 ff ff       	call   3910 <_init+0x910>
    6394:	48 8b 5d f8          	mov    -0x8(%rbp),%rbx
    6398:	c9                   	leave  
    6399:	c3                   	ret    

000000000000639a <_ZNSt6vectorINSt7__cxx1112basic_stringIcSt11char_traitsIcESaIcEEESaIS5_EEC1IPKPKcvEET_SD_RKS6_>:
    639a:	f3 0f 1e fa          	endbr64 
    639e:	55                   	push   %rbp
    639f:	48 89 e5             	mov    %rsp,%rbp
    63a2:	53                   	push   %rbx
    63a3:	48 83 ec 38          	sub    $0x38,%rsp
    63a7:	48 89 7d d8          	mov    %rdi,-0x28(%rbp)
    63ab:	48 89 75 d0          	mov    %rsi,-0x30(%rbp)
    63af:	48 89 55 c8          	mov    %rdx,-0x38(%rbp)
    63b3:	48 89 4d c0          	mov    %rcx,-0x40(%rbp)
    63b7:	64 48 8b 04 25 28 00 	mov    %fs:0x28,%rax
    63be:	00 00 
    63c0:	48 89 45 e8          	mov    %rax,-0x18(%rbp)
    63c4:	31 c0                	xor    %eax,%eax
    63c6:	48 8b 45 d8          	mov    -0x28(%rbp),%rax
    63ca:	48 8b 55 c0          	mov    -0x40(%rbp),%rdx
    63ce:	48 89 d6             	mov    %rdx,%rsi
    63d1:	48 89 c7             	mov    %rax,%rdi
    63d4:	e8 53 14 00 00       	call   782c <_ZNSt12_Vector_baseINSt7__cxx1112basic_stringIcSt11char_traitsIcESaIcEEESaIS5_EEC1ERKS6_>
    63d9:	90                   	nop
    63da:	48 8b 4d d0          	mov    -0x30(%rbp),%rcx
    63de:	48 8b 55 c8          	mov    -0x38(%rbp),%rdx
    63e2:	48 8b 45 d8          	mov    -0x28(%rbp),%rax
    63e6:	48 89 ce             	mov    %rcx,%rsi
    63e9:	48 89 c7             	mov    %rax,%rdi
    63ec:	e8 65 14 00 00       	call   7856 <_ZNSt6vectorINSt7__cxx1112basic_stringIcSt11char_traitsIcESaIcEEESaIS5_EE19_M_range_initializeIPKPKcEEvT_SD_St20forward_iterator_tag>
    63f1:	eb 32                	jmp    6425 <_ZNSt6vectorINSt7__cxx1112basic_stringIcSt11char_traitsIcESaIcEEESaIS5_EEC1IPKPKcvEET_SD_RKS6_+0x8b>
    63f3:	f3 0f 1e fa          	endbr64 
    63f7:	48 89 c3             	mov    %rax,%rbx
    63fa:	48 8b 45 d8          	mov    -0x28(%rbp),%rax
    63fe:	48 89 c7             	mov    %rax,%rdi
    6401:	e8 b2 01 00 00       	call   65b8 <_ZNSt12_Vector_baseINSt7__cxx1112basic_stringIcSt11char_traitsIcESaIcEEESaIS5_EED1Ev>
    6406:	48 89 d8             	mov    %rbx,%rax
    6409:	48 8b 55 e8          	mov    -0x18(%rbp),%rdx
    640d:	64 48 2b 14 25 28 00 	sub    %fs:0x28,%rdx
    6414:	00 00 
    6416:	74 05                	je     641d <_ZNSt6vectorINSt7__cxx1112basic_stringIcSt11char_traitsIcESaIcEEESaIS5_EEC1IPKPKcvEET_SD_RKS6_+0x83>
    6418:	e8 63 d3 ff ff       	call   3780 <_init+0x780>
    641d:	48 89 c7             	mov    %rax,%rdi
    6420:	e8 eb d4 ff ff       	call   3910 <_init+0x910>
    6425:	48 8b 45 e8          	mov    -0x18(%rbp),%rax
    6429:	64 48 2b 04 25 28 00 	sub    %fs:0x28,%rax
    6430:	00 00 
    6432:	74 05                	je     6439 <_ZNSt6vectorINSt7__cxx1112basic_stringIcSt11char_traitsIcESaIcEEESaIS5_EEC1IPKPKcvEET_SD_RKS6_+0x9f>
    6434:	e8 47 d3 ff ff       	call   3780 <_init+0x780>
    6439:	48 8b 5d f8          	mov    -0x8(%rbp),%rbx
    643d:	c9                   	leave  
    643e:	c3                   	ret    
    643f:	90                   	nop

0000000000006440 <_ZNSt6vectorINSt7__cxx1112basic_stringIcSt11char_traitsIcESaIcEEESaIS5_EED1Ev>:
    6440:	f3 0f 1e fa          	endbr64 
    6444:	55                   	push   %rbp
    6445:	48 89 e5             	mov    %rsp,%rbp
    6448:	48 83 ec 30          	sub    $0x30,%rsp
    644c:	48 89 7d d8          	mov    %rdi,-0x28(%rbp)
    6450:	48 8b 45 d8          	mov    -0x28(%rbp),%rax
    6454:	48 89 c7             	mov    %rax,%rdi
    6457:	e8 ec 14 00 00       	call   7948 <_ZNSt12_Vector_baseINSt7__cxx1112basic_stringIcSt11char_traitsIcESaIcEEESaIS5_EE19_M_get_Tp_allocatorEv>
    645c:	48 8b 55 d8          	mov    -0x28(%rbp),%rdx
    6460:	48 8b 52 08          	mov    0x8(%rdx),%rdx
    6464:	48 8b 4d d8          	mov    -0x28(%rbp),%rcx
    6468:	48 8b 09             	mov    (%rcx),%rcx
    646b:	48 89 4d e8          	mov    %rcx,-0x18(%rbp)
    646f:	48 89 55 f0          	mov    %rdx,-0x10(%rbp)
    6473:	48 89 45 f8          	mov    %rax,-0x8(%rbp)
    6477:	48 8b 55 f0          	mov    -0x10(%rbp),%rdx
    647b:	48 8b 45 e8          	mov    -0x18(%rbp),%rax
    647f:	48 89 d6             	mov    %rdx,%rsi
    6482:	48 89 c7             	mov    %rax,%rdi
    6485:	e8 c8 2a 00 00       	call   8f52 <_ZSt8_DestroyIPNSt7__cxx1112basic_stringIcSt11char_traitsIcESaIcEEEEvT_S7_>
    648a:	90                   	nop
    648b:	48 8b 45 d8          	mov    -0x28(%rbp),%rax
    648f:	48 89 c7             	mov    %rax,%rdi
    6492:	e8 21 01 00 00       	call   65b8 <_ZNSt12_Vector_baseINSt7__cxx1112basic_stringIcSt11char_traitsIcESaIcEEESaIS5_EED1Ev>
    6497:	90                   	nop
    6498:	c9                   	leave  
    6499:	c3                   	ret    

000000000000649a <_ZStplIcSt11char_traitsIcESaIcEENSt7__cxx1112basic_stringIT_T0_T1_EEPKS5_RKS8_>:
    649a:	f3 0f 1e fa          	endbr64 
    649e:	55                   	push   %rbp
    649f:	48 89 e5             	mov    %rsp,%rbp
    64a2:	41 54                	push   %r12
    64a4:	53                   	push   %rbx
    64a5:	48 83 ec 30          	sub    $0x30,%rsp
    64a9:	48 89 7d d8          	mov    %rdi,-0x28(%rbp)
    64ad:	48 89 75 d0          	mov    %rsi,-0x30(%rbp)
    64b1:	48 89 55 c8          	mov    %rdx,-0x38(%rbp)
    64b5:	64 48 8b 04 25 28 00 	mov    %fs:0x28,%rax
    64bc:	00 00 
    64be:	48 89 45 e8          	mov    %rax,-0x18(%rbp)
    64c2:	31 c0                	xor    %eax,%eax
    64c4:	48 8d 45 e7          	lea    -0x19(%rbp),%rax
    64c8:	48 8b 55 c8          	mov    -0x38(%rbp),%rdx
    64cc:	48 89 d6             	mov    %rdx,%rsi
    64cf:	48 89 c7             	mov    %rax,%rdi
    64d2:	e8 99 d0 ff ff       	call   3570 <_init+0x570>
    64d7:	48 8b 45 c8          	mov    -0x38(%rbp),%rax
    64db:	48 89 c7             	mov    %rax,%rdi
    64de:	e8 5d d1 ff ff       	call   3640 <_init+0x640>
    64e3:	49 89 c4             	mov    %rax,%r12
    64e6:	48 8b 45 c8          	mov    -0x38(%rbp),%rax
    64ea:	48 89 c7             	mov    %rax,%rdi
    64ed:	e8 9e d0 ff ff       	call   3590 <_init+0x590>
    64f2:	48 89 c3             	mov    %rax,%rbx
    64f5:	48 8b 45 d0          	mov    -0x30(%rbp),%rax
    64f9:	48 89 c7             	mov    %rax,%rdi
    64fc:	e8 fe f2 ff ff       	call   57ff <_ZNSt11char_traitsIcE6lengthEPKc>
    6501:	48 89 c2             	mov    %rax,%rdx
    6504:	48 8b 45 d8          	mov    -0x28(%rbp),%rax
    6508:	48 8d 4d e7          	lea    -0x19(%rbp),%rcx
    650c:	48 8b 75 d0          	mov    -0x30(%rbp),%rsi
    6510:	49 89 c9             	mov    %rcx,%r9
    6513:	4d 89 e0             	mov    %r12,%r8
    6516:	48 89 d9             	mov    %rbx,%rcx
    6519:	48 89 c7             	mov    %rax,%rdi
    651c:	e8 39 14 00 00       	call   795a <_ZSt12__str_concatINSt7__cxx1112basic_stringIcSt11char_traitsIcESaIcEEEET_PKNS6_10value_typeENS6_9size_typeES9_SA_RKNS6_14allocator_typeE>
    6521:	48 8d 45 e7          	lea    -0x19(%rbp),%rax
    6525:	48 89 c7             	mov    %rax,%rdi
    6528:	e8 ab 07 00 00       	call   6cd8 <_ZNSt15__new_allocatorIcED1Ev>
    652d:	90                   	nop
    652e:	90                   	nop
    652f:	48 8b 45 e8          	mov    -0x18(%rbp),%rax
    6533:	64 48 2b 04 25 28 00 	sub    %fs:0x28,%rax
    653a:	00 00 
    653c:	74 3a                	je     6578 <_ZStplIcSt11char_traitsIcESaIcEENSt7__cxx1112basic_stringIT_T0_T1_EEPKS5_RKS8_+0xde>
    653e:	eb 33                	jmp    6573 <_ZStplIcSt11char_traitsIcESaIcEENSt7__cxx1112basic_stringIT_T0_T1_EEPKS5_RKS8_+0xd9>
    6540:	f3 0f 1e fa          	endbr64 
    6544:	48 89 c3             	mov    %rax,%rbx
    6547:	48 8d 45 e7          	lea    -0x19(%rbp),%rax
    654b:	48 89 c7             	mov    %rax,%rdi
    654e:	e8 85 07 00 00       	call   6cd8 <_ZNSt15__new_allocatorIcED1Ev>
    6553:	90                   	nop
    6554:	48 89 d8             	mov    %rbx,%rax
    6557:	48 8b 55 e8          	mov    -0x18(%rbp),%rdx
    655b:	64 48 2b 14 25 28 00 	sub    %fs:0x28,%rdx
    6562:	00 00 
    6564:	74 05                	je     656b <_ZStplIcSt11char_traitsIcESaIcEENSt7__cxx1112basic_stringIT_T0_T1_EEPKS5_RKS8_+0xd1>
    6566:	e8 15 d2 ff ff       	call   3780 <_init+0x780>
    656b:	48 89 c7             	mov    %rax,%rdi
    656e:	e8 9d d3 ff ff       	call   3910 <_init+0x910>
    6573:	e8 08 d2 ff ff       	call   3780 <_init+0x780>
    6578:	48 8b 45 d8          	mov    -0x28(%rbp),%rax
    657c:	48 83 c4 30          	add    $0x30,%rsp
    6580:	5b                   	pop    %rbx
    6581:	41 5c                	pop    %r12
    6583:	5d                   	pop    %rbp
    6584:	c3                   	ret    
    6585:	90                   	nop

0000000000006586 <_ZNSt12_Vector_baseINSt7__cxx1112basic_stringIcSt11char_traitsIcESaIcEEESaIS5_EE12_Vector_implC1Ev>:
    6586:	f3 0f 1e fa          	endbr64 
    658a:	55                   	push   %rbp
    658b:	48 89 e5             	mov    %rsp,%rbp
    658e:	48 83 ec 20          	sub    $0x20,%rsp
    6592:	48 89 7d e8          	mov    %rdi,-0x18(%rbp)
    6596:	48 8b 45 e8          	mov    -0x18(%rbp),%rax
    659a:	48 89 45 f0          	mov    %rax,-0x10(%rbp)
    659e:	48 8b 45 f0          	mov    -0x10(%rbp),%rax
    65a2:	48 89 45 f8          	mov    %rax,-0x8(%rbp)
    65a6:	90                   	nop
    65a7:	90                   	nop
    65a8:	48 8b 45 e8          	mov    -0x18(%rbp),%rax
    65ac:	48 89 c7             	mov    %rax,%rdi
    65af:	e8 c8 14 00 00       	call   7a7c <_ZNSt12_Vector_baseINSt7__cxx1112basic_stringIcSt11char_traitsIcESaIcEEESaIS5_EE17_Vector_impl_dataC1Ev>
    65b4:	90                   	nop
    65b5:	c9                   	leave  
    65b6:	c3                   	ret    
    65b7:	90                   	nop

00000000000065b8 <_ZNSt12_Vector_baseINSt7__cxx1112basic_stringIcSt11char_traitsIcESaIcEEESaIS5_EED1Ev>:
    65b8:	f3 0f 1e fa          	endbr64 
    65bc:	55                   	push   %rbp
    65bd:	48 89 e5             	mov    %rsp,%rbp
    65c0:	48 83 ec 10          	sub    $0x10,%rsp
    65c4:	48 89 7d f8          	mov    %rdi,-0x8(%rbp)
    65c8:	48 8b 45 f8          	mov    -0x8(%rbp),%rax
    65cc:	48 8b 50 10          	mov    0x10(%rax),%rdx
    65d0:	48 8b 45 f8          	mov    -0x8(%rbp),%rax
    65d4:	48 8b 00             	mov    (%rax),%rax
    65d7:	48 29 c2             	sub    %rax,%rdx
    65da:	48 89 d0             	mov    %rdx,%rax
    65dd:	48 c1 f8 05          	sar    $0x5,%rax
    65e1:	48 89 c2             	mov    %rax,%rdx
    65e4:	48 8b 45 f8          	mov    -0x8(%rbp),%rax
    65e8:	48 8b 08             	mov    (%rax),%rcx
    65eb:	48 8b 45 f8          	mov    -0x8(%rbp),%rax
    65ef:	48 89 ce             	mov    %rcx,%rsi
    65f2:	48 89 c7             	mov    %rax,%rdi
    65f5:	e8 b4 14 00 00       	call   7aae <_ZNSt12_Vector_baseINSt7__cxx1112basic_stringIcSt11char_traitsIcESaIcEEESaIS5_EE13_M_deallocateEPS5_m>
    65fa:	48 8b 45 f8          	mov    -0x8(%rbp),%rax
    65fe:	48 89 c7             	mov    %rax,%rdi
    6601:	e8 b8 f5 ff ff       	call   5bbe <_ZNSt12_Vector_baseINSt7__cxx1112basic_stringIcSt11char_traitsIcESaIcEEESaIS5_EE12_Vector_implD1Ev>
    6606:	90                   	nop
    6607:	c9                   	leave  
    6608:	c3                   	ret    
    6609:	90                   	nop

000000000000660a <_ZNKSt3setINSt7__cxx1112basic_stringIcSt11char_traitsIcESaIcEEESt4lessIS5_ESaIS5_EE5beginEv>:
    660a:	f3 0f 1e fa          	endbr64 
    660e:	55                   	push   %rbp
    660f:	48 89 e5             	mov    %rsp,%rbp
    6612:	48 83 ec 10          	sub    $0x10,%rsp
    6616:	48 89 7d f8          	mov    %rdi,-0x8(%rbp)
    661a:	48 8b 45 f8          	mov    -0x8(%rbp),%rax
    661e:	48 89 c7             	mov    %rax,%rdi
    6621:	e8 da 14 00 00       	call   7b00 <_ZNKSt8_Rb_treeINSt7__cxx1112basic_stringIcSt11char_traitsIcESaIcEEES5_St9_IdentityIS5_ESt4lessIS5_ESaIS5_EE5beginEv>
    6626:	c9                   	leave  
    6627:	c3                   	ret    

0000000000006628 <_ZNKSt3setINSt7__cxx1112basic_stringIcSt11char_traitsIcESaIcEEESt4lessIS5_ESaIS5_EE3endEv>:
    6628:	f3 0f 1e fa          	endbr64 
    662c:	55                   	push   %rbp
    662d:	48 89 e5             	mov    %rsp,%rbp
    6630:	48 83 ec 10          	sub    $0x10,%rsp
    6634:	48 89 7d f8          	mov    %rdi,-0x8(%rbp)
    6638:	48 8b 45 f8          	mov    -0x8(%rbp),%rax
    663c:	48 89 c7             	mov    %rax,%rdi
    663f:	e8 0c 15 00 00       	call   7b50 <_ZNKSt8_Rb_treeINSt7__cxx1112basic_stringIcSt11char_traitsIcESaIcEEES5_St9_IdentityIS5_ESt4lessIS5_ESaIS5_EE3endEv>
    6644:	c9                   	leave  
    6645:	c3                   	ret    

0000000000006646 <_ZStneRKSt23_Rb_tree_const_iteratorINSt7__cxx1112basic_stringIcSt11char_traitsIcESaIcEEEES8_>:
    6646:	f3 0f 1e fa          	endbr64 
    664a:	55                   	push   %rbp
    664b:	48 89 e5             	mov    %rsp,%rbp
    664e:	48 89 7d f8          	mov    %rdi,-0x8(%rbp)
    6652:	48 89 75 f0          	mov    %rsi,-0x10(%rbp)
    6656:	48 8b 45 f8          	mov    -0x8(%rbp),%rax
    665a:	48 8b 10             	mov    (%rax),%rdx
    665d:	48 8b 45 f0          	mov    -0x10(%rbp),%rax
    6661:	48 8b 00             	mov    (%rax),%rax
    6664:	48 39 c2             	cmp    %rax,%rdx
    6667:	0f 95 c0             	setne  %al
    666a:	5d                   	pop    %rbp
    666b:	c3                   	ret    

000000000000666c <_ZNSt23_Rb_tree_const_iteratorINSt7__cxx1112basic_stringIcSt11char_traitsIcESaIcEEEEppEv>:
    666c:	f3 0f 1e fa          	endbr64 
    6670:	55                   	push   %rbp
    6671:	48 89 e5             	mov    %rsp,%rbp
    6674:	48 83 ec 10          	sub    $0x10,%rsp
    6678:	48 89 7d f8          	mov    %rdi,-0x8(%rbp)
    667c:	48 8b 45 f8          	mov    -0x8(%rbp),%rax
    6680:	48 8b 00             	mov    (%rax),%rax
    6683:	48 89 c7             	mov    %rax,%rdi
    6686:	e8 15 d1 ff ff       	call   37a0 <_init+0x7a0>
    668b:	48 8b 55 f8          	mov    -0x8(%rbp),%rdx
    668f:	48 89 02             	mov    %rax,(%rdx)
    6692:	48 8b 45 f8          	mov    -0x8(%rbp),%rax
    6696:	c9                   	leave  
    6697:	c3                   	ret    

0000000000006698 <_ZNKSt23_Rb_tree_const_iteratorINSt7__cxx1112basic_stringIcSt11char_traitsIcESaIcEEEEdeEv>:
    6698:	f3 0f 1e fa          	endbr64 
    669c:	55                   	push   %rbp
    669d:	48 89 e5             	mov    %rsp,%rbp
    66a0:	48 83 ec 10          	sub    $0x10,%rsp
    66a4:	48 89 7d f8          	mov    %rdi,-0x8(%rbp)
    66a8:	48 8b 45 f8          	mov    -0x8(%rbp),%rax
    66ac:	48 8b 00             	mov    (%rax),%rax
    66af:	48 89 c7             	mov    %rax,%rdi
    66b2:	e8 e9 14 00 00       	call   7ba0 <_ZNKSt13_Rb_tree_nodeINSt7__cxx1112basic_stringIcSt11char_traitsIcESaIcEEEE9_M_valptrEv>
    66b7:	c9                   	leave  
    66b8:	c3                   	ret    
    66b9:	90                   	nop

00000000000066ba <_ZNSt6vectorINSt7__cxx1112basic_stringIcSt11char_traitsIcESaIcEEESaIS5_EE9push_backERKS5_>:
    66ba:	f3 0f 1e fa          	endbr64 
    66be:	55                   	push   %rbp
    66bf:	48 89 e5             	mov    %rsp,%rbp
    66c2:	41 56                	push   %r14
    66c4:	41 55                	push   %r13
    66c6:	41 54                	push   %r12
    66c8:	53                   	push   %rbx
    66c9:	48 83 ec 40          	sub    $0x40,%rsp
    66cd:	48 89 7d a8          	mov    %rdi,-0x58(%rbp)
    66d1:	48 89 75 a0          	mov    %rsi,-0x60(%rbp)
    66d5:	48 8b 45 a8          	mov    -0x58(%rbp),%rax
    66d9:	48 8b 50 08          	mov    0x8(%rax),%rdx
    66dd:	48 8b 45 a8          	mov    -0x58(%rbp),%rax
    66e1:	48 8b 40 10          	mov    0x10(%rax),%rax
    66e5:	48 39 c2             	cmp    %rax,%rdx
    66e8:	0f 84 a7 00 00 00    	je     6795 <_ZNSt6vectorINSt7__cxx1112basic_stringIcSt11char_traitsIcESaIcEEESaIS5_EE9push_backERKS5_+0xdb>
    66ee:	48 8b 45 a8          	mov    -0x58(%rbp),%rax
    66f2:	48 8b 40 08          	mov    0x8(%rax),%rax
    66f6:	48 8b 55 a8          	mov    -0x58(%rbp),%rdx
    66fa:	48 89 55 b0          	mov    %rdx,-0x50(%rbp)
    66fe:	48 89 45 b8          	mov    %rax,-0x48(%rbp)
    6702:	48 8b 45 a0          	mov    -0x60(%rbp),%rax
    6706:	48 89 45 c0          	mov    %rax,-0x40(%rbp)
    670a:	48 8b 45 c0          	mov    -0x40(%rbp),%rax
    670e:	48 89 c7             	mov    %rax,%rdi
    6711:	e8 a2 28 00 00       	call   8fb8 <_ZSt7forwardIRKNSt7__cxx1112basic_stringIcSt11char_traitsIcESaIcEEEEOT_RNSt16remove_referenceIS8_E4typeE>
    6716:	48 8b 55 b0          	mov    -0x50(%rbp),%rdx
    671a:	48 89 55 c8          	mov    %rdx,-0x38(%rbp)
    671e:	48 8b 55 b8          	mov    -0x48(%rbp),%rdx
    6722:	48 89 55 d0          	mov    %rdx,-0x30(%rbp)
    6726:	48 89 45 d8          	mov    %rax,-0x28(%rbp)
    672a:	48 8b 5d d0          	mov    -0x30(%rbp),%rbx
    672e:	48 89 de             	mov    %rbx,%rsi
    6731:	bf 20 00 00 00       	mov    $0x20,%edi
    6736:	e8 9b f0 ff ff       	call   57d6 <_ZnwmPv>
    673b:	49 89 c4             	mov    %rax,%r12
    673e:	41 be 01 00 00 00    	mov    $0x1,%r14d
    6744:	48 8b 45 d8          	mov    -0x28(%rbp),%rax
    6748:	48 89 c7             	mov    %rax,%rdi
    674b:	e8 68 28 00 00       	call   8fb8 <_ZSt7forwardIRKNSt7__cxx1112basic_stringIcSt11char_traitsIcESaIcEEEEOT_RNSt16remove_referenceIS8_E4typeE>
    6750:	48 89 c6             	mov    %rax,%rsi
    6753:	4c 89 e7             	mov    %r12,%rdi
    6756:	e8 45 ce ff ff       	call   35a0 <_init+0x5a0>
    675b:	90                   	nop
    675c:	90                   	nop
    675d:	48 8b 45 a8          	mov    -0x58(%rbp),%rax
    6761:	48 8b 40 08          	mov    0x8(%rax),%rax
    6765:	48 8d 50 20          	lea    0x20(%rax),%rdx
    6769:	48 8b 45 a8          	mov    -0x58(%rbp),%rax
    676d:	48 89 50 08          	mov    %rdx,0x8(%rax)
    6771:	eb 44                	jmp    67b7 <_ZNSt6vectorINSt7__cxx1112basic_stringIcSt11char_traitsIcESaIcEEESaIS5_EE9push_backERKS5_+0xfd>
    6773:	f3 0f 1e fa          	endbr64 
    6777:	49 89 c5             	mov    %rax,%r13
    677a:	45 84 f6             	test   %r14b,%r14b
    677d:	74 0b                	je     678a <_ZNSt6vectorINSt7__cxx1112basic_stringIcSt11char_traitsIcESaIcEEESaIS5_EE9push_backERKS5_+0xd0>
    677f:	48 89 de             	mov    %rbx,%rsi
    6782:	4c 89 e7             	mov    %r12,%rdi
    6785:	e8 62 f0 ff ff       	call   57ec <_ZdlPvS_>
    678a:	4c 89 e8             	mov    %r13,%rax
    678d:	48 89 c7             	mov    %rax,%rdi
    6790:	e8 7b d1 ff ff       	call   3910 <_init+0x910>
    6795:	48 8b 45 a8          	mov    -0x58(%rbp),%rax
    6799:	48 89 c7             	mov    %rax,%rdi
    679c:	e8 21 14 00 00       	call   7bc2 <_ZNSt6vectorINSt7__cxx1112basic_stringIcSt11char_traitsIcESaIcEEESaIS5_EE3endEv>
    67a1:	48 89 c1             	mov    %rax,%rcx
    67a4:	48 8b 55 a0          	mov    -0x60(%rbp),%rdx
    67a8:	48 8b 45 a8          	mov    -0x58(%rbp),%rax
    67ac:	48 89 ce             	mov    %rcx,%rsi
    67af:	48 89 c7             	mov    %rax,%rdi
    67b2:	e8 5b 14 00 00       	call   7c12 <_ZNSt6vectorINSt7__cxx1112basic_stringIcSt11char_traitsIcESaIcEEESaIS5_EE17_M_realloc_insertIJRKS5_EEEvN9__gnu_cxx17__normal_iteratorIPS5_S7_EEDpOT_>
    67b7:	90                   	nop
    67b8:	48 83 c4 40          	add    $0x40,%rsp
    67bc:	5b                   	pop    %rbx
    67bd:	41 5c                	pop    %r12
    67bf:	41 5d                	pop    %r13
    67c1:	41 5e                	pop    %r14
    67c3:	5d                   	pop    %rbp
    67c4:	c3                   	ret    

00000000000067c5 <_ZStplIcSt11char_traitsIcESaIcEENSt7__cxx1112basic_stringIT_T0_T1_EEOS8_PKS5_>:
    67c5:	f3 0f 1e fa          	endbr64 
    67c9:	55                   	push   %rbp
    67ca:	48 89 e5             	mov    %rsp,%rbp
    67cd:	48 83 ec 20          	sub    $0x20,%rsp
    67d1:	48 89 7d f8          	mov    %rdi,-0x8(%rbp)
    67d5:	48 89 75 f0          	mov    %rsi,-0x10(%rbp)
    67d9:	48 89 55 e8          	mov    %rdx,-0x18(%rbp)
    67dd:	48 8b 55 e8          	mov    -0x18(%rbp),%rdx
    67e1:	48 8b 45 f0          	mov    -0x10(%rbp),%rax
    67e5:	48 89 d6             	mov    %rdx,%rsi
    67e8:	48 89 c7             	mov    %rax,%rdi
    67eb:	e8 50 d1 ff ff       	call   3940 <_init+0x940>
    67f0:	48 89 c7             	mov    %rax,%rdi
    67f3:	e8 55 06 00 00       	call   6e4d <_ZSt4moveIRNSt7__cxx1112basic_stringIcSt11char_traitsIcESaIcEEEEONSt16remove_referenceIT_E4typeEOS8_>
    67f8:	48 89 c2             	mov    %rax,%rdx
    67fb:	48 8b 45 f8          	mov    -0x8(%rbp),%rax
    67ff:	48 89 d6             	mov    %rdx,%rsi
    6802:	48 89 c7             	mov    %rax,%rdi
    6805:	e8 d6 cd ff ff       	call   35e0 <_init+0x5e0>
    680a:	48 8b 45 f8          	mov    -0x8(%rbp),%rax
    680e:	c9                   	leave  
    680f:	c3                   	ret    

0000000000006810 <_ZStplIcSt11char_traitsIcESaIcEENSt7__cxx1112basic_stringIT_T0_T1_EERKS8_PKS5_>:
    6810:	f3 0f 1e fa          	endbr64 
    6814:	55                   	push   %rbp
    6815:	48 89 e5             	mov    %rsp,%rbp
    6818:	41 54                	push   %r12
    681a:	53                   	push   %rbx
    681b:	48 83 ec 30          	sub    $0x30,%rsp
    681f:	48 89 7d d8          	mov    %rdi,-0x28(%rbp)
    6823:	48 89 75 d0          	mov    %rsi,-0x30(%rbp)
    6827:	48 89 55 c8          	mov    %rdx,-0x38(%rbp)
    682b:	64 48 8b 04 25 28 00 	mov    %fs:0x28,%rax
    6832:	00 00 
    6834:	48 89 45 e8          	mov    %rax,-0x18(%rbp)
    6838:	31 c0                	xor    %eax,%eax
    683a:	48 8d 45 e7          	lea    -0x19(%rbp),%rax
    683e:	48 8b 55 d0          	mov    -0x30(%rbp),%rdx
    6842:	48 89 d6             	mov    %rdx,%rsi
    6845:	48 89 c7             	mov    %rax,%rdi
    6848:	e8 23 cd ff ff       	call   3570 <_init+0x570>
    684d:	48 8b 45 c8          	mov    -0x38(%rbp),%rax
    6851:	48 89 c7             	mov    %rax,%rdi
    6854:	e8 a6 ef ff ff       	call   57ff <_ZNSt11char_traitsIcE6lengthEPKc>
    6859:	49 89 c4             	mov    %rax,%r12
    685c:	48 8b 45 d0          	mov    -0x30(%rbp),%rax
    6860:	48 89 c7             	mov    %rax,%rdi
    6863:	e8 d8 cd ff ff       	call   3640 <_init+0x640>
    6868:	48 89 c3             	mov    %rax,%rbx
    686b:	48 8b 45 d0          	mov    -0x30(%rbp),%rax
    686f:	48 89 c7             	mov    %rax,%rdi
    6872:	e8 19 cd ff ff       	call   3590 <_init+0x590>
    6877:	48 89 c6             	mov    %rax,%rsi
    687a:	48 8b 45 d8          	mov    -0x28(%rbp),%rax
    687e:	48 8d 4d e7          	lea    -0x19(%rbp),%rcx
    6882:	48 8b 55 c8          	mov    -0x38(%rbp),%rdx
    6886:	49 89 c9             	mov    %rcx,%r9
    6889:	4d 89 e0             	mov    %r12,%r8
    688c:	48 89 d1             	mov    %rdx,%rcx
    688f:	48 89 da             	mov    %rbx,%rdx
    6892:	48 89 c7             	mov    %rax,%rdi
    6895:	e8 c0 10 00 00       	call   795a <_ZSt12__str_concatINSt7__cxx1112basic_stringIcSt11char_traitsIcESaIcEEEET_PKNS6_10value_typeENS6_9size_typeES9_SA_RKNS6_14allocator_typeE>
    689a:	48 8d 45 e7          	lea    -0x19(%rbp),%rax
    689e:	48 89 c7             	mov    %rax,%rdi
    68a1:	e8 32 04 00 00       	call   6cd8 <_ZNSt15__new_allocatorIcED1Ev>
    68a6:	90                   	nop
    68a7:	90                   	nop
    68a8:	48 8b 45 e8          	mov    -0x18(%rbp),%rax
    68ac:	64 48 2b 04 25 28 00 	sub    %fs:0x28,%rax
    68b3:	00 00 
    68b5:	74 3a                	je     68f1 <_ZStplIcSt11char_traitsIcESaIcEENSt7__cxx1112basic_stringIT_T0_T1_EERKS8_PKS5_+0xe1>
    68b7:	eb 33                	jmp    68ec <_ZStplIcSt11char_traitsIcESaIcEENSt7__cxx1112basic_stringIT_T0_T1_EERKS8_PKS5_+0xdc>
    68b9:	f3 0f 1e fa          	endbr64 
    68bd:	48 89 c3             	mov    %rax,%rbx
    68c0:	48 8d 45 e7          	lea    -0x19(%rbp),%rax
    68c4:	48 89 c7             	mov    %rax,%rdi
    68c7:	e8 0c 04 00 00       	call   6cd8 <_ZNSt15__new_allocatorIcED1Ev>
    68cc:	90                   	nop
    68cd:	48 89 d8             	mov    %rbx,%rax
    68d0:	48 8b 55 e8          	mov    -0x18(%rbp),%rdx
    68d4:	64 48 2b 14 25 28 00 	sub    %fs:0x28,%rdx
    68db:	00 00 
    68dd:	74 05                	je     68e4 <_ZStplIcSt11char_traitsIcESaIcEENSt7__cxx1112basic_stringIT_T0_T1_EERKS8_PKS5_+0xd4>
    68df:	e8 9c ce ff ff       	call   3780 <_init+0x780>
    68e4:	48 89 c7             	mov    %rax,%rdi
    68e7:	e8 24 d0 ff ff       	call   3910 <_init+0x910>
    68ec:	e8 8f ce ff ff       	call   3780 <_init+0x780>
    68f1:	48 8b 45 d8          	mov    -0x28(%rbp),%rax
    68f5:	48 83 c4 30          	add    $0x30,%rsp
    68f9:	5b                   	pop    %rbx
    68fa:	41 5c                	pop    %r12
    68fc:	5d                   	pop    %rbp
    68fd:	c3                   	ret    

00000000000068fe <_ZNSt6vectorINSt7__cxx1112basic_stringIcSt11char_traitsIcESaIcEEESaIS5_EEC1ESt16initializer_listIS5_ERKS6_>:
    68fe:	f3 0f 1e fa          	endbr64 
    6902:	55                   	push   %rbp
    6903:	48 89 e5             	mov    %rsp,%rbp
    6906:	53                   	push   %rbx
    6907:	48 83 ec 38          	sub    $0x38,%rsp
    690b:	48 89 7d d8          	mov    %rdi,-0x28(%rbp)
    690f:	48 89 f0             	mov    %rsi,%rax
    6912:	48 89 d6             	mov    %rdx,%rsi
    6915:	48 89 f2             	mov    %rsi,%rdx
    6918:	48 89 45 c0          	mov    %rax,-0x40(%rbp)
    691c:	48 89 55 c8          	mov    %rdx,-0x38(%rbp)
    6920:	48 89 4d d0          	mov    %rcx,-0x30(%rbp)
    6924:	64 48 8b 04 25 28 00 	mov    %fs:0x28,%rax
    692b:	00 00 
    692d:	48 89 45 e8          	mov    %rax,-0x18(%rbp)
    6931:	31 c0                	xor    %eax,%eax
    6933:	48 8b 45 d8          	mov    -0x28(%rbp),%rax
    6937:	48 8b 55 d0          	mov    -0x30(%rbp),%rdx
    693b:	48 89 d6             	mov    %rdx,%rsi
    693e:	48 89 c7             	mov    %rax,%rdi
    6941:	e8 e6 0e 00 00       	call   782c <_ZNSt12_Vector_baseINSt7__cxx1112basic_stringIcSt11char_traitsIcESaIcEEESaIS5_EEC1ERKS6_>
    6946:	48 8d 45 c0          	lea    -0x40(%rbp),%rax
    694a:	48 89 c7             	mov    %rax,%rdi
    694d:	e8 a4 16 00 00       	call   7ff6 <_ZNKSt16initializer_listINSt7__cxx1112basic_stringIcSt11char_traitsIcESaIcEEEE3endEv>
    6952:	48 89 c3             	mov    %rax,%rbx
    6955:	48 8d 45 c0          	lea    -0x40(%rbp),%rax
    6959:	48 89 c7             	mov    %rax,%rdi
    695c:	e8 7f 16 00 00       	call   7fe0 <_ZNKSt16initializer_listINSt7__cxx1112basic_stringIcSt11char_traitsIcESaIcEEEE5beginEv>
    6961:	48 89 c1             	mov    %rax,%rcx
    6964:	48 8b 45 d8          	mov    -0x28(%rbp),%rax
    6968:	48 89 da             	mov    %rbx,%rdx
    696b:	48 89 ce             	mov    %rcx,%rsi
    696e:	48 89 c7             	mov    %rax,%rdi
    6971:	e8 ba 16 00 00       	call   8030 <_ZNSt6vectorINSt7__cxx1112basic_stringIcSt11char_traitsIcESaIcEEESaIS5_EE19_M_range_initializeIPKS5_EEvT_SB_St20forward_iterator_tag>
    6976:	eb 32                	jmp    69aa <_ZNSt6vectorINSt7__cxx1112basic_stringIcSt11char_traitsIcESaIcEEESaIS5_EEC1ESt16initializer_listIS5_ERKS6_+0xac>
    6978:	f3 0f 1e fa          	endbr64 
    697c:	48 89 c3             	mov    %rax,%rbx
    697f:	48 8b 45 d8          	mov    -0x28(%rbp),%rax
    6983:	48 89 c7             	mov    %rax,%rdi
    6986:	e8 2d fc ff ff       	call   65b8 <_ZNSt12_Vector_baseINSt7__cxx1112basic_stringIcSt11char_traitsIcESaIcEEESaIS5_EED1Ev>
    698b:	48 89 d8             	mov    %rbx,%rax
    698e:	48 8b 55 e8          	mov    -0x18(%rbp),%rdx
    6992:	64 48 2b 14 25 28 00 	sub    %fs:0x28,%rdx
    6999:	00 00 
    699b:	74 05                	je     69a2 <_ZNSt6vectorINSt7__cxx1112basic_stringIcSt11char_traitsIcESaIcEEESaIS5_EEC1ESt16initializer_listIS5_ERKS6_+0xa4>
    699d:	e8 de cd ff ff       	call   3780 <_init+0x780>
    69a2:	48 89 c7             	mov    %rax,%rdi
    69a5:	e8 66 cf ff ff       	call   3910 <_init+0x910>
    69aa:	48 8b 45 e8          	mov    -0x18(%rbp),%rax
    69ae:	64 48 2b 04 25 28 00 	sub    %fs:0x28,%rax
    69b5:	00 00 
    69b7:	74 05                	je     69be <_ZNSt6vectorINSt7__cxx1112basic_stringIcSt11char_traitsIcESaIcEEESaIS5_EEC1ESt16initializer_listIS5_ERKS6_+0xc0>
    69b9:	e8 c2 cd ff ff       	call   3780 <_init+0x780>
    69be:	48 8b 5d f8          	mov    -0x8(%rbp),%rbx
    69c2:	c9                   	leave  
    69c3:	c3                   	ret    

00000000000069c4 <_ZNSt8_Rb_treeINSt7__cxx1112basic_stringIcSt11char_traitsIcESaIcEEES5_St9_IdentityIS5_ESt4lessIS5_ESaIS5_EE13_Rb_tree_implIS9_Lb1EED1Ev>:
    69c4:	f3 0f 1e fa          	endbr64 
    69c8:	55                   	push   %rbp
    69c9:	48 89 e5             	mov    %rsp,%rbp
    69cc:	48 83 ec 20          	sub    $0x20,%rsp
    69d0:	48 89 7d e8          	mov    %rdi,-0x18(%rbp)
    69d4:	48 8b 45 e8          	mov    -0x18(%rbp),%rax
    69d8:	48 89 45 f8          	mov    %rax,-0x8(%rbp)
    69dc:	48 8b 45 f8          	mov    -0x8(%rbp),%rax
    69e0:	48 89 c7             	mov    %rax,%rdi
    69e3:	e8 2e 28 00 00       	call   9216 <_ZNSt15__new_allocatorISt13_Rb_tree_nodeINSt7__cxx1112basic_stringIcSt11char_traitsIcESaIcEEEEED1Ev>
    69e8:	90                   	nop
    69e9:	90                   	nop
    69ea:	c9                   	leave  
    69eb:	c3                   	ret    

00000000000069ec <_ZNSt8_Rb_treeINSt7__cxx1112basic_stringIcSt11char_traitsIcESaIcEEES5_St9_IdentityIS5_ESt4lessIS5_ESaIS5_EEC1Ev>:
    69ec:	f3 0f 1e fa          	endbr64 
    69f0:	55                   	push   %rbp
    69f1:	48 89 e5             	mov    %rsp,%rbp
    69f4:	48 83 ec 10          	sub    $0x10,%rsp
    69f8:	48 89 7d f8          	mov    %rdi,-0x8(%rbp)
    69fc:	48 8b 45 f8          	mov    -0x8(%rbp),%rax
    6a00:	48 89 c7             	mov    %rax,%rdi
    6a03:	e8 1a 17 00 00       	call   8122 <_ZNSt8_Rb_treeINSt7__cxx1112basic_stringIcSt11char_traitsIcESaIcEEES5_St9_IdentityIS5_ESt4lessIS5_ESaIS5_EE13_Rb_tree_implIS9_Lb1EEC1Ev>
    6a08:	90                   	nop
    6a09:	c9                   	leave  
    6a0a:	c3                   	ret    
    6a0b:	90                   	nop

0000000000006a0c <_ZNSt3setINSt7__cxx1112basic_stringIcSt11char_traitsIcESaIcEEESt4lessIS5_ESaIS5_EEC1IPKPKcEET_SF_>:
    6a0c:	f3 0f 1e fa          	endbr64 
    6a10:	55                   	push   %rbp
    6a11:	48 89 e5             	mov    %rsp,%rbp
    6a14:	53                   	push   %rbx
    6a15:	48 83 ec 28          	sub    $0x28,%rsp
    6a19:	48 89 7d e8          	mov    %rdi,-0x18(%rbp)
    6a1d:	48 89 75 e0          	mov    %rsi,-0x20(%rbp)
    6a21:	48 89 55 d8          	mov    %rdx,-0x28(%rbp)
    6a25:	48 8b 45 e8          	mov    -0x18(%rbp),%rax
    6a29:	66 0f ef c0          	pxor   %xmm0,%xmm0
    6a2d:	0f 11 00             	movups %xmm0,(%rax)
    6a30:	0f 11 40 10          	movups %xmm0,0x10(%rax)
    6a34:	0f 11 40 20          	movups %xmm0,0x20(%rax)
    6a38:	48 8b 45 e8          	mov    -0x18(%rbp),%rax
    6a3c:	48 89 c7             	mov    %rax,%rdi
    6a3f:	e8 a8 ff ff ff       	call   69ec <_ZNSt8_Rb_treeINSt7__cxx1112basic_stringIcSt11char_traitsIcESaIcEEES5_St9_IdentityIS5_ESt4lessIS5_ESaIS5_EEC1Ev>
    6a44:	48 8b 45 e8          	mov    -0x18(%rbp),%rax
    6a48:	48 8b 55 d8          	mov    -0x28(%rbp),%rdx
    6a4c:	48 8b 4d e0          	mov    -0x20(%rbp),%rcx
    6a50:	48 89 ce             	mov    %rcx,%rsi
    6a53:	48 89 c7             	mov    %rax,%rdi
    6a56:	e8 09 17 00 00       	call   8164 <_ZNSt8_Rb_treeINSt7__cxx1112basic_stringIcSt11char_traitsIcESaIcEEES5_St9_IdentityIS5_ESt4lessIS5_ESaIS5_EE22_M_insert_range_uniqueIPKPKcEENSt9enable_ifIXntsrSt7is_sameIS5_NSt15iterator_traitsIT_E10value_typeEE5valueEvE4typeESK_SK_>
    6a5b:	eb 1e                	jmp    6a7b <_ZNSt3setINSt7__cxx1112basic_stringIcSt11char_traitsIcESaIcEEESt4lessIS5_ESaIS5_EEC1IPKPKcEET_SF_+0x6f>
    6a5d:	f3 0f 1e fa          	endbr64 
    6a61:	48 89 c3             	mov    %rax,%rbx
    6a64:	48 8b 45 e8          	mov    -0x18(%rbp),%rax
    6a68:	48 89 c7             	mov    %rax,%rdi
    6a6b:	e8 12 00 00 00       	call   6a82 <_ZNSt8_Rb_treeINSt7__cxx1112basic_stringIcSt11char_traitsIcESaIcEEES5_St9_IdentityIS5_ESt4lessIS5_ESaIS5_EED1Ev>
    6a70:	48 89 d8             	mov    %rbx,%rax
    6a73:	48 89 c7             	mov    %rax,%rdi
    6a76:	e8 95 ce ff ff       	call   3910 <_init+0x910>
    6a7b:	48 8b 5d f8          	mov    -0x8(%rbp),%rbx
    6a7f:	c9                   	leave  
    6a80:	c3                   	ret    
    6a81:	90                   	nop

0000000000006a82 <_ZNSt8_Rb_treeINSt7__cxx1112basic_stringIcSt11char_traitsIcESaIcEEES5_St9_IdentityIS5_ESt4lessIS5_ESaIS5_EED1Ev>:
    6a82:	f3 0f 1e fa          	endbr64 
    6a86:	55                   	push   %rbp
    6a87:	48 89 e5             	mov    %rsp,%rbp
    6a8a:	48 83 ec 10          	sub    $0x10,%rsp
    6a8e:	48 89 7d f8          	mov    %rdi,-0x8(%rbp)
    6a92:	48 8b 45 f8          	mov    -0x8(%rbp),%rax
    6a96:	48 89 c7             	mov    %rax,%rdi
    6a99:	e8 70 17 00 00       	call   820e <_ZNSt8_Rb_treeINSt7__cxx1112basic_stringIcSt11char_traitsIcESaIcEEES5_St9_IdentityIS5_ESt4lessIS5_ESaIS5_EE8_M_beginEv>
    6a9e:	48 89 c2             	mov    %rax,%rdx
    6aa1:	48 8b 45 f8          	mov    -0x8(%rbp),%rax
    6aa5:	48 89 d6             	mov    %rdx,%rsi
    6aa8:	48 89 c7             	mov    %rax,%rdi
    6aab:	e8 f4 16 00 00       	call   81a4 <_ZNSt8_Rb_treeINSt7__cxx1112basic_stringIcSt11char_traitsIcESaIcEEES5_St9_IdentityIS5_ESt4lessIS5_ESaIS5_EE8_M_eraseEPSt13_Rb_tree_nodeIS5_E>
    6ab0:	48 8b 45 f8          	mov    -0x8(%rbp),%rax
    6ab4:	48 89 c7             	mov    %rax,%rdi
    6ab7:	e8 08 ff ff ff       	call   69c4 <_ZNSt8_Rb_treeINSt7__cxx1112basic_stringIcSt11char_traitsIcESaIcEEES5_St9_IdentityIS5_ESt4lessIS5_ESaIS5_EE13_Rb_tree_implIS9_Lb1EED1Ev>
    6abc:	90                   	nop
    6abd:	c9                   	leave  
    6abe:	c3                   	ret    
    6abf:	90                   	nop

0000000000006ac0 <_ZNKSt6vectorINSt7__cxx1112basic_stringIcSt11char_traitsIcESaIcEEESaIS5_EE4sizeEv>:
    6ac0:	f3 0f 1e fa          	endbr64 
    6ac4:	55                   	push   %rbp
    6ac5:	48 89 e5             	mov    %rsp,%rbp
    6ac8:	48 89 7d f8          	mov    %rdi,-0x8(%rbp)
    6acc:	48 8b 45 f8          	mov    -0x8(%rbp),%rax
    6ad0:	48 8b 50 08          	mov    0x8(%rax),%rdx
    6ad4:	48 8b 45 f8          	mov    -0x8(%rbp),%rax
    6ad8:	48 8b 00             	mov    (%rax),%rax
    6adb:	48 29 c2             	sub    %rax,%rdx
    6ade:	48 89 d0             	mov    %rdx,%rax
    6ae1:	48 c1 f8 05          	sar    $0x5,%rax
    6ae5:	5d                   	pop    %rbp
    6ae6:	c3                   	ret    
    6ae7:	90                   	nop

0000000000006ae8 <_ZNSt6vectorINSt7__cxx1112basic_stringIcSt11char_traitsIcESaIcEEESaIS5_EEixEm>:
    6ae8:	f3 0f 1e fa          	endbr64 
    6aec:	55                   	push   %rbp
    6aed:	48 89 e5             	mov    %rsp,%rbp
    6af0:	48 89 7d f8          	mov    %rdi,-0x8(%rbp)
    6af4:	48 89 75 f0          	mov    %rsi,-0x10(%rbp)
    6af8:	48 8b 45 f8          	mov    -0x8(%rbp),%rax
    6afc:	48 8b 00             	mov    (%rax),%rax
    6aff:	48 8b 55 f0          	mov    -0x10(%rbp),%rdx
    6b03:	48 c1 e2 05          	shl    $0x5,%rdx
    6b07:	48 01 d0             	add    %rdx,%rax
    6b0a:	5d                   	pop    %rbp
    6b0b:	c3                   	ret    

0000000000006b0c <_ZNSt6vectorISt3mapINSt7__cxx1112basic_stringIcSt11char_traitsIcESaIcEEES6_St4lessIS6_ESaISt4pairIKS6_S6_EEESaISD_EEaSEOSF_>:
    6b0c:	f3 0f 1e fa          	endbr64 
    6b10:	55                   	push   %rbp
    6b11:	48 89 e5             	mov    %rsp,%rbp
    6b14:	48 83 ec 20          	sub    $0x20,%rsp
    6b18:	48 89 7d e8          	mov    %rdi,-0x18(%rbp)
    6b1c:	48 89 75 e0          	mov    %rsi,-0x20(%rbp)
    6b20:	c6 45 ff 01          	movb   $0x1,-0x1(%rbp)
    6b24:	48 8b 45 e0          	mov    -0x20(%rbp),%rax
    6b28:	48 89 c7             	mov    %rax,%rdi
    6b2b:	e8 fc 16 00 00       	call   822c <_ZSt4moveIRSt6vectorISt3mapINSt7__cxx1112basic_stringIcSt11char_traitsIcESaIcEEES7_St4lessIS7_ESaISt4pairIKS7_S7_EEESaISE_EEEONSt16remove_referenceIT_E4typeEOSJ_>
    6b30:	48 89 c2             	mov    %rax,%rdx
    6b33:	48 8b 45 e8          	mov    -0x18(%rbp),%rax
    6b37:	48 89 d6             	mov    %rdx,%rsi
    6b3a:	48 89 c7             	mov    %rax,%rdi
    6b3d:	e8 fc 16 00 00       	call   823e <_ZNSt6vectorISt3mapINSt7__cxx1112basic_stringIcSt11char_traitsIcESaIcEEES6_St4lessIS6_ESaISt4pairIKS6_S6_EEESaISD_EE14_M_move_assignEOSF_St17integral_constantIbLb1EE>
    6b42:	48 8b 45 e8          	mov    -0x18(%rbp),%rax
    6b46:	c9                   	leave  
    6b47:	c3                   	ret    

0000000000006b48 <_ZNSt6vectorISt3mapINSt7__cxx1112basic_stringIcSt11char_traitsIcESaIcEEES6_St4lessIS6_ESaISt4pairIKS6_S6_EEESaISD_EE5beginEv>:
    6b48:	f3 0f 1e fa          	endbr64 
    6b4c:	55                   	push   %rbp
    6b4d:	48 89 e5             	mov    %rsp,%rbp
    6b50:	48 83 ec 20          	sub    $0x20,%rsp
    6b54:	48 89 7d e8          	mov    %rdi,-0x18(%rbp)
    6b58:	64 48 8b 04 25 28 00 	mov    %fs:0x28,%rax
    6b5f:	00 00 
    6b61:	48 89 45 f8          	mov    %rax,-0x8(%rbp)
    6b65:	31 c0                	xor    %eax,%eax
    6b67:	48 8b 55 e8          	mov    -0x18(%rbp),%rdx
    6b6b:	48 8d 45 f0          	lea    -0x10(%rbp),%rax
    6b6f:	48 89 d6             	mov    %rdx,%rsi
    6b72:	48 89 c7             	mov    %rax,%rdi
    6b75:	e8 98 17 00 00       	call   8312 <_ZN9__gnu_cxx17__normal_iteratorIPSt3mapINSt7__cxx1112basic_stringIcSt11char_traitsIcESaIcEEES7_St4lessIS7_ESaISt4pairIKS7_S7_EEESt6vectorISE_SaISE_EEEC1ERKSF_>
    6b7a:	48 8b 45 f0          	mov    -0x10(%rbp),%rax
    6b7e:	48 8b 55 f8          	mov    -0x8(%rbp),%rdx
    6b82:	64 48 2b 14 25 28 00 	sub    %fs:0x28,%rdx
    6b89:	00 00 
    6b8b:	74 05                	je     6b92 <_ZNSt6vectorISt3mapINSt7__cxx1112basic_stringIcSt11char_traitsIcESaIcEEES6_St4lessIS6_ESaISt4pairIKS6_S6_EEESaISD_EE5beginEv+0x4a>
    6b8d:	e8 ee cb ff ff       	call   3780 <_init+0x780>
    6b92:	c9                   	leave  
    6b93:	c3                   	ret    

0000000000006b94 <_ZNSt6vectorISt3mapINSt7__cxx1112basic_stringIcSt11char_traitsIcESaIcEEES6_St4lessIS6_ESaISt4pairIKS6_S6_EEESaISD_EE3endEv>:
    6b94:	f3 0f 1e fa          	endbr64 
    6b98:	55                   	push   %rbp
    6b99:	48 89 e5             	mov    %rsp,%rbp
    6b9c:	48 83 ec 20          	sub    $0x20,%rsp
    6ba0:	48 89 7d e8          	mov    %rdi,-0x18(%rbp)
    6ba4:	64 48 8b 04 25 28 00 	mov    %fs:0x28,%rax
    6bab:	00 00 
    6bad:	48 89 45 f8          	mov    %rax,-0x8(%rbp)
    6bb1:	31 c0                	xor    %eax,%eax
    6bb3:	48 8b 45 e8          	mov    -0x18(%rbp),%rax
    6bb7:	48 8d 50 08          	lea    0x8(%rax),%rdx
    6bbb:	48 8d 45 f0          	lea    -0x10(%rbp),%rax
    6bbf:	48 89 d6             	mov    %rdx,%rsi
    6bc2:	48 89 c7             	mov    %rax,%rdi
    6bc5:	e8 48 17 00 00       	call   8312 <_ZN9__gnu_cxx17__normal_iteratorIPSt3mapINSt7__cxx1112basic_stringIcSt11char_traitsIcESaIcEEES7_St4lessIS7_ESaISt4pairIKS7_S7_EEESt6vectorISE_SaISE_EEEC1ERKSF_>
    6bca:	48 8b 45 f0          	mov    -0x10(%rbp),%rax
    6bce:	48 8b 55 f8          	mov    -0x8(%rbp),%rdx
    6bd2:	64 48 2b 14 25 28 00 	sub    %fs:0x28,%rdx
    6bd9:	00 00 
    6bdb:	74 05                	je     6be2 <_ZNSt6vectorISt3mapINSt7__cxx1112basic_stringIcSt11char_traitsIcESaIcEEES6_St4lessIS6_ESaISt4pairIKS6_S6_EEESaISD_EE3endEv+0x4e>
    6bdd:	e8 9e cb ff ff       	call   3780 <_init+0x780>
    6be2:	c9                   	leave  
    6be3:	c3                   	ret    

0000000000006be4 <_ZN9__gnu_cxxneIPSt3mapINSt7__cxx1112basic_stringIcSt11char_traitsIcESaIcEEES7_St4lessIS7_ESaISt4pairIKS7_S7_EEESt6vectorISE_SaISE_EEEEbRKNS_17__normal_iteratorIT_T0_EESO_>:
    6be4:	f3 0f 1e fa          	endbr64 
    6be8:	55                   	push   %rbp
    6be9:	48 89 e5             	mov    %rsp,%rbp
    6bec:	53                   	push   %rbx
    6bed:	48 83 ec 18          	sub    $0x18,%rsp
    6bf1:	48 89 7d e8          	mov    %rdi,-0x18(%rbp)
    6bf5:	48 89 75 e0          	mov    %rsi,-0x20(%rbp)
    6bf9:	48 8b 45 e8          	mov    -0x18(%rbp),%rax
    6bfd:	48 89 c7             	mov    %rax,%rdi
    6c00:	e8 2f 17 00 00       	call   8334 <_ZNK9__gnu_cxx17__normal_iteratorIPSt3mapINSt7__cxx1112basic_stringIcSt11char_traitsIcESaIcEEES7_St4lessIS7_ESaISt4pairIKS7_S7_EEESt6vectorISE_SaISE_EEE4baseEv>
    6c05:	48 8b 18             	mov    (%rax),%rbx
    6c08:	48 8b 45 e0          	mov    -0x20(%rbp),%rax
    6c0c:	48 89 c7             	mov    %rax,%rdi
    6c0f:	e8 20 17 00 00       	call   8334 <_ZNK9__gnu_cxx17__normal_iteratorIPSt3mapINSt7__cxx1112basic_stringIcSt11char_traitsIcESaIcEEES7_St4lessIS7_ESaISt4pairIKS7_S7_EEESt6vectorISE_SaISE_EEE4baseEv>
    6c14:	48 8b 00             	mov    (%rax),%rax
    6c17:	48 39 c3             	cmp    %rax,%rbx
    6c1a:	0f 95 c0             	setne  %al
    6c1d:	48 8b 5d f8          	mov    -0x8(%rbp),%rbx
    6c21:	c9                   	leave  
    6c22:	c3                   	ret    
    6c23:	90                   	nop

0000000000006c24 <_ZN9__gnu_cxx17__normal_iteratorIPSt3mapINSt7__cxx1112basic_stringIcSt11char_traitsIcESaIcEEES7_St4lessIS7_ESaISt4pairIKS7_S7_EEESt6vectorISE_SaISE_EEEppEv>:
    6c24:	f3 0f 1e fa          	endbr64 
    6c28:	55                   	push   %rbp
    6c29:	48 89 e5             	mov    %rsp,%rbp
    6c2c:	48 89 7d f8          	mov    %rdi,-0x8(%rbp)
