
scraperfinal3:     file format elf64-x86-64


Disassembly of section .init:

0000000000003000 <_init>:
    3000:	f3 0f 1e fa          	endbr64 
    3004:	48 83 ec 08          	sub    $0x8,%rsp
    3008:	48 8b 05 e1 df 00 00 	mov    0xdfe1(%rip),%rax        # 10ff0 <__gmon_start__@Base>
    300f:	48 85 c0             	test   %rax,%rax
    3012:	74 02                	je     3016 <_init+0x16>
    3014:	ff d0                	call   *%rax
    3016:	48 83 c4 08          	add    $0x8,%rsp
    301a:	c3                   	ret    

Disassembly of section .plt:

0000000000003020 <.plt>:
    3020:	ff 35 4a dd 00 00    	push   0xdd4a(%rip)        # 10d70 <_GLOBAL_OFFSET_TABLE_+0x8>
    3026:	ff 25 4c dd 00 00    	jmp    *0xdd4c(%rip)        # 10d78 <_GLOBAL_OFFSET_TABLE_+0x10>
    302c:	0f 1f 40 00          	nopl   0x0(%rax)
    3030:	f3 0f 1e fa          	endbr64 
    3034:	68 00 00 00 00       	push   $0x0
    3039:	e9 e2 ff ff ff       	jmp    3020 <_init+0x20>
    303e:	66 90                	xchg   %ax,%ax
    3040:	f3 0f 1e fa          	endbr64 
    3044:	68 01 00 00 00       	push   $0x1
    3049:	e9 d2 ff ff ff       	jmp    3020 <_init+0x20>
    304e:	66 90                	xchg   %ax,%ax
    3050:	f3 0f 1e fa          	endbr64 
    3054:	68 02 00 00 00       	push   $0x2
    3059:	e9 c2 ff ff ff       	jmp    3020 <_init+0x20>
    305e:	66 90                	xchg   %ax,%ax
    3060:	f3 0f 1e fa          	endbr64 
    3064:	68 03 00 00 00       	push   $0x3
    3069:	e9 b2 ff ff ff       	jmp    3020 <_init+0x20>
    306e:	66 90                	xchg   %ax,%ax
    3070:	f3 0f 1e fa          	endbr64 
    3074:	68 04 00 00 00       	push   $0x4
    3079:	e9 a2 ff ff ff       	jmp    3020 <_init+0x20>
    307e:	66 90                	xchg   %ax,%ax
    3080:	f3 0f 1e fa          	endbr64 
    3084:	68 05 00 00 00       	push   $0x5
    3089:	e9 92 ff ff ff       	jmp    3020 <_init+0x20>
    308e:	66 90                	xchg   %ax,%ax
    3090:	f3 0f 1e fa          	endbr64 
    3094:	68 06 00 00 00       	push   $0x6
    3099:	e9 82 ff ff ff       	jmp    3020 <_init+0x20>
    309e:	66 90                	xchg   %ax,%ax
    30a0:	f3 0f 1e fa          	endbr64 
    30a4:	68 07 00 00 00       	push   $0x7
    30a9:	e9 72 ff ff ff       	jmp    3020 <_init+0x20>
    30ae:	66 90                	xchg   %ax,%ax
    30b0:	f3 0f 1e fa          	endbr64 
    30b4:	68 08 00 00 00       	push   $0x8
    30b9:	e9 62 ff ff ff       	jmp    3020 <_init+0x20>
    30be:	66 90                	xchg   %ax,%ax
    30c0:	f3 0f 1e fa          	endbr64 
    30c4:	68 09 00 00 00       	push   $0x9
    30c9:	e9 52 ff ff ff       	jmp    3020 <_init+0x20>
    30ce:	66 90                	xchg   %ax,%ax
    30d0:	f3 0f 1e fa          	endbr64 
    30d4:	68 0a 00 00 00       	push   $0xa
    30d9:	e9 42 ff ff ff       	jmp    3020 <_init+0x20>
    30de:	66 90                	xchg   %ax,%ax
    30e0:	f3 0f 1e fa          	endbr64 
    30e4:	68 0b 00 00 00       	push   $0xb
    30e9:	e9 32 ff ff ff       	jmp    3020 <_init+0x20>
    30ee:	66 90                	xchg   %ax,%ax
    30f0:	f3 0f 1e fa          	endbr64 
    30f4:	68 0c 00 00 00       	push   $0xc
    30f9:	e9 22 ff ff ff       	jmp    3020 <_init+0x20>
    30fe:	66 90                	xchg   %ax,%ax
    3100:	f3 0f 1e fa          	endbr64 
    3104:	68 0d 00 00 00       	push   $0xd
    3109:	e9 12 ff ff ff       	jmp    3020 <_init+0x20>
    310e:	66 90                	xchg   %ax,%ax
    3110:	f3 0f 1e fa          	endbr64 
    3114:	68 0e 00 00 00       	push   $0xe
    3119:	e9 02 ff ff ff       	jmp    3020 <_init+0x20>
    311e:	66 90                	xchg   %ax,%ax
    3120:	f3 0f 1e fa          	endbr64 
    3124:	68 0f 00 00 00       	push   $0xf
    3129:	e9 f2 fe ff ff       	jmp    3020 <_init+0x20>
    312e:	66 90                	xchg   %ax,%ax
    3130:	f3 0f 1e fa          	endbr64 
    3134:	68 10 00 00 00       	push   $0x10
    3139:	e9 e2 fe ff ff       	jmp    3020 <_init+0x20>
    313e:	66 90                	xchg   %ax,%ax
    3140:	f3 0f 1e fa          	endbr64 
    3144:	68 11 00 00 00       	push   $0x11
    3149:	e9 d2 fe ff ff       	jmp    3020 <_init+0x20>
    314e:	66 90                	xchg   %ax,%ax
    3150:	f3 0f 1e fa          	endbr64 
    3154:	68 12 00 00 00       	push   $0x12
    3159:	e9 c2 fe ff ff       	jmp    3020 <_init+0x20>
    315e:	66 90                	xchg   %ax,%ax
    3160:	f3 0f 1e fa          	endbr64 
    3164:	68 13 00 00 00       	push   $0x13
    3169:	e9 b2 fe ff ff       	jmp    3020 <_init+0x20>
    316e:	66 90                	xchg   %ax,%ax
    3170:	f3 0f 1e fa          	endbr64 
    3174:	68 14 00 00 00       	push   $0x14
    3179:	e9 a2 fe ff ff       	jmp    3020 <_init+0x20>
    317e:	66 90                	xchg   %ax,%ax
    3180:	f3 0f 1e fa          	endbr64 
    3184:	68 15 00 00 00       	push   $0x15
    3189:	e9 92 fe ff ff       	jmp    3020 <_init+0x20>
    318e:	66 90                	xchg   %ax,%ax
    3190:	f3 0f 1e fa          	endbr64 
    3194:	68 16 00 00 00       	push   $0x16
    3199:	e9 82 fe ff ff       	jmp    3020 <_init+0x20>
    319e:	66 90                	xchg   %ax,%ax
    31a0:	f3 0f 1e fa          	endbr64 
    31a4:	68 17 00 00 00       	push   $0x17
    31a9:	e9 72 fe ff ff       	jmp    3020 <_init+0x20>
    31ae:	66 90                	xchg   %ax,%ax
    31b0:	f3 0f 1e fa          	endbr64 
    31b4:	68 18 00 00 00       	push   $0x18
    31b9:	e9 62 fe ff ff       	jmp    3020 <_init+0x20>
    31be:	66 90                	xchg   %ax,%ax
    31c0:	f3 0f 1e fa          	endbr64 
    31c4:	68 19 00 00 00       	push   $0x19
    31c9:	e9 52 fe ff ff       	jmp    3020 <_init+0x20>
    31ce:	66 90                	xchg   %ax,%ax
    31d0:	f3 0f 1e fa          	endbr64 
    31d4:	68 1a 00 00 00       	push   $0x1a
    31d9:	e9 42 fe ff ff       	jmp    3020 <_init+0x20>
    31de:	66 90                	xchg   %ax,%ax
    31e0:	f3 0f 1e fa          	endbr64 
    31e4:	68 1b 00 00 00       	push   $0x1b
    31e9:	e9 32 fe ff ff       	jmp    3020 <_init+0x20>
    31ee:	66 90                	xchg   %ax,%ax
    31f0:	f3 0f 1e fa          	endbr64 
    31f4:	68 1c 00 00 00       	push   $0x1c
    31f9:	e9 22 fe ff ff       	jmp    3020 <_init+0x20>
    31fe:	66 90                	xchg   %ax,%ax
    3200:	f3 0f 1e fa          	endbr64 
    3204:	68 1d 00 00 00       	push   $0x1d
    3209:	e9 12 fe ff ff       	jmp    3020 <_init+0x20>
    320e:	66 90                	xchg   %ax,%ax
    3210:	f3 0f 1e fa          	endbr64 
    3214:	68 1e 00 00 00       	push   $0x1e
    3219:	e9 02 fe ff ff       	jmp    3020 <_init+0x20>
    321e:	66 90                	xchg   %ax,%ax
    3220:	f3 0f 1e fa          	endbr64 
    3224:	68 1f 00 00 00       	push   $0x1f
    3229:	e9 f2 fd ff ff       	jmp    3020 <_init+0x20>
    322e:	66 90                	xchg   %ax,%ax
    3230:	f3 0f 1e fa          	endbr64 
    3234:	68 20 00 00 00       	push   $0x20
    3239:	e9 e2 fd ff ff       	jmp    3020 <_init+0x20>
    323e:	66 90                	xchg   %ax,%ax
    3240:	f3 0f 1e fa          	endbr64 
    3244:	68 21 00 00 00       	push   $0x21
    3249:	e9 d2 fd ff ff       	jmp    3020 <_init+0x20>
    324e:	66 90                	xchg   %ax,%ax
    3250:	f3 0f 1e fa          	endbr64 
    3254:	68 22 00 00 00       	push   $0x22
    3259:	e9 c2 fd ff ff       	jmp    3020 <_init+0x20>
    325e:	66 90                	xchg   %ax,%ax
    3260:	f3 0f 1e fa          	endbr64 
    3264:	68 23 00 00 00       	push   $0x23
    3269:	e9 b2 fd ff ff       	jmp    3020 <_init+0x20>
    326e:	66 90                	xchg   %ax,%ax
    3270:	f3 0f 1e fa          	endbr64 
    3274:	68 24 00 00 00       	push   $0x24
    3279:	e9 a2 fd ff ff       	jmp    3020 <_init+0x20>
    327e:	66 90                	xchg   %ax,%ax
    3280:	f3 0f 1e fa          	endbr64 
    3284:	68 25 00 00 00       	push   $0x25
    3289:	e9 92 fd ff ff       	jmp    3020 <_init+0x20>
    328e:	66 90                	xchg   %ax,%ax
    3290:	f3 0f 1e fa          	endbr64 
    3294:	68 26 00 00 00       	push   $0x26
    3299:	e9 82 fd ff ff       	jmp    3020 <_init+0x20>
    329e:	66 90                	xchg   %ax,%ax
    32a0:	f3 0f 1e fa          	endbr64 
    32a4:	68 27 00 00 00       	push   $0x27
    32a9:	e9 72 fd ff ff       	jmp    3020 <_init+0x20>
    32ae:	66 90                	xchg   %ax,%ax
    32b0:	f3 0f 1e fa          	endbr64 
    32b4:	68 28 00 00 00       	push   $0x28
    32b9:	e9 62 fd ff ff       	jmp    3020 <_init+0x20>
    32be:	66 90                	xchg   %ax,%ax
    32c0:	f3 0f 1e fa          	endbr64 
    32c4:	68 29 00 00 00       	push   $0x29
    32c9:	e9 52 fd ff ff       	jmp    3020 <_init+0x20>
    32ce:	66 90                	xchg   %ax,%ax
    32d0:	f3 0f 1e fa          	endbr64 
    32d4:	68 2a 00 00 00       	push   $0x2a
    32d9:	e9 42 fd ff ff       	jmp    3020 <_init+0x20>
    32de:	66 90                	xchg   %ax,%ax
    32e0:	f3 0f 1e fa          	endbr64 
    32e4:	68 2b 00 00 00       	push   $0x2b
    32e9:	e9 32 fd ff ff       	jmp    3020 <_init+0x20>
    32ee:	66 90                	xchg   %ax,%ax
    32f0:	f3 0f 1e fa          	endbr64 
    32f4:	68 2c 00 00 00       	push   $0x2c
    32f9:	e9 22 fd ff ff       	jmp    3020 <_init+0x20>
    32fe:	66 90                	xchg   %ax,%ax
    3300:	f3 0f 1e fa          	endbr64 
    3304:	68 2d 00 00 00       	push   $0x2d
    3309:	e9 12 fd ff ff       	jmp    3020 <_init+0x20>
    330e:	66 90                	xchg   %ax,%ax
    3310:	f3 0f 1e fa          	endbr64 
    3314:	68 2e 00 00 00       	push   $0x2e
    3319:	e9 02 fd ff ff       	jmp    3020 <_init+0x20>
    331e:	66 90                	xchg   %ax,%ax
    3320:	f3 0f 1e fa          	endbr64 
    3324:	68 2f 00 00 00       	push   $0x2f
    3329:	e9 f2 fc ff ff       	jmp    3020 <_init+0x20>
    332e:	66 90                	xchg   %ax,%ax
    3330:	f3 0f 1e fa          	endbr64 
    3334:	68 30 00 00 00       	push   $0x30
    3339:	e9 e2 fc ff ff       	jmp    3020 <_init+0x20>
    333e:	66 90                	xchg   %ax,%ax
    3340:	f3 0f 1e fa          	endbr64 
    3344:	68 31 00 00 00       	push   $0x31
    3349:	e9 d2 fc ff ff       	jmp    3020 <_init+0x20>
    334e:	66 90                	xchg   %ax,%ax
    3350:	f3 0f 1e fa          	endbr64 
    3354:	68 32 00 00 00       	push   $0x32
    3359:	e9 c2 fc ff ff       	jmp    3020 <_init+0x20>
    335e:	66 90                	xchg   %ax,%ax
    3360:	f3 0f 1e fa          	endbr64 
    3364:	68 33 00 00 00       	push   $0x33
    3369:	e9 b2 fc ff ff       	jmp    3020 <_init+0x20>
    336e:	66 90                	xchg   %ax,%ax
    3370:	f3 0f 1e fa          	endbr64 
    3374:	68 34 00 00 00       	push   $0x34
    3379:	e9 a2 fc ff ff       	jmp    3020 <_init+0x20>
    337e:	66 90                	xchg   %ax,%ax
    3380:	f3 0f 1e fa          	endbr64 
    3384:	68 35 00 00 00       	push   $0x35
    3389:	e9 92 fc ff ff       	jmp    3020 <_init+0x20>
    338e:	66 90                	xchg   %ax,%ax
    3390:	f3 0f 1e fa          	endbr64 
    3394:	68 36 00 00 00       	push   $0x36
    3399:	e9 82 fc ff ff       	jmp    3020 <_init+0x20>
    339e:	66 90                	xchg   %ax,%ax
    33a0:	f3 0f 1e fa          	endbr64 
    33a4:	68 37 00 00 00       	push   $0x37
    33a9:	e9 72 fc ff ff       	jmp    3020 <_init+0x20>
    33ae:	66 90                	xchg   %ax,%ax
    33b0:	f3 0f 1e fa          	endbr64 
    33b4:	68 38 00 00 00       	push   $0x38
    33b9:	e9 62 fc ff ff       	jmp    3020 <_init+0x20>
    33be:	66 90                	xchg   %ax,%ax
    33c0:	f3 0f 1e fa          	endbr64 
    33c4:	68 39 00 00 00       	push   $0x39
    33c9:	e9 52 fc ff ff       	jmp    3020 <_init+0x20>
    33ce:	66 90                	xchg   %ax,%ax
    33d0:	f3 0f 1e fa          	endbr64 
    33d4:	68 3a 00 00 00       	push   $0x3a
    33d9:	e9 42 fc ff ff       	jmp    3020 <_init+0x20>
    33de:	66 90                	xchg   %ax,%ax
    33e0:	f3 0f 1e fa          	endbr64 
    33e4:	68 3b 00 00 00       	push   $0x3b
    33e9:	e9 32 fc ff ff       	jmp    3020 <_init+0x20>
    33ee:	66 90                	xchg   %ax,%ax
    33f0:	f3 0f 1e fa          	endbr64 
    33f4:	68 3c 00 00 00       	push   $0x3c
    33f9:	e9 22 fc ff ff       	jmp    3020 <_init+0x20>
    33fe:	66 90                	xchg   %ax,%ax
    3400:	f3 0f 1e fa          	endbr64 
    3404:	68 3d 00 00 00       	push   $0x3d
    3409:	e9 12 fc ff ff       	jmp    3020 <_init+0x20>
    340e:	66 90                	xchg   %ax,%ax
    3410:	f3 0f 1e fa          	endbr64 
    3414:	68 3e 00 00 00       	push   $0x3e
    3419:	e9 02 fc ff ff       	jmp    3020 <_init+0x20>
    341e:	66 90                	xchg   %ax,%ax
    3420:	f3 0f 1e fa          	endbr64 
    3424:	68 3f 00 00 00       	push   $0x3f
    3429:	e9 f2 fb ff ff       	jmp    3020 <_init+0x20>
    342e:	66 90                	xchg   %ax,%ax
    3430:	f3 0f 1e fa          	endbr64 
    3434:	68 40 00 00 00       	push   $0x40
    3439:	e9 e2 fb ff ff       	jmp    3020 <_init+0x20>
    343e:	66 90                	xchg   %ax,%ax
    3440:	f3 0f 1e fa          	endbr64 
    3444:	68 41 00 00 00       	push   $0x41
    3449:	e9 d2 fb ff ff       	jmp    3020 <_init+0x20>
    344e:	66 90                	xchg   %ax,%ax
    3450:	f3 0f 1e fa          	endbr64 
    3454:	68 42 00 00 00       	push   $0x42
    3459:	e9 c2 fb ff ff       	jmp    3020 <_init+0x20>
    345e:	66 90                	xchg   %ax,%ax
    3460:	f3 0f 1e fa          	endbr64 
    3464:	68 43 00 00 00       	push   $0x43
    3469:	e9 b2 fb ff ff       	jmp    3020 <_init+0x20>
    346e:	66 90                	xchg   %ax,%ax
    3470:	f3 0f 1e fa          	endbr64 
    3474:	68 44 00 00 00       	push   $0x44
    3479:	e9 a2 fb ff ff       	jmp    3020 <_init+0x20>
    347e:	66 90                	xchg   %ax,%ax
    3480:	f3 0f 1e fa          	endbr64 
    3484:	68 45 00 00 00       	push   $0x45
    3489:	e9 92 fb ff ff       	jmp    3020 <_init+0x20>
    348e:	66 90                	xchg   %ax,%ax
    3490:	f3 0f 1e fa          	endbr64 
    3494:	68 46 00 00 00       	push   $0x46
    3499:	e9 82 fb ff ff       	jmp    3020 <_init+0x20>
    349e:	66 90                	xchg   %ax,%ax
    34a0:	f3 0f 1e fa          	endbr64 
    34a4:	68 47 00 00 00       	push   $0x47
    34a9:	e9 72 fb ff ff       	jmp    3020 <_init+0x20>
    34ae:	66 90                	xchg   %ax,%ax
    34b0:	f3 0f 1e fa          	endbr64 
    34b4:	68 48 00 00 00       	push   $0x48
    34b9:	e9 62 fb ff ff       	jmp    3020 <_init+0x20>
    34be:	66 90                	xchg   %ax,%ax
    34c0:	f3 0f 1e fa          	endbr64 
    34c4:	68 49 00 00 00       	push   $0x49
    34c9:	e9 52 fb ff ff       	jmp    3020 <_init+0x20>
    34ce:	66 90                	xchg   %ax,%ax

Disassembly of section .plt.got:

00000000000034d0 <.plt.got>:
    34d0:	f3 0f 1e fa          	endbr64 
    34d4:	ff 25 f6 da 00 00    	jmp    *0xdaf6(%rip)        # 10fd0 <__cxa_finalize@GLIBC_2.2.5>
    34da:	66 0f 1f 44 00 00    	nopw   0x0(%rax,%rax,1)

Disassembly of section .plt.sec:

00000000000034e0 <.plt.sec>:
    34e0:	f3 0f 1e fa          	endbr64 
    34e4:	ff 25 96 d8 00 00    	jmp    *0xd896(%rip)        # 10d80 <_ZNKSt7__cxx1112basic_stringIcSt11char_traitsIcESaIcEE7compareERKS4_@GLIBCXX_3.4.21>
    34ea:	66 0f 1f 44 00 00    	nopw   0x0(%rax,%rax,1)
    34f0:	f3 0f 1e fa          	endbr64 
    34f4:	ff 25 8e d8 00 00    	jmp    *0xd88e(%rip)        # 10d88 <_ZNSt7__cxx1112basic_stringIcSt11char_traitsIcESaIcEEaSERKS4_@GLIBCXX_3.4.21>
    34fa:	66 0f 1f 44 00 00    	nopw   0x0(%rax,%rax,1)
    3500:	f3 0f 1e fa          	endbr64 
    3504:	ff 25 86 d8 00 00    	jmp    *0xd886(%rip)        # 10d90 <_ZNSt7__cxx1112basic_stringIcSt11char_traitsIcESaIcEE6appendEPKcm@GLIBCXX_3.4.21>
    350a:	66 0f 1f 44 00 00    	nopw   0x0(%rax,%rax,1)
    3510:	f3 0f 1e fa          	endbr64 
    3514:	ff 25 7e d8 00 00    	jmp    *0xd87e(%rip)        # 10d98 <_ZSt29_Rb_tree_insert_and_rebalancebPSt18_Rb_tree_node_baseS0_RS_@GLIBCXX_3.4>
    351a:	66 0f 1f 44 00 00    	nopw   0x0(%rax,%rax,1)
    3520:	f3 0f 1e fa          	endbr64 
    3524:	ff 25 76 d8 00 00    	jmp    *0xd876(%rip)        # 10da0 <_ZSt7getlineIcSt11char_traitsIcESaIcEERSt13basic_istreamIT_T0_ES7_RNSt7__cxx1112basic_stringIS4_S5_T1_EE@GLIBCXX_3.4.21>
    352a:	66 0f 1f 44 00 00    	nopw   0x0(%rax,%rax,1)
    3530:	f3 0f 1e fa          	endbr64 
    3534:	ff 25 6e d8 00 00    	jmp    *0xd86e(%rip)        # 10da8 <_ZNSt7__cxx1119basic_ostringstreamIcSt11char_traitsIcESaIcEED1Ev@GLIBCXX_3.4.21>
    353a:	66 0f 1f 44 00 00    	nopw   0x0(%rax,%rax,1)
    3540:	f3 0f 1e fa          	endbr64 
    3544:	ff 25 66 d8 00 00    	jmp    *0xd866(%rip)        # 10db0 <_ZNSt14basic_ifstreamIcSt11char_traitsIcEED1Ev@GLIBCXX_3.4>
    354a:	66 0f 1f 44 00 00    	nopw   0x0(%rax,%rax,1)
    3550:	f3 0f 1e fa          	endbr64 
    3554:	ff 25 5e d8 00 00    	jmp    *0xd85e(%rip)        # 10db8 <popen@GLIBC_2.2.5>
    355a:	66 0f 1f 44 00 00    	nopw   0x0(%rax,%rax,1)
    3560:	f3 0f 1e fa          	endbr64 
    3564:	ff 25 56 d8 00 00    	jmp    *0xd856(%rip)        # 10dc0 <_ZSt17__throw_bad_allocv@GLIBCXX_3.4>
    356a:	66 0f 1f 44 00 00    	nopw   0x0(%rax,%rax,1)
    3570:	f3 0f 1e fa          	endbr64 
    3574:	ff 25 4e d8 00 00    	jmp    *0xd84e(%rip)        # 10dc8 <_ZNKSt7__cxx1112basic_stringIcSt11char_traitsIcESaIcEE13get_allocatorEv@GLIBCXX_3.4.21>
    357a:	66 0f 1f 44 00 00    	nopw   0x0(%rax,%rax,1)
    3580:	f3 0f 1e fa          	endbr64 
    3584:	ff 25 46 d8 00 00    	jmp    *0xd846(%rip)        # 10dd0 <__cxa_begin_catch@CXXABI_1.3>
    358a:	66 0f 1f 44 00 00    	nopw   0x0(%rax,%rax,1)
    3590:	f3 0f 1e fa          	endbr64 
    3594:	ff 25 3e d8 00 00    	jmp    *0xd83e(%rip)        # 10dd8 <_ZNKSt7__cxx1112basic_stringIcSt11char_traitsIcESaIcEE5c_strEv@GLIBCXX_3.4.21>
    359a:	66 0f 1f 44 00 00    	nopw   0x0(%rax,%rax,1)
    35a0:	f3 0f 1e fa          	endbr64 
    35a4:	ff 25 36 d8 00 00    	jmp    *0xd836(%rip)        # 10de0 <_ZNSt7__cxx1112basic_stringIcSt11char_traitsIcESaIcEEC1ERKS4_@GLIBCXX_3.4.21>
    35aa:	66 0f 1f 44 00 00    	nopw   0x0(%rax,%rax,1)
    35b0:	f3 0f 1e fa          	endbr64 
    35b4:	ff 25 2e d8 00 00    	jmp    *0xd82e(%rip)        # 10de8 <strlen@GLIBC_2.2.5>
    35ba:	66 0f 1f 44 00 00    	nopw   0x0(%rax,%rax,1)
    35c0:	f3 0f 1e fa          	endbr64 
    35c4:	ff 25 26 d8 00 00    	jmp    *0xd826(%rip)        # 10df0 <GOMP_loop_end_nowait@GOMP_1.0>
    35ca:	66 0f 1f 44 00 00    	nopw   0x0(%rax,%rax,1)
    35d0:	f3 0f 1e fa          	endbr64 
    35d4:	ff 25 1e d8 00 00    	jmp    *0xd81e(%rip)        # 10df8 <_ZSt20__throw_length_errorPKc@GLIBCXX_3.4>
    35da:	66 0f 1f 44 00 00    	nopw   0x0(%rax,%rax,1)
    35e0:	f3 0f 1e fa          	endbr64 
    35e4:	ff 25 16 d8 00 00    	jmp    *0xd816(%rip)        # 10e00 <_ZNSt7__cxx1112basic_stringIcSt11char_traitsIcESaIcEEC1EOS4_@GLIBCXX_3.4.21>
    35ea:	66 0f 1f 44 00 00    	nopw   0x0(%rax,%rax,1)
    35f0:	f3 0f 1e fa          	endbr64 
    35f4:	ff 25 0e d8 00 00    	jmp    *0xd80e(%rip)        # 10e08 <_ZNSt7__cxx1112basic_stringIcSt11char_traitsIcESaIcEED1Ev@GLIBCXX_3.4.21>
    35fa:	66 0f 1f 44 00 00    	nopw   0x0(%rax,%rax,1)
    3600:	f3 0f 1e fa          	endbr64 
    3604:	ff 25 06 d8 00 00    	jmp    *0xd806(%rip)        # 10e10 <_ZNSt7__cxx1112basic_stringIcSt11char_traitsIcESaIcEEpLEc@GLIBCXX_3.4.21>
    360a:	66 0f 1f 44 00 00    	nopw   0x0(%rax,%rax,1)
    3610:	f3 0f 1e fa          	endbr64 
    3614:	ff 25 fe d7 00 00    	jmp    *0xd7fe(%rip)        # 10e18 <_ZSt20__throw_system_errori@GLIBCXX_3.4.11>
    361a:	66 0f 1f 44 00 00    	nopw   0x0(%rax,%rax,1)
    3620:	f3 0f 1e fa          	endbr64 
    3624:	ff 25 f6 d7 00 00    	jmp    *0xd7f6(%rip)        # 10e20 <_ZNSt7__cxx1112basic_stringIcSt11char_traitsIcESaIcEE13_M_set_lengthEm@GLIBCXX_3.4.21>
    362a:	66 0f 1f 44 00 00    	nopw   0x0(%rax,%rax,1)
    3630:	f3 0f 1e fa          	endbr64 
    3634:	ff 25 ee d7 00 00    	jmp    *0xd7ee(%rip)        # 10e28 <_ZSt18_Rb_tree_incrementPSt18_Rb_tree_node_base@GLIBCXX_3.4>
    363a:	66 0f 1f 44 00 00    	nopw   0x0(%rax,%rax,1)
    3640:	f3 0f 1e fa          	endbr64 
    3644:	ff 25 e6 d7 00 00    	jmp    *0xd7e6(%rip)        # 10e30 <_ZNKSt7__cxx1112basic_stringIcSt11char_traitsIcESaIcEE4sizeEv@GLIBCXX_3.4.21>
    364a:	66 0f 1f 44 00 00    	nopw   0x0(%rax,%rax,1)
    3650:	f3 0f 1e fa          	endbr64 
    3654:	ff 25 de d7 00 00    	jmp    *0xd7de(%rip)        # 10e38 <_ZSt19__throw_logic_errorPKc@GLIBCXX_3.4>
    365a:	66 0f 1f 44 00 00    	nopw   0x0(%rax,%rax,1)
    3660:	f3 0f 1e fa          	endbr64 
    3664:	ff 25 d6 d7 00 00    	jmp    *0xd7d6(%rip)        # 10e40 <pthread_mutex_unlock@GLIBC_2.2.5>
    366a:	66 0f 1f 44 00 00    	nopw   0x0(%rax,%rax,1)
    3670:	f3 0f 1e fa          	endbr64 
    3674:	ff 25 ce d7 00 00    	jmp    *0xd7ce(%rip)        # 10e48 <_ZSt28__throw_bad_array_new_lengthv@GLIBCXX_3.4.29>
    367a:	66 0f 1f 44 00 00    	nopw   0x0(%rax,%rax,1)
    3680:	f3 0f 1e fa          	endbr64 
    3684:	ff 25 c6 d7 00 00    	jmp    *0xd7c6(%rip)        # 10e50 <_ZNSt7__cxx1112basic_stringIcSt11char_traitsIcESaIcEE13_M_local_dataEv@GLIBCXX_3.4.21>
    368a:	66 0f 1f 44 00 00    	nopw   0x0(%rax,%rax,1)
    3690:	f3 0f 1e fa          	endbr64 
    3694:	ff 25 be d7 00 00    	jmp    *0xd7be(%rip)        # 10e58 <_ZNSt7__cxx1112basic_stringIcSt11char_traitsIcESaIcEE7_M_dataEPc@GLIBCXX_3.4.21>
    369a:	66 0f 1f 44 00 00    	nopw   0x0(%rax,%rax,1)
    36a0:	f3 0f 1e fa          	endbr64 
    36a4:	ff 25 b6 d7 00 00    	jmp    *0xd7b6(%rip)        # 10e60 <_ZStlsIcSt11char_traitsIcESaIcEERSt13basic_ostreamIT_T0_ES7_RKNSt7__cxx1112basic_stringIS4_S5_T1_EE@GLIBCXX_3.4.21>
    36aa:	66 0f 1f 44 00 00    	nopw   0x0(%rax,%rax,1)
    36b0:	f3 0f 1e fa          	endbr64 
    36b4:	ff 25 ae d7 00 00    	jmp    *0xd7ae(%rip)        # 10e68 <_ZNKSt7__cxx1112basic_stringIcSt11char_traitsIcESaIcEE5beginEv@GLIBCXX_3.4.21>
    36ba:	66 0f 1f 44 00 00    	nopw   0x0(%rax,%rax,1)
    36c0:	f3 0f 1e fa          	endbr64 
    36c4:	ff 25 a6 d7 00 00    	jmp    *0xd7a6(%rip)        # 10e70 <_ZNSt7__cxx1112basic_stringIcSt11char_traitsIcESaIcEEpLEPKc@GLIBCXX_3.4.21>
    36ca:	66 0f 1f 44 00 00    	nopw   0x0(%rax,%rax,1)
    36d0:	f3 0f 1e fa          	endbr64 
    36d4:	ff 25 9e d7 00 00    	jmp    *0xd79e(%rip)        # 10e78 <_ZStlsISt11char_traitsIcEERSt13basic_ostreamIcT_ES5_PKc@GLIBCXX_3.4>
    36da:	66 0f 1f 44 00 00    	nopw   0x0(%rax,%rax,1)
    36e0:	f3 0f 1e fa          	endbr64 
    36e4:	ff 25 96 d7 00 00    	jmp    *0xd796(%rip)        # 10e80 <_Znwm@GLIBCXX_3.4>
    36ea:	66 0f 1f 44 00 00    	nopw   0x0(%rax,%rax,1)
    36f0:	f3 0f 1e fa          	endbr64 
    36f4:	ff 25 8e d7 00 00    	jmp    *0xd78e(%rip)        # 10e88 <_ZdlPvm@CXXABI_1.3.9>
    36fa:	66 0f 1f 44 00 00    	nopw   0x0(%rax,%rax,1)
    3700:	f3 0f 1e fa          	endbr64 
    3704:	ff 25 86 d7 00 00    	jmp    *0xd786(%rip)        # 10e90 <_ZNKSt7__cxx1119basic_ostringstreamIcSt11char_traitsIcESaIcEE3strEv@GLIBCXX_3.4.21>
    370a:	66 0f 1f 44 00 00    	nopw   0x0(%rax,%rax,1)
    3710:	f3 0f 1e fa          	endbr64 
    3714:	ff 25 7e d7 00 00    	jmp    *0xd77e(%rip)        # 10e98 <_ZNKSt7__cxx1112basic_stringIcSt11char_traitsIcESaIcEE6substrEmm@GLIBCXX_3.4.21>
    371a:	66 0f 1f 44 00 00    	nopw   0x0(%rax,%rax,1)
    3720:	f3 0f 1e fa          	endbr64 
    3724:	ff 25 76 d7 00 00    	jmp    *0xd776(%rip)        # 10ea0 <_ZSt18_Rb_tree_decrementPSt18_Rb_tree_node_base@GLIBCXX_3.4>
    372a:	66 0f 1f 44 00 00    	nopw   0x0(%rax,%rax,1)
    3730:	f3 0f 1e fa          	endbr64 
    3734:	ff 25 6e d7 00 00    	jmp    *0xd76e(%rip)        # 10ea8 <_ZNSolsEPFRSoS_E@GLIBCXX_3.4>
    373a:	66 0f 1f 44 00 00    	nopw   0x0(%rax,%rax,1)
    3740:	f3 0f 1e fa          	endbr64 
    3744:	ff 25 66 d7 00 00    	jmp    *0xd766(%rip)        # 10eb0 <_ZNSt7__cxx1112basic_stringIcSt11char_traitsIcESaIcEE12_Alloc_hiderC1EPcRKS3_@GLIBCXX_3.4.21>
    374a:	66 0f 1f 44 00 00    	nopw   0x0(%rax,%rax,1)
    3750:	f3 0f 1e fa          	endbr64 
    3754:	ff 25 5e d7 00 00    	jmp    *0xd75e(%rip)        # 10eb8 <_ZNSt14basic_ofstreamIcSt11char_traitsIcEEC1EPKcSt13_Ios_Openmode@GLIBCXX_3.4>
    375a:	66 0f 1f 44 00 00    	nopw   0x0(%rax,%rax,1)
    3760:	f3 0f 1e fa          	endbr64 
    3764:	ff 25 56 d7 00 00    	jmp    *0xd756(%rip)        # 10ec0 <_ZNKSt7__cxx1112basic_stringIcSt11char_traitsIcESaIcEE7_M_dataEv@GLIBCXX_3.4.21>
    376a:	66 0f 1f 44 00 00    	nopw   0x0(%rax,%rax,1)
    3770:	f3 0f 1e fa          	endbr64 
    3774:	ff 25 4e d7 00 00    	jmp    *0xd74e(%rip)        # 10ec8 <_ZNSt7__cxx1112basic_stringIcSt11char_traitsIcESaIcEE13_S_copy_charsEPcPKcS7_@GLIBCXX_3.4.21>
    377a:	66 0f 1f 44 00 00    	nopw   0x0(%rax,%rax,1)
    3780:	f3 0f 1e fa          	endbr64 
    3784:	ff 25 46 d7 00 00    	jmp    *0xd746(%rip)        # 10ed0 <__stack_chk_fail@GLIBC_2.4>
    378a:	66 0f 1f 44 00 00    	nopw   0x0(%rax,%rax,1)
    3790:	f3 0f 1e fa          	endbr64 
    3794:	ff 25 3e d7 00 00    	jmp    *0xd73e(%rip)        # 10ed8 <omp_set_num_threads@OMP_1.0>
    379a:	66 0f 1f 44 00 00    	nopw   0x0(%rax,%rax,1)
    37a0:	f3 0f 1e fa          	endbr64 
    37a4:	ff 25 36 d7 00 00    	jmp    *0xd736(%rip)        # 10ee0 <_ZSt18_Rb_tree_incrementPKSt18_Rb_tree_node_base@GLIBCXX_3.4>
    37aa:	66 0f 1f 44 00 00    	nopw   0x0(%rax,%rax,1)
    37b0:	f3 0f 1e fa          	endbr64 
    37b4:	ff 25 2e d7 00 00    	jmp    *0xd72e(%rip)        # 10ee8 <_ZNSt7__cxx1112basic_stringIcSt11char_traitsIcESaIcEE10_M_disposeEv@GLIBCXX_3.4.21>
    37ba:	66 0f 1f 44 00 00    	nopw   0x0(%rax,%rax,1)
    37c0:	f3 0f 1e fa          	endbr64 
    37c4:	ff 25 26 d7 00 00    	jmp    *0xd726(%rip)        # 10ef0 <_ZNKSt9basic_iosIcSt11char_traitsIcEEcvbEv@GLIBCXX_3.4.21>
    37ca:	66 0f 1f 44 00 00    	nopw   0x0(%rax,%rax,1)
    37d0:	f3 0f 1e fa          	endbr64 
    37d4:	ff 25 1e d7 00 00    	jmp    *0xd71e(%rip)        # 10ef8 <GOMP_loop_nonmonotonic_dynamic_next@GOMP_4.5>
    37da:	66 0f 1f 44 00 00    	nopw   0x0(%rax,%rax,1)
    37e0:	f3 0f 1e fa          	endbr64 
    37e4:	ff 25 16 d7 00 00    	jmp    *0xd716(%rip)        # 10f00 <_ZNKSt7__cxx1112basic_stringIcSt11char_traitsIcESaIcEE4findEcm@GLIBCXX_3.4.21>
    37ea:	66 0f 1f 44 00 00    	nopw   0x0(%rax,%rax,1)
    37f0:	f3 0f 1e fa          	endbr64 
    37f4:	ff 25 0e d7 00 00    	jmp    *0xd70e(%rip)        # 10f08 <_ZNSt7__cxx1119basic_ostringstreamIcSt11char_traitsIcESaIcEEC1Ev@GLIBCXX_3.4.26>
    37fa:	66 0f 1f 44 00 00    	nopw   0x0(%rax,%rax,1)
    3800:	f3 0f 1e fa          	endbr64 
    3804:	ff 25 06 d7 00 00    	jmp    *0xd706(%rip)        # 10f10 <_ZNSt7__cxx1112basic_stringIcSt11char_traitsIcESaIcEEaSEPKc@GLIBCXX_3.4.21>
    380a:	66 0f 1f 44 00 00    	nopw   0x0(%rax,%rax,1)
    3810:	f3 0f 1e fa          	endbr64 
    3814:	ff 25 fe d6 00 00    	jmp    *0xd6fe(%rip)        # 10f18 <_ZNSt7__cxx1112basic_stringIcSt11char_traitsIcESaIcEEC1Ev@GLIBCXX_3.4.21>
    381a:	66 0f 1f 44 00 00    	nopw   0x0(%rax,%rax,1)
    3820:	f3 0f 1e fa          	endbr64 
    3824:	ff 25 f6 d6 00 00    	jmp    *0xd6f6(%rip)        # 10f20 <pclose@GLIBC_2.2.5>
    382a:	66 0f 1f 44 00 00    	nopw   0x0(%rax,%rax,1)
    3830:	f3 0f 1e fa          	endbr64 
    3834:	ff 25 ee d6 00 00    	jmp    *0xd6ee(%rip)        # 10f28 <_ZNSt14basic_ofstreamIcSt11char_traitsIcEE5closeEv@GLIBCXX_3.4>
    383a:	66 0f 1f 44 00 00    	nopw   0x0(%rax,%rax,1)
    3840:	f3 0f 1e fa          	endbr64 
    3844:	ff 25 e6 d6 00 00    	jmp    *0xd6e6(%rip)        # 10f30 <__cxa_rethrow@CXXABI_1.3>
    384a:	66 0f 1f 44 00 00    	nopw   0x0(%rax,%rax,1)
    3850:	f3 0f 1e fa          	endbr64 
    3854:	ff 25 de d6 00 00    	jmp    *0xd6de(%rip)        # 10f38 <pthread_mutex_lock@GLIBC_2.2.5>
    385a:	66 0f 1f 44 00 00    	nopw   0x0(%rax,%rax,1)
    3860:	f3 0f 1e fa          	endbr64 
    3864:	ff 25 d6 d6 00 00    	jmp    *0xd6d6(%rip)        # 10f40 <_ZNSt14basic_ofstreamIcSt11char_traitsIcEED1Ev@GLIBCXX_3.4>
    386a:	66 0f 1f 44 00 00    	nopw   0x0(%rax,%rax,1)
    3870:	f3 0f 1e fa          	endbr64 
    3874:	ff 25 ce d6 00 00    	jmp    *0xd6ce(%rip)        # 10f48 <GOMP_parallel@GOMP_4.0>
    387a:	66 0f 1f 44 00 00    	nopw   0x0(%rax,%rax,1)
    3880:	f3 0f 1e fa          	endbr64 
    3884:	ff 25 c6 d6 00 00    	jmp    *0xd6c6(%rip)        # 10f50 <_ZNSt7__cxx1112basic_stringIcSt11char_traitsIcESaIcEE7reserveEm@GLIBCXX_3.4.21>
    388a:	66 0f 1f 44 00 00    	nopw   0x0(%rax,%rax,1)
    3890:	f3 0f 1e fa          	endbr64 
    3894:	ff 25 be d6 00 00    	jmp    *0xd6be(%rip)        # 10f58 <fgets@GLIBC_2.2.5>
    389a:	66 0f 1f 44 00 00    	nopw   0x0(%rax,%rax,1)
    38a0:	f3 0f 1e fa          	endbr64 
    38a4:	ff 25 b6 d6 00 00    	jmp    *0xd6b6(%rip)        # 10f60 <omp_get_thread_num@OMP_1.0>
    38aa:	66 0f 1f 44 00 00    	nopw   0x0(%rax,%rax,1)
    38b0:	f3 0f 1e fa          	endbr64 
    38b4:	ff 25 ae d6 00 00    	jmp    *0xd6ae(%rip)        # 10f68 <_ZNSt14basic_ifstreamIcSt11char_traitsIcEEC1ERKNSt7__cxx1112basic_stringIcS1_SaIcEEESt13_Ios_Openmode@GLIBCXX_3.4.21>
    38ba:	66 0f 1f 44 00 00    	nopw   0x0(%rax,%rax,1)
    38c0:	f3 0f 1e fa          	endbr64 
    38c4:	ff 25 a6 d6 00 00    	jmp    *0xd6a6(%rip)        # 10f70 <__cxa_end_catch@CXXABI_1.3>
    38ca:	66 0f 1f 44 00 00    	nopw   0x0(%rax,%rax,1)
    38d0:	f3 0f 1e fa          	endbr64 
    38d4:	ff 25 9e d6 00 00    	jmp    *0xd69e(%rip)        # 10f78 <GOMP_loop_nonmonotonic_dynamic_start@GOMP_4.5>
    38da:	66 0f 1f 44 00 00    	nopw   0x0(%rax,%rax,1)
    38e0:	f3 0f 1e fa          	endbr64 
    38e4:	ff 25 96 d6 00 00    	jmp    *0xd696(%rip)        # 10f80 <_ZNKSt7__cxx1112basic_stringIcSt11char_traitsIcESaIcEE5emptyEv@GLIBCXX_3.4.21>
    38ea:	66 0f 1f 44 00 00    	nopw   0x0(%rax,%rax,1)
    38f0:	f3 0f 1e fa          	endbr64 
    38f4:	ff 25 8e d6 00 00    	jmp    *0xd68e(%rip)        # 10f88 <_ZNSt7__cxx1112basic_stringIcSt11char_traitsIcESaIcEEC1ERKS3_@GLIBCXX_3.4.21>
    38fa:	66 0f 1f 44 00 00    	nopw   0x0(%rax,%rax,1)
    3900:	f3 0f 1e fa          	endbr64 
    3904:	ff 25 86 d6 00 00    	jmp    *0xd686(%rip)        # 10f90 <_ZNSolsEi@GLIBCXX_3.4>
    390a:	66 0f 1f 44 00 00    	nopw   0x0(%rax,%rax,1)
    3910:	f3 0f 1e fa          	endbr64 
    3914:	ff 25 7e d6 00 00    	jmp    *0xd67e(%rip)        # 10f98 <_Unwind_Resume@GCC_3.0>
    391a:	66 0f 1f 44 00 00    	nopw   0x0(%rax,%rax,1)
    3920:	f3 0f 1e fa          	endbr64 
    3924:	ff 25 76 d6 00 00    	jmp    *0xd676(%rip)        # 10fa0 <_ZNSt7__cxx1112basic_stringIcSt11char_traitsIcESaIcEE9_M_createERmm@GLIBCXX_3.4.21>
    392a:	66 0f 1f 44 00 00    	nopw   0x0(%rax,%rax,1)
    3930:	f3 0f 1e fa          	endbr64 
    3934:	ff 25 6e d6 00 00    	jmp    *0xd66e(%rip)        # 10fa8 <_ZNKSt7__cxx1112basic_stringIcSt11char_traitsIcESaIcEE3endEv@GLIBCXX_3.4.21>
    393a:	66 0f 1f 44 00 00    	nopw   0x0(%rax,%rax,1)
    3940:	f3 0f 1e fa          	endbr64 
    3944:	ff 25 66 d6 00 00    	jmp    *0xd666(%rip)        # 10fb0 <_ZNSt7__cxx1112basic_stringIcSt11char_traitsIcESaIcEE6appendEPKc@GLIBCXX_3.4.21>
    394a:	66 0f 1f 44 00 00    	nopw   0x0(%rax,%rax,1)
    3950:	f3 0f 1e fa          	endbr64 
    3954:	ff 25 5e d6 00 00    	jmp    *0xd65e(%rip)        # 10fb8 <_ZNSt7__cxx1112basic_stringIcSt11char_traitsIcESaIcEE11_M_capacityEm@GLIBCXX_3.4.21>
    395a:	66 0f 1f 44 00 00    	nopw   0x0(%rax,%rax,1)
    3960:	f3 0f 1e fa          	endbr64 
    3964:	ff 25 56 d6 00 00    	jmp    *0xd656(%rip)        # 10fc0 <_ZNKSt7__cxx1112basic_stringIcSt11char_traitsIcESaIcEE4findEPKcm@GLIBCXX_3.4.21>
    396a:	66 0f 1f 44 00 00    	nopw   0x0(%rax,%rax,1)
    3970:	f3 0f 1e fa          	endbr64 
    3974:	ff 25 4e d6 00 00    	jmp    *0xd64e(%rip)        # 10fc8 <_ZNKSt7__cxx1112basic_stringIcSt11char_traitsIcESaIcEE4findERKS4_m@GLIBCXX_3.4.21>
    397a:	66 0f 1f 44 00 00    	nopw   0x0(%rax,%rax,1)

Disassembly of section .text:

0000000000003980 <_start>:
    3980:	f3 0f 1e fa          	endbr64 
    3984:	31 ed                	xor    %ebp,%ebp
    3986:	49 89 d1             	mov    %rdx,%r9
    3989:	5e                   	pop    %rsi
    398a:	48 89 e2             	mov    %rsp,%rdx
    398d:	48 83 e4 f0          	and    $0xfffffffffffffff0,%rsp
    3991:	50                   	push   %rax
    3992:	54                   	push   %rsp
    3993:	45 31 c0             	xor    %r8d,%r8d
    3996:	31 c9                	xor    %ecx,%ecx
    3998:	48 8d 3d 30 14 00 00 	lea    0x1430(%rip),%rdi        # 4dcf <main>
    399f:	ff 15 3b d6 00 00    	call   *0xd63b(%rip)        # 10fe0 <__libc_start_main@GLIBC_2.34>
    39a5:	f4                   	hlt    
    39a6:	66 2e 0f 1f 84 00 00 	cs nopw 0x0(%rax,%rax,1)
    39ad:	00 00 00 

00000000000039b0 <deregister_tm_clones>:
    39b0:	48 8d 3d 61 d6 00 00 	lea    0xd661(%rip),%rdi        # 11018 <__TMC_END__>
    39b7:	48 8d 05 5a d6 00 00 	lea    0xd65a(%rip),%rax        # 11018 <__TMC_END__>
    39be:	48 39 f8             	cmp    %rdi,%rax
    39c1:	74 15                	je     39d8 <deregister_tm_clones+0x28>
    39c3:	48 8b 05 1e d6 00 00 	mov    0xd61e(%rip),%rax        # 10fe8 <_ITM_deregisterTMCloneTable@Base>
    39ca:	48 85 c0             	test   %rax,%rax
    39cd:	74 09                	je     39d8 <deregister_tm_clones+0x28>
    39cf:	ff e0                	jmp    *%rax
    39d1:	0f 1f 80 00 00 00 00 	nopl   0x0(%rax)
    39d8:	c3                   	ret    
    39d9:	0f 1f 80 00 00 00 00 	nopl   0x0(%rax)

00000000000039e0 <register_tm_clones>:
    39e0:	48 8d 3d 31 d6 00 00 	lea    0xd631(%rip),%rdi        # 11018 <__TMC_END__>
    39e7:	48 8d 35 2a d6 00 00 	lea    0xd62a(%rip),%rsi        # 11018 <__TMC_END__>
    39ee:	48 29 fe             	sub    %rdi,%rsi
    39f1:	48 89 f0             	mov    %rsi,%rax
    39f4:	48 c1 ee 3f          	shr    $0x3f,%rsi
    39f8:	48 c1 f8 03          	sar    $0x3,%rax
    39fc:	48 01 c6             	add    %rax,%rsi
    39ff:	48 d1 fe             	sar    %rsi
    3a02:	74 14                	je     3a18 <register_tm_clones+0x38>
    3a04:	48 8b 05 ed d5 00 00 	mov    0xd5ed(%rip),%rax        # 10ff8 <_ITM_registerTMCloneTable@Base>
    3a0b:	48 85 c0             	test   %rax,%rax
    3a0e:	74 08                	je     3a18 <register_tm_clones+0x38>
    3a10:	ff e0                	jmp    *%rax
    3a12:	66 0f 1f 44 00 00    	nopw   0x0(%rax,%rax,1)
    3a18:	c3                   	ret    
    3a19:	0f 1f 80 00 00 00 00 	nopl   0x0(%rax)

0000000000003a20 <__do_global_dtors_aux>:
    3a20:	f3 0f 1e fa          	endbr64 
    3a24:	80 3d 45 d8 00 00 00 	cmpb   $0x0,0xd845(%rip)        # 11270 <completed.0>
    3a2b:	75 2b                	jne    3a58 <__do_global_dtors_aux+0x38>
    3a2d:	55                   	push   %rbp
    3a2e:	48 83 3d 9a d5 00 00 	cmpq   $0x0,0xd59a(%rip)        # 10fd0 <__cxa_finalize@GLIBC_2.2.5>
    3a35:	00 
    3a36:	48 89 e5             	mov    %rsp,%rbp
    3a39:	74 0c                	je     3a47 <__do_global_dtors_aux+0x27>
    3a3b:	48 8b 3d c6 d5 00 00 	mov    0xd5c6(%rip),%rdi        # 11008 <__dso_handle>
    3a42:	e8 89 fa ff ff       	call   34d0 <_init+0x4d0>
    3a47:	e8 64 ff ff ff       	call   39b0 <deregister_tm_clones>
    3a4c:	c6 05 1d d8 00 00 01 	movb   $0x1,0xd81d(%rip)        # 11270 <completed.0>
    3a53:	5d                   	pop    %rbp
    3a54:	c3                   	ret    
    3a55:	0f 1f 00             	nopl   (%rax)
    3a58:	c3                   	ret    
    3a59:	0f 1f 80 00 00 00 00 	nopl   0x0(%rax)

0000000000003a60 <frame_dummy>:
    3a60:	f3 0f 1e fa          	endbr64 
    3a64:	e9 77 ff ff ff       	jmp    39e0 <register_tm_clones>
    3a69:	90                   	nop

0000000000003a6a <_ZL18__gthread_active_pv>:
    3a6a:	55                   	push   %rbp
    3a6b:	48 89 e5             	mov    %rsp,%rbp
    3a6e:	b8 01 00 00 00       	mov    $0x1,%eax
    3a73:	5d                   	pop    %rbp
    3a74:	c3                   	ret    

0000000000003a75 <_Z15escaparComillasRKNSt7__cxx1112basic_stringIcSt11char_traitsIcESaIcEEE>:
    3a75:	f3 0f 1e fa          	endbr64 
    3a79:	55                   	push   %rbp
    3a7a:	48 89 e5             	mov    %rsp,%rbp
    3a7d:	53                   	push   %rbx
    3a7e:	48 83 ec 48          	sub    $0x48,%rsp
    3a82:	48 89 7d b8          	mov    %rdi,-0x48(%rbp)
    3a86:	48 89 75 b0          	mov    %rsi,-0x50(%rbp)
    3a8a:	64 48 8b 04 25 28 00 	mov    %fs:0x28,%rax
    3a91:	00 00 
    3a93:	48 89 45 e8          	mov    %rax,-0x18(%rbp)
    3a97:	31 c0                	xor    %eax,%eax
    3a99:	48 8b 45 b8          	mov    -0x48(%rbp),%rax
    3a9d:	48 89 c7             	mov    %rax,%rdi
    3aa0:	e8 6b fd ff ff       	call   3810 <_init+0x810>
    3aa5:	48 8b 45 b0          	mov    -0x50(%rbp),%rax
    3aa9:	48 89 45 e0          	mov    %rax,-0x20(%rbp)
    3aad:	48 8b 45 e0          	mov    -0x20(%rbp),%rax
    3ab1:	48 89 c7             	mov    %rax,%rdi
    3ab4:	e8 f7 fb ff ff       	call   36b0 <_init+0x6b0>
    3ab9:	48 89 45 d0          	mov    %rax,-0x30(%rbp)
    3abd:	48 8b 45 e0          	mov    -0x20(%rbp),%rax
    3ac1:	48 89 c7             	mov    %rax,%rdi
    3ac4:	e8 67 fe ff ff       	call   3930 <_init+0x930>
    3ac9:	48 89 45 d8          	mov    %rax,-0x28(%rbp)
    3acd:	eb 4e                	jmp    3b1d <_Z15escaparComillasRKNSt7__cxx1112basic_stringIcSt11char_traitsIcESaIcEEE+0xa8>
    3acf:	48 8d 45 d0          	lea    -0x30(%rbp),%rax
    3ad3:	48 89 c7             	mov    %rax,%rdi
    3ad6:	e8 65 22 00 00       	call   5d40 <_ZNK9__gnu_cxx17__normal_iteratorIPKcNSt7__cxx1112basic_stringIcSt11char_traitsIcESaIcEEEEdeEv>
    3adb:	0f b6 00             	movzbl (%rax),%eax
    3ade:	88 45 cf             	mov    %al,-0x31(%rbp)
    3ae1:	80 7d cf 22          	cmpb   $0x22,-0x31(%rbp)
    3ae5:	75 18                	jne    3aff <_Z15escaparComillasRKNSt7__cxx1112basic_stringIcSt11char_traitsIcESaIcEEE+0x8a>
    3ae7:	48 8b 45 b8          	mov    -0x48(%rbp),%rax
    3aeb:	48 8d 15 16 85 00 00 	lea    0x8516(%rip),%rdx        # c008 <_ZSt19piecewise_construct+0x4>
    3af2:	48 89 d6             	mov    %rdx,%rsi
    3af5:	48 89 c7             	mov    %rax,%rdi
    3af8:	e8 c3 fb ff ff       	call   36c0 <_init+0x6c0>
    3afd:	eb 12                	jmp    3b11 <_Z15escaparComillasRKNSt7__cxx1112basic_stringIcSt11char_traitsIcESaIcEEE+0x9c>
    3aff:	0f be 55 cf          	movsbl -0x31(%rbp),%edx
    3b03:	48 8b 45 b8          	mov    -0x48(%rbp),%rax
    3b07:	89 d6                	mov    %edx,%esi
    3b09:	48 89 c7             	mov    %rax,%rdi
    3b0c:	e8 ef fa ff ff       	call   3600 <_init+0x600>
    3b11:	48 8d 45 d0          	lea    -0x30(%rbp),%rax
    3b15:	48 89 c7             	mov    %rax,%rdi
    3b18:	e8 ff 21 00 00       	call   5d1c <_ZN9__gnu_cxx17__normal_iteratorIPKcNSt7__cxx1112basic_stringIcSt11char_traitsIcESaIcEEEEppEv>
    3b1d:	48 8d 55 d8          	lea    -0x28(%rbp),%rdx
    3b21:	48 8d 45 d0          	lea    -0x30(%rbp),%rax
    3b25:	48 89 d6             	mov    %rdx,%rsi
    3b28:	48 89 c7             	mov    %rax,%rdi
    3b2b:	e8 ac 21 00 00       	call   5cdc <_ZN9__gnu_cxxneIPKcNSt7__cxx1112basic_stringIcSt11char_traitsIcESaIcEEEEEbRKNS_17__normal_iteratorIT_T0_EESE_>
    3b30:	84 c0                	test   %al,%al
    3b32:	75 9b                	jne    3acf <_Z15escaparComillasRKNSt7__cxx1112basic_stringIcSt11char_traitsIcESaIcEEE+0x5a>
    3b34:	eb 32                	jmp    3b68 <_Z15escaparComillasRKNSt7__cxx1112basic_stringIcSt11char_traitsIcESaIcEEE+0xf3>
    3b36:	f3 0f 1e fa          	endbr64 
    3b3a:	48 89 c3             	mov    %rax,%rbx
    3b3d:	48 8b 45 b8          	mov    -0x48(%rbp),%rax
    3b41:	48 89 c7             	mov    %rax,%rdi
    3b44:	e8 a7 fa ff ff       	call   35f0 <_init+0x5f0>
    3b49:	48 89 d8             	mov    %rbx,%rax
    3b4c:	48 8b 55 e8          	mov    -0x18(%rbp),%rdx
    3b50:	64 48 2b 14 25 28 00 	sub    %fs:0x28,%rdx
    3b57:	00 00 
    3b59:	74 05                	je     3b60 <_Z15escaparComillasRKNSt7__cxx1112basic_stringIcSt11char_traitsIcESaIcEEE+0xeb>
    3b5b:	e8 20 fc ff ff       	call   3780 <_init+0x780>
    3b60:	48 89 c7             	mov    %rax,%rdi
    3b63:	e8 a8 fd ff ff       	call   3910 <_init+0x910>
    3b68:	48 8b 45 e8          	mov    -0x18(%rbp),%rax
    3b6c:	64 48 2b 04 25 28 00 	sub    %fs:0x28,%rax
    3b73:	00 00 
    3b75:	74 05                	je     3b7c <_Z15escaparComillasRKNSt7__cxx1112basic_stringIcSt11char_traitsIcESaIcEEE+0x107>
    3b77:	e8 04 fc ff ff       	call   3780 <_init+0x780>
    3b7c:	48 8b 45 b8          	mov    -0x48(%rbp),%rax
    3b80:	48 8b 5d f8          	mov    -0x8(%rbp),%rbx
    3b84:	c9                   	leave  
    3b85:	c3                   	ret    

0000000000003b86 <_Z19parsearJSONdePythonRKNSt7__cxx1112basic_stringIcSt11char_traitsIcESaIcEEE>:
    3b86:	f3 0f 1e fa          	endbr64 
    3b8a:	55                   	push   %rbp
    3b8b:	48 89 e5             	mov    %rsp,%rbp
    3b8e:	53                   	push   %rbx
    3b8f:	48 81 ec f8 00 00 00 	sub    $0xf8,%rsp
    3b96:	48 89 bd 08 ff ff ff 	mov    %rdi,-0xf8(%rbp)
    3b9d:	48 89 b5 00 ff ff ff 	mov    %rsi,-0x100(%rbp)
    3ba4:	64 48 8b 04 25 28 00 	mov    %fs:0x28,%rax
    3bab:	00 00 
    3bad:	48 89 45 e8          	mov    %rax,-0x18(%rbp)
    3bb1:	31 c0                	xor    %eax,%eax
    3bb3:	48 8b 85 08 ff ff ff 	mov    -0xf8(%rbp),%rax
    3bba:	48 89 c7             	mov    %rax,%rdi
    3bbd:	e8 00 1f 00 00       	call   5ac2 <_ZNSt6vectorISt3mapINSt7__cxx1112basic_stringIcSt11char_traitsIcESaIcEEES6_St4lessIS6_ESaISt4pairIKS6_S6_EEESaISD_EEC1Ev>
    3bc2:	48 c7 85 18 ff ff ff 	movq   $0x0,-0xe8(%rbp)
    3bc9:	00 00 00 00 
    3bcd:	e9 7e 02 00 00       	jmp    3e50 <_Z19parsearJSONdePythonRKNSt7__cxx1112basic_stringIcSt11char_traitsIcESaIcEEE+0x2ca>
    3bd2:	48 8b 95 18 ff ff ff 	mov    -0xe8(%rbp),%rdx
    3bd9:	48 8b 85 00 ff ff ff 	mov    -0x100(%rbp),%rax
    3be0:	be 7d 00 00 00       	mov    $0x7d,%esi
    3be5:	48 89 c7             	mov    %rax,%rdi
    3be8:	e8 f3 fb ff ff       	call   37e0 <_init+0x7e0>
    3bed:	48 89 85 28 ff ff ff 	mov    %rax,-0xd8(%rbp)
    3bf4:	48 83 bd 28 ff ff ff 	cmpq   $0xffffffffffffffff,-0xd8(%rbp)
    3bfb:	ff 
    3bfc:	75 06                	jne    3c04 <_Z19parsearJSONdePythonRKNSt7__cxx1112basic_stringIcSt11char_traitsIcESaIcEEE+0x7e>
    3bfe:	90                   	nop
    3bff:	e9 09 03 00 00       	jmp    3f0d <_Z19parsearJSONdePythonRKNSt7__cxx1112basic_stringIcSt11char_traitsIcESaIcEEE+0x387>
    3c04:	48 8b 85 28 ff ff ff 	mov    -0xd8(%rbp),%rax
    3c0b:	48 2b 85 18 ff ff ff 	sub    -0xe8(%rbp),%rax
    3c12:	48 8d 48 01          	lea    0x1(%rax),%rcx
    3c16:	48 8d 45 80          	lea    -0x80(%rbp),%rax
    3c1a:	48 8b 95 18 ff ff ff 	mov    -0xe8(%rbp),%rdx
    3c21:	48 8b b5 00 ff ff ff 	mov    -0x100(%rbp),%rsi
    3c28:	48 89 c7             	mov    %rax,%rdi
    3c2b:	e8 e0 fa ff ff       	call   3710 <_init+0x710>
    3c30:	48 8d 85 50 ff ff ff 	lea    -0xb0(%rbp),%rax
    3c37:	48 89 c7             	mov    %rax,%rdi
    3c3a:	e8 eb 1e 00 00       	call   5b2a <_ZNSt3mapINSt7__cxx1112basic_stringIcSt11char_traitsIcESaIcEEES5_St4lessIS5_ESaISt4pairIKS5_S5_EEEC1Ev>
    3c3f:	48 c7 85 20 ff ff ff 	movq   $0x0,-0xe0(%rbp)
    3c46:	00 00 00 00 
    3c4a:	e9 81 01 00 00       	jmp    3dd0 <_Z19parsearJSONdePythonRKNSt7__cxx1112basic_stringIcSt11char_traitsIcESaIcEEE+0x24a>
    3c4f:	48 8b 85 20 ff ff ff 	mov    -0xe0(%rbp),%rax
    3c56:	48 8d 50 01          	lea    0x1(%rax),%rdx
    3c5a:	48 8d 45 80          	lea    -0x80(%rbp),%rax
    3c5e:	48 8d 0d a6 83 00 00 	lea    0x83a6(%rip),%rcx        # c00b <_ZSt19piecewise_construct+0x7>
    3c65:	48 89 ce             	mov    %rcx,%rsi
    3c68:	48 89 c7             	mov    %rax,%rdi
    3c6b:	e8 f0 fc ff ff       	call   3960 <_init+0x960>
    3c70:	48 89 85 30 ff ff ff 	mov    %rax,-0xd0(%rbp)
    3c77:	48 83 bd 30 ff ff ff 	cmpq   $0xffffffffffffffff,-0xd0(%rbp)
    3c7e:	ff 
    3c7f:	0f 84 84 01 00 00    	je     3e09 <_Z19parsearJSONdePythonRKNSt7__cxx1112basic_stringIcSt11char_traitsIcESaIcEEE+0x283>
    3c85:	48 8b 85 30 ff ff ff 	mov    -0xd0(%rbp),%rax
    3c8c:	48 2b 85 20 ff ff ff 	sub    -0xe0(%rbp),%rax
    3c93:	48 8d 48 ff          	lea    -0x1(%rax),%rcx
    3c97:	48 8b 85 20 ff ff ff 	mov    -0xe0(%rbp),%rax
    3c9e:	48 8d 50 01          	lea    0x1(%rax),%rdx
    3ca2:	48 8d 45 a0          	lea    -0x60(%rbp),%rax
    3ca6:	48 8d 75 80          	lea    -0x80(%rbp),%rsi
    3caa:	48 89 c7             	mov    %rax,%rdi
    3cad:	e8 5e fa ff ff       	call   3710 <_init+0x710>
    3cb2:	48 8b 95 30 ff ff ff 	mov    -0xd0(%rbp),%rdx
    3cb9:	48 8d 45 80          	lea    -0x80(%rbp),%rax
    3cbd:	48 8d 0d 49 83 00 00 	lea    0x8349(%rip),%rcx        # c00d <_ZSt19piecewise_construct+0x9>
    3cc4:	48 89 ce             	mov    %rcx,%rsi
    3cc7:	48 89 c7             	mov    %rax,%rdi
    3cca:	e8 91 fc ff ff       	call   3960 <_init+0x960>
    3ccf:	48 89 85 38 ff ff ff 	mov    %rax,-0xc8(%rbp)
    3cd6:	48 8b 95 38 ff ff ff 	mov    -0xc8(%rbp),%rdx
    3cdd:	48 8d 45 80          	lea    -0x80(%rbp),%rax
    3ce1:	48 8d 0d 23 83 00 00 	lea    0x8323(%rip),%rcx        # c00b <_ZSt19piecewise_construct+0x7>
    3ce8:	48 89 ce             	mov    %rcx,%rsi
    3ceb:	48 89 c7             	mov    %rax,%rdi
    3cee:	e8 6d fc ff ff       	call   3960 <_init+0x960>
    3cf3:	48 89 85 40 ff ff ff 	mov    %rax,-0xc0(%rbp)
    3cfa:	48 8b 85 40 ff ff ff 	mov    -0xc0(%rbp),%rax
    3d01:	48 8d 50 01          	lea    0x1(%rax),%rdx
    3d05:	48 8d 45 80          	lea    -0x80(%rbp),%rax
    3d09:	48 8d 0d fb 82 00 00 	lea    0x82fb(%rip),%rcx        # c00b <_ZSt19piecewise_construct+0x7>
    3d10:	48 89 ce             	mov    %rcx,%rsi
    3d13:	48 89 c7             	mov    %rax,%rdi
    3d16:	e8 45 fc ff ff       	call   3960 <_init+0x960>
    3d1b:	48 89 85 48 ff ff ff 	mov    %rax,-0xb8(%rbp)
    3d22:	48 83 bd 40 ff ff ff 	cmpq   $0xffffffffffffffff,-0xc0(%rbp)
    3d29:	ff 
    3d2a:	75 0a                	jne    3d36 <_Z19parsearJSONdePythonRKNSt7__cxx1112basic_stringIcSt11char_traitsIcESaIcEEE+0x1b0>
    3d2c:	bb 00 00 00 00       	mov    $0x0,%ebx
    3d31:	e9 89 00 00 00       	jmp    3dbf <_Z19parsearJSONdePythonRKNSt7__cxx1112basic_stringIcSt11char_traitsIcESaIcEEE+0x239>
    3d36:	48 83 bd 48 ff ff ff 	cmpq   $0xffffffffffffffff,-0xb8(%rbp)
    3d3d:	ff 
    3d3e:	75 07                	jne    3d47 <_Z19parsearJSONdePythonRKNSt7__cxx1112basic_stringIcSt11char_traitsIcESaIcEEE+0x1c1>
    3d40:	bb 00 00 00 00       	mov    $0x0,%ebx
    3d45:	eb 78                	jmp    3dbf <_Z19parsearJSONdePythonRKNSt7__cxx1112basic_stringIcSt11char_traitsIcESaIcEEE+0x239>
    3d47:	48 8b 85 48 ff ff ff 	mov    -0xb8(%rbp),%rax
    3d4e:	48 2b 85 40 ff ff ff 	sub    -0xc0(%rbp),%rax
    3d55:	48 8d 48 ff          	lea    -0x1(%rax),%rcx
    3d59:	48 8b 85 40 ff ff ff 	mov    -0xc0(%rbp),%rax
    3d60:	48 8d 50 01          	lea    0x1(%rax),%rdx
    3d64:	48 8d 45 c0          	lea    -0x40(%rbp),%rax
    3d68:	48 8d 75 80          	lea    -0x80(%rbp),%rsi
    3d6c:	48 89 c7             	mov    %rax,%rdi
    3d6f:	e8 9c f9 ff ff       	call   3710 <_init+0x710>
    3d74:	48 8d 55 a0          	lea    -0x60(%rbp),%rdx
    3d78:	48 8d 85 50 ff ff ff 	lea    -0xb0(%rbp),%rax
    3d7f:	48 89 d6             	mov    %rdx,%rsi
    3d82:	48 89 c7             	mov    %rax,%rdi
    3d85:	e8 34 21 00 00       	call   5ebe <_ZNSt3mapINSt7__cxx1112basic_stringIcSt11char_traitsIcESaIcEEES5_St4lessIS5_ESaISt4pairIKS5_S5_EEEixERS9_>
    3d8a:	48 89 c2             	mov    %rax,%rdx
    3d8d:	48 8d 45 c0          	lea    -0x40(%rbp),%rax
    3d91:	48 89 c6             	mov    %rax,%rsi
    3d94:	48 89 d7             	mov    %rdx,%rdi
    3d97:	e8 54 f7 ff ff       	call   34f0 <_init+0x4f0>
    3d9c:	48 8b 85 48 ff ff ff 	mov    -0xb8(%rbp),%rax
    3da3:	48 83 c0 01          	add    $0x1,%rax
    3da7:	48 89 85 20 ff ff ff 	mov    %rax,-0xe0(%rbp)
    3dae:	48 8d 45 c0          	lea    -0x40(%rbp),%rax
    3db2:	48 89 c7             	mov    %rax,%rdi
    3db5:	e8 36 f8 ff ff       	call   35f0 <_init+0x5f0>
    3dba:	bb 01 00 00 00       	mov    $0x1,%ebx
    3dbf:	48 8d 45 a0          	lea    -0x60(%rbp),%rax
    3dc3:	48 89 c7             	mov    %rax,%rdi
    3dc6:	e8 25 f8 ff ff       	call   35f0 <_init+0x5f0>
    3dcb:	83 fb 01             	cmp    $0x1,%ebx
    3dce:	75 39                	jne    3e09 <_Z19parsearJSONdePythonRKNSt7__cxx1112basic_stringIcSt11char_traitsIcESaIcEEE+0x283>
    3dd0:	48 8b 95 20 ff ff ff 	mov    -0xe0(%rbp),%rdx
    3dd7:	48 8d 45 80          	lea    -0x80(%rbp),%rax
    3ddb:	48 8d 0d 29 82 00 00 	lea    0x8229(%rip),%rcx        # c00b <_ZSt19piecewise_construct+0x7>
    3de2:	48 89 ce             	mov    %rcx,%rsi
    3de5:	48 89 c7             	mov    %rax,%rdi
    3de8:	e8 73 fb ff ff       	call   3960 <_init+0x960>
    3ded:	48 89 85 20 ff ff ff 	mov    %rax,-0xe0(%rbp)
    3df4:	48 83 bd 20 ff ff ff 	cmpq   $0xffffffffffffffff,-0xe0(%rbp)
    3dfb:	ff 
    3dfc:	0f 95 c0             	setne  %al
    3dff:	84 c0                	test   %al,%al
    3e01:	0f 85 48 fe ff ff    	jne    3c4f <_Z19parsearJSONdePythonRKNSt7__cxx1112basic_stringIcSt11char_traitsIcESaIcEEE+0xc9>
    3e07:	eb 01                	jmp    3e0a <_Z19parsearJSONdePythonRKNSt7__cxx1112basic_stringIcSt11char_traitsIcESaIcEEE+0x284>
    3e09:	90                   	nop
    3e0a:	48 8d 95 50 ff ff ff 	lea    -0xb0(%rbp),%rdx
    3e11:	48 8b 85 08 ff ff ff 	mov    -0xf8(%rbp),%rax
    3e18:	48 89 d6             	mov    %rdx,%rsi
    3e1b:	48 89 c7             	mov    %rax,%rdi
    3e1e:	e8 bb 21 00 00       	call   5fde <_ZNSt6vectorISt3mapINSt7__cxx1112basic_stringIcSt11char_traitsIcESaIcEEES6_St4lessIS6_ESaISt4pairIKS6_S6_EEESaISD_EE9push_backERKSD_>
    3e23:	48 8b 85 28 ff ff ff 	mov    -0xd8(%rbp),%rax
    3e2a:	48 83 c0 01          	add    $0x1,%rax
    3e2e:	48 89 85 18 ff ff ff 	mov    %rax,-0xe8(%rbp)
    3e35:	48 8d 85 50 ff ff ff 	lea    -0xb0(%rbp),%rax
    3e3c:	48 89 c7             	mov    %rax,%rdi
    3e3f:	e8 06 1d 00 00       	call   5b4a <_ZNSt3mapINSt7__cxx1112basic_stringIcSt11char_traitsIcESaIcEEES5_St4lessIS5_ESaISt4pairIKS5_S5_EEED1Ev>
    3e44:	48 8d 45 80          	lea    -0x80(%rbp),%rax
    3e48:	48 89 c7             	mov    %rax,%rdi
    3e4b:	e8 a0 f7 ff ff       	call   35f0 <_init+0x5f0>
    3e50:	48 8b 95 18 ff ff ff 	mov    -0xe8(%rbp),%rdx
    3e57:	48 8b 85 00 ff ff ff 	mov    -0x100(%rbp),%rax
    3e5e:	be 7b 00 00 00       	mov    $0x7b,%esi
    3e63:	48 89 c7             	mov    %rax,%rdi
    3e66:	e8 75 f9 ff ff       	call   37e0 <_init+0x7e0>
    3e6b:	48 89 85 18 ff ff ff 	mov    %rax,-0xe8(%rbp)
    3e72:	48 83 bd 18 ff ff ff 	cmpq   $0xffffffffffffffff,-0xe8(%rbp)
    3e79:	ff 
    3e7a:	0f 95 c0             	setne  %al
    3e7d:	84 c0                	test   %al,%al
    3e7f:	0f 85 4d fd ff ff    	jne    3bd2 <_Z19parsearJSONdePythonRKNSt7__cxx1112basic_stringIcSt11char_traitsIcESaIcEEE+0x4c>
    3e85:	e9 83 00 00 00       	jmp    3f0d <_Z19parsearJSONdePythonRKNSt7__cxx1112basic_stringIcSt11char_traitsIcESaIcEEE+0x387>
    3e8a:	f3 0f 1e fa          	endbr64 
    3e8e:	48 89 c3             	mov    %rax,%rbx
    3e91:	48 8d 45 c0          	lea    -0x40(%rbp),%rax
    3e95:	48 89 c7             	mov    %rax,%rdi
    3e98:	e8 53 f7 ff ff       	call   35f0 <_init+0x5f0>
    3e9d:	eb 07                	jmp    3ea6 <_Z19parsearJSONdePythonRKNSt7__cxx1112basic_stringIcSt11char_traitsIcESaIcEEE+0x320>
    3e9f:	f3 0f 1e fa          	endbr64 
    3ea3:	48 89 c3             	mov    %rax,%rbx
    3ea6:	48 8d 45 a0          	lea    -0x60(%rbp),%rax
    3eaa:	48 89 c7             	mov    %rax,%rdi
    3ead:	e8 3e f7 ff ff       	call   35f0 <_init+0x5f0>
    3eb2:	eb 07                	jmp    3ebb <_Z19parsearJSONdePythonRKNSt7__cxx1112basic_stringIcSt11char_traitsIcESaIcEEE+0x335>
    3eb4:	f3 0f 1e fa          	endbr64 
    3eb8:	48 89 c3             	mov    %rax,%rbx
    3ebb:	48 8d 85 50 ff ff ff 	lea    -0xb0(%rbp),%rax
    3ec2:	48 89 c7             	mov    %rax,%rdi
    3ec5:	e8 80 1c 00 00       	call   5b4a <_ZNSt3mapINSt7__cxx1112basic_stringIcSt11char_traitsIcESaIcEEES5_St4lessIS5_ESaISt4pairIKS5_S5_EEED1Ev>
    3eca:	48 8d 45 80          	lea    -0x80(%rbp),%rax
    3ece:	48 89 c7             	mov    %rax,%rdi
    3ed1:	e8 1a f7 ff ff       	call   35f0 <_init+0x5f0>
    3ed6:	eb 07                	jmp    3edf <_Z19parsearJSONdePythonRKNSt7__cxx1112basic_stringIcSt11char_traitsIcESaIcEEE+0x359>
    3ed8:	f3 0f 1e fa          	endbr64 
    3edc:	48 89 c3             	mov    %rax,%rbx
    3edf:	48 8b 85 08 ff ff ff 	mov    -0xf8(%rbp),%rax
    3ee6:	48 89 c7             	mov    %rax,%rdi
    3ee9:	e8 f6 1e 00 00       	call   5de4 <_ZNSt6vectorISt3mapINSt7__cxx1112basic_stringIcSt11char_traitsIcESaIcEEES6_St4lessIS6_ESaISt4pairIKS6_S6_EEESaISD_EED1Ev>
    3eee:	48 89 d8             	mov    %rbx,%rax
    3ef1:	48 8b 55 e8          	mov    -0x18(%rbp),%rdx
    3ef5:	64 48 2b 14 25 28 00 	sub    %fs:0x28,%rdx
    3efc:	00 00 
    3efe:	74 05                	je     3f05 <_Z19parsearJSONdePythonRKNSt7__cxx1112basic_stringIcSt11char_traitsIcESaIcEEE+0x37f>
    3f00:	e8 7b f8 ff ff       	call   3780 <_init+0x780>
    3f05:	48 89 c7             	mov    %rax,%rdi
    3f08:	e8 03 fa ff ff       	call   3910 <_init+0x910>
    3f0d:	48 8b 45 e8          	mov    -0x18(%rbp),%rax
    3f11:	64 48 2b 04 25 28 00 	sub    %fs:0x28,%rax
    3f18:	00 00 
    3f1a:	74 05                	je     3f21 <_Z19parsearJSONdePythonRKNSt7__cxx1112basic_stringIcSt11char_traitsIcESaIcEEE+0x39b>
    3f1c:	e8 5f f8 ff ff       	call   3780 <_init+0x780>
    3f21:	48 8b 85 08 ff ff ff 	mov    -0xf8(%rbp),%rax
    3f28:	48 8b 5d f8          	mov    -0x8(%rbp),%rbx
    3f2c:	c9                   	leave  
    3f2d:	c3                   	ret    

0000000000003f2e <_ZZ19generarProductoJSONRKSt3mapINSt7__cxx1112basic_stringIcSt11char_traitsIcESaIcEEES5_St4lessIS5_ESaISt4pairIKS5_S5_EEEENKUlRKSt6vectorIS5_SaIS5_EEE_clESJ_>:
    3f2e:	55                   	push   %rbp
    3f2f:	48 89 e5             	mov    %rsp,%rbp
    3f32:	53                   	push   %rbx
    3f33:	48 83 ec 68          	sub    $0x68,%rsp
    3f37:	48 89 7d a8          	mov    %rdi,-0x58(%rbp)
    3f3b:	48 89 75 a0          	mov    %rsi,-0x60(%rbp)
    3f3f:	48 89 55 98          	mov    %rdx,-0x68(%rbp)
    3f43:	64 48 8b 04 25 28 00 	mov    %fs:0x28,%rax
    3f4a:	00 00 
    3f4c:	48 89 45 e8          	mov    %rax,-0x18(%rbp)
    3f50:	31 c0                	xor    %eax,%eax
    3f52:	48 8b 45 98          	mov    -0x68(%rbp),%rax
    3f56:	48 89 45 d0          	mov    %rax,-0x30(%rbp)
    3f5a:	48 8b 45 d0          	mov    -0x30(%rbp),%rax
    3f5e:	48 89 c7             	mov    %rax,%rdi
    3f61:	e8 e6 21 00 00       	call   614c <_ZNKSt6vectorINSt7__cxx1112basic_stringIcSt11char_traitsIcESaIcEEESaIS5_EE5beginEv>
    3f66:	48 89 45 b0          	mov    %rax,-0x50(%rbp)
    3f6a:	48 8b 45 d0          	mov    -0x30(%rbp),%rax
    3f6e:	48 89 c7             	mov    %rax,%rdi
    3f71:	e8 22 22 00 00       	call   6198 <_ZNKSt6vectorINSt7__cxx1112basic_stringIcSt11char_traitsIcESaIcEEESaIS5_EE3endEv>
    3f76:	48 89 45 b8          	mov    %rax,-0x48(%rbp)
    3f7a:	e9 84 00 00 00       	jmp    4003 <_ZZ19generarProductoJSONRKSt3mapINSt7__cxx1112basic_stringIcSt11char_traitsIcESaIcEEES5_St4lessIS5_ESaISt4pairIKS5_S5_EEEENKUlRKSt6vectorIS5_SaIS5_EEE_clESJ_+0xd5>
    3f7f:	48 8d 45 b0          	lea    -0x50(%rbp),%rax
    3f83:	48 89 c7             	mov    %rax,%rdi
    3f86:	e8 c1 22 00 00       	call   624c <_ZNK9__gnu_cxx17__normal_iteratorIPKNSt7__cxx1112basic_stringIcSt11char_traitsIcESaIcEEESt6vectorIS6_SaIS6_EEEdeEv>
    3f8b:	48 89 45 d8          	mov    %rax,-0x28(%rbp)
    3f8f:	48 8b 45 a0          	mov    -0x60(%rbp),%rax
    3f93:	48 8b 00             	mov    (%rax),%rax
    3f96:	48 8b 55 d8          	mov    -0x28(%rbp),%rdx
    3f9a:	48 89 d6             	mov    %rdx,%rsi
    3f9d:	48 89 c7             	mov    %rax,%rdi
    3fa0:	e8 bd 22 00 00       	call   6262 <_ZNKSt3mapINSt7__cxx1112basic_stringIcSt11char_traitsIcESaIcEEES5_St4lessIS5_ESaISt4pairIKS5_S5_EEE4findERS9_>
    3fa5:	48 89 45 c0          	mov    %rax,-0x40(%rbp)
    3fa9:	48 8b 45 a0          	mov    -0x60(%rbp),%rax
    3fad:	48 8b 00             	mov    (%rax),%rax
    3fb0:	48 89 c7             	mov    %rax,%rdi
    3fb3:	e8 d4 22 00 00       	call   628c <_ZNKSt3mapINSt7__cxx1112basic_stringIcSt11char_traitsIcESaIcEEES5_St4lessIS5_ESaISt4pairIKS5_S5_EEE3endEv>
    3fb8:	48 89 45 c8          	mov    %rax,-0x38(%rbp)
    3fbc:	48 8d 55 c8          	lea    -0x38(%rbp),%rdx
    3fc0:	48 8d 45 c0          	lea    -0x40(%rbp),%rax
    3fc4:	48 89 d6             	mov    %rdx,%rsi
    3fc7:	48 89 c7             	mov    %rax,%rdi
    3fca:	e8 db 22 00 00       	call   62aa <_ZStneRKSt23_Rb_tree_const_iteratorISt4pairIKNSt7__cxx1112basic_stringIcSt11char_traitsIcESaIcEEES6_EESB_>
    3fcf:	84 c0                	test   %al,%al
    3fd1:	74 24                	je     3ff7 <_ZZ19generarProductoJSONRKSt3mapINSt7__cxx1112basic_stringIcSt11char_traitsIcESaIcEEES5_St4lessIS5_ESaISt4pairIKS5_S5_EEEENKUlRKSt6vectorIS5_SaIS5_EEE_clESJ_+0xc9>
    3fd3:	48 8d 45 c0          	lea    -0x40(%rbp),%rax
    3fd7:	48 89 c7             	mov    %rax,%rdi
    3fda:	e8 f1 22 00 00       	call   62d0 <_ZNKSt23_Rb_tree_const_iteratorISt4pairIKNSt7__cxx1112basic_stringIcSt11char_traitsIcESaIcEEES6_EEptEv>
    3fdf:	48 8d 50 20          	lea    0x20(%rax),%rdx
    3fe3:	48 8b 45 a8          	mov    -0x58(%rbp),%rax
    3fe7:	48 89 d6             	mov    %rdx,%rsi
    3fea:	48 89 c7             	mov    %rax,%rdi
    3fed:	e8 83 fa ff ff       	call   3a75 <_Z15escaparComillasRKNSt7__cxx1112basic_stringIcSt11char_traitsIcESaIcEEE>
    3ff2:	e9 8c 00 00 00       	jmp    4083 <_ZZ19generarProductoJSONRKSt3mapINSt7__cxx1112basic_stringIcSt11char_traitsIcESaIcEEES5_St4lessIS5_ESaISt4pairIKS5_S5_EEEENKUlRKSt6vectorIS5_SaIS5_EEE_clESJ_+0x155>
    3ff7:	48 8d 45 b0          	lea    -0x50(%rbp),%rax
    3ffb:	48 89 c7             	mov    %rax,%rdi
    3ffe:	e8 25 22 00 00       	call   6228 <_ZN9__gnu_cxx17__normal_iteratorIPKNSt7__cxx1112basic_stringIcSt11char_traitsIcESaIcEEESt6vectorIS6_SaIS6_EEEppEv>
    4003:	48 8d 55 b8          	lea    -0x48(%rbp),%rdx
    4007:	48 8d 45 b0          	lea    -0x50(%rbp),%rax
    400b:	48 89 d6             	mov    %rdx,%rsi
    400e:	48 89 c7             	mov    %rax,%rdi
    4011:	e8 d2 21 00 00       	call   61e8 <_ZN9__gnu_cxxneIPKNSt7__cxx1112basic_stringIcSt11char_traitsIcESaIcEEESt6vectorIS6_SaIS6_EEEEbRKNS_17__normal_iteratorIT_T0_EESH_>
    4016:	84 c0                	test   %al,%al
    4018:	0f 85 61 ff ff ff    	jne    3f7f <_ZZ19generarProductoJSONRKSt3mapINSt7__cxx1112basic_stringIcSt11char_traitsIcESaIcEEES5_St4lessIS5_ESaISt4pairIKS5_S5_EEEENKUlRKSt6vectorIS5_SaIS5_EEE_clESJ_+0x51>
    401e:	48 8d 45 c8          	lea    -0x38(%rbp),%rax
    4022:	48 89 45 e0          	mov    %rax,-0x20(%rbp)
    4026:	90                   	nop
    4027:	90                   	nop
    4028:	48 8d 55 c8          	lea    -0x38(%rbp),%rdx
    402c:	48 8b 45 a8          	mov    -0x58(%rbp),%rax
    4030:	48 8d 0d d8 7f 00 00 	lea    0x7fd8(%rip),%rcx        # c00f <_ZSt19piecewise_construct+0xb>
    4037:	48 89 ce             	mov    %rcx,%rsi
    403a:	48 89 c7             	mov    %rax,%rdi
    403d:	e8 b0 22 00 00       	call   62f2 <_ZNSt7__cxx1112basic_stringIcSt11char_traitsIcESaIcEEC1IS3_EEPKcRKS3_>
    4042:	48 8d 45 c8          	lea    -0x38(%rbp),%rax
    4046:	48 89 c7             	mov    %rax,%rdi
    4049:	e8 8a 2c 00 00       	call   6cd8 <_ZNSt15__new_allocatorIcED1Ev>
    404e:	eb 33                	jmp    4083 <_ZZ19generarProductoJSONRKSt3mapINSt7__cxx1112basic_stringIcSt11char_traitsIcESaIcEEES5_St4lessIS5_ESaISt4pairIKS5_S5_EEEENKUlRKSt6vectorIS5_SaIS5_EEE_clESJ_+0x155>
    4050:	f3 0f 1e fa          	endbr64 
    4054:	48 89 c3             	mov    %rax,%rbx
    4057:	48 8d 45 c8          	lea    -0x38(%rbp),%rax
    405b:	48 89 c7             	mov    %rax,%rdi
    405e:	e8 75 2c 00 00       	call   6cd8 <_ZNSt15__new_allocatorIcED1Ev>
    4063:	90                   	nop
    4064:	48 89 d8             	mov    %rbx,%rax
    4067:	48 8b 55 e8          	mov    -0x18(%rbp),%rdx
    406b:	64 48 2b 14 25 28 00 	sub    %fs:0x28,%rdx
    4072:	00 00 
    4074:	74 05                	je     407b <_ZZ19generarProductoJSONRKSt3mapINSt7__cxx1112basic_stringIcSt11char_traitsIcESaIcEEES5_St4lessIS5_ESaISt4pairIKS5_S5_EEEENKUlRKSt6vectorIS5_SaIS5_EEE_clESJ_+0x14d>
    4076:	e8 05 f7 ff ff       	call   3780 <_init+0x780>
    407b:	48 89 c7             	mov    %rax,%rdi
    407e:	e8 8d f8 ff ff       	call   3910 <_init+0x910>
    4083:	48 8b 45 e8          	mov    -0x18(%rbp),%rax
    4087:	64 48 2b 04 25 28 00 	sub    %fs:0x28,%rax
    408e:	00 00 
    4090:	74 05                	je     4097 <_ZZ19generarProductoJSONRKSt3mapINSt7__cxx1112basic_stringIcSt11char_traitsIcESaIcEEES5_St4lessIS5_ESaISt4pairIKS5_S5_EEEENKUlRKSt6vectorIS5_SaIS5_EEE_clESJ_+0x169>
    4092:	e8 e9 f6 ff ff       	call   3780 <_init+0x780>
    4097:	48 8b 45 a8          	mov    -0x58(%rbp),%rax
    409b:	48 8b 5d f8          	mov    -0x8(%rbp),%rbx
    409f:	c9                   	leave  
    40a0:	c3                   	ret    

00000000000040a1 <_Z19generarProductoJSONRKSt3mapINSt7__cxx1112basic_stringIcSt11char_traitsIcESaIcEEES5_St4lessIS5_ESaISt4pairIKS5_S5_EEE>:
    40a1:	f3 0f 1e fa          	endbr64 
    40a5:	55                   	push   %rbp
    40a6:	48 89 e5             	mov    %rsp,%rbp
    40a9:	53                   	push   %rbx
    40aa:	48 81 ec 18 02 00 00 	sub    $0x218,%rsp
    40b1:	48 89 bd e8 fd ff ff 	mov    %rdi,-0x218(%rbp)
    40b8:	48 89 b5 e0 fd ff ff 	mov    %rsi,-0x220(%rbp)
    40bf:	64 48 8b 04 25 28 00 	mov    %fs:0x28,%rax
    40c6:	00 00 
    40c8:	48 89 45 e8          	mov    %rax,-0x18(%rbp)
    40cc:	31 c0                	xor    %eax,%eax
    40ce:	48 8b 85 e0 fd ff ff 	mov    -0x220(%rbp),%rax
    40d5:	48 89 85 f8 fd ff ff 	mov    %rax,-0x208(%rbp)
    40dc:	48 8d 85 70 fe ff ff 	lea    -0x190(%rbp),%rax
    40e3:	48 89 c7             	mov    %rax,%rdi
    40e6:	e8 05 f7 ff ff       	call   37f0 <_init+0x7f0>
    40eb:	48 8d 85 70 fe ff ff 	lea    -0x190(%rbp),%rax
    40f2:	48 8d 15 1a 7f 00 00 	lea    0x7f1a(%rip),%rdx        # c013 <_ZSt19piecewise_construct+0xf>
    40f9:	48 89 d6             	mov    %rdx,%rsi
    40fc:	48 89 c7             	mov    %rax,%rdi
    40ff:	e8 cc f5 ff ff       	call   36d0 <_init+0x6d0>
    4104:	48 8d 85 70 fe ff ff 	lea    -0x190(%rbp),%rax
    410b:	48 8d 15 06 7f 00 00 	lea    0x7f06(%rip),%rdx        # c018 <_ZSt19piecewise_construct+0x14>
    4112:	48 89 d6             	mov    %rdx,%rsi
    4115:	48 89 c7             	mov    %rax,%rdi
    4118:	e8 b3 f5 ff ff       	call   36d0 <_init+0x6d0>
    411d:	48 89 c3             	mov    %rax,%rbx
    4120:	48 8d 05 01 7f 00 00 	lea    0x7f01(%rip),%rax        # c028 <_ZSt19piecewise_construct+0x24>
    4127:	48 89 85 40 fe ff ff 	mov    %rax,-0x1c0(%rbp)
    412e:	48 8d 05 fa 7e 00 00 	lea    0x7efa(%rip),%rax        # c02f <_ZSt19piecewise_construct+0x2b>
    4135:	48 89 85 48 fe ff ff 	mov    %rax,-0x1b8(%rbp)
    413c:	48 8d 85 40 fe ff ff 	lea    -0x1c0(%rbp),%rax
    4143:	48 83 c0 10          	add    $0x10,%rax
    4147:	48 8d 95 f7 fd ff ff 	lea    -0x209(%rbp),%rdx
    414e:	48 89 95 00 fe ff ff 	mov    %rdx,-0x200(%rbp)
    4155:	90                   	nop
    4156:	90                   	nop
    4157:	48 8d 95 f7 fd ff ff 	lea    -0x209(%rbp),%rdx
    415e:	48 8d b5 40 fe ff ff 	lea    -0x1c0(%rbp),%rsi
    4165:	48 8d bd 20 fe ff ff 	lea    -0x1e0(%rbp),%rdi
    416c:	48 89 d1             	mov    %rdx,%rcx
    416f:	48 89 c2             	mov    %rax,%rdx
    4172:	e8 23 22 00 00       	call   639a <_ZNSt6vectorINSt7__cxx1112basic_stringIcSt11char_traitsIcESaIcEEESaIS5_EEC1IPKPKcvEET_SD_RKS6_>
    4177:	48 8d 85 50 fe ff ff 	lea    -0x1b0(%rbp),%rax
    417e:	48 8d 95 20 fe ff ff 	lea    -0x1e0(%rbp),%rdx
    4185:	48 8d 8d f8 fd ff ff 	lea    -0x208(%rbp),%rcx
    418c:	48 89 ce             	mov    %rcx,%rsi
    418f:	48 89 c7             	mov    %rax,%rdi
    4192:	e8 97 fd ff ff       	call   3f2e <_ZZ19generarProductoJSONRKSt3mapINSt7__cxx1112basic_stringIcSt11char_traitsIcESaIcEEES5_St4lessIS5_ESaISt4pairIKS5_S5_EEEENKUlRKSt6vectorIS5_SaIS5_EEE_clESJ_>
    4197:	48 8d 85 50 fe ff ff 	lea    -0x1b0(%rbp),%rax
    419e:	48 89 c6             	mov    %rax,%rsi
    41a1:	48 89 df             	mov    %rbx,%rdi
    41a4:	e8 f7 f4 ff ff       	call   36a0 <_init+0x6a0>
    41a9:	48 89 c2             	mov    %rax,%rdx
    41ac:	48 8d 05 82 7e 00 00 	lea    0x7e82(%rip),%rax        # c035 <_ZSt19piecewise_construct+0x31>
    41b3:	48 89 c6             	mov    %rax,%rsi
    41b6:	48 89 d7             	mov    %rdx,%rdi
    41b9:	e8 12 f5 ff ff       	call   36d0 <_init+0x6d0>
    41be:	48 8d 85 50 fe ff ff 	lea    -0x1b0(%rbp),%rax
    41c5:	48 89 c7             	mov    %rax,%rdi
    41c8:	e8 23 f4 ff ff       	call   35f0 <_init+0x5f0>
    41cd:	48 8d 85 20 fe ff ff 	lea    -0x1e0(%rbp),%rax
    41d4:	48 89 c7             	mov    %rax,%rdi
    41d7:	e8 64 22 00 00       	call   6440 <_ZNSt6vectorINSt7__cxx1112basic_stringIcSt11char_traitsIcESaIcEEESaIS5_EED1Ev>
    41dc:	48 8d 85 f7 fd ff ff 	lea    -0x209(%rbp),%rax
    41e3:	48 89 c7             	mov    %rax,%rdi
    41e6:	e8 31 36 00 00       	call   781c <_ZNSt15__new_allocatorINSt7__cxx1112basic_stringIcSt11char_traitsIcESaIcEEEED1Ev>
    41eb:	90                   	nop
    41ec:	48 8d 85 70 fe ff ff 	lea    -0x190(%rbp),%rax
    41f3:	48 8d 15 3f 7e 00 00 	lea    0x7e3f(%rip),%rdx        # c039 <_ZSt19piecewise_construct+0x35>
    41fa:	48 89 d6             	mov    %rdx,%rsi
    41fd:	48 89 c7             	mov    %rax,%rdi
    4200:	e8 cb f4 ff ff       	call   36d0 <_init+0x6d0>
    4205:	48 89 c3             	mov    %rax,%rbx
    4208:	48 8d 05 3a 7e 00 00 	lea    0x7e3a(%rip),%rax        # c049 <_ZSt19piecewise_construct+0x45>
    420f:	48 89 85 40 fe ff ff 	mov    %rax,-0x1c0(%rbp)
    4216:	48 8d 05 33 7e 00 00 	lea    0x7e33(%rip),%rax        # c050 <_ZSt19piecewise_construct+0x4c>
    421d:	48 89 85 48 fe ff ff 	mov    %rax,-0x1b8(%rbp)
    4224:	48 8d 85 40 fe ff ff 	lea    -0x1c0(%rbp),%rax
    422b:	48 83 c0 10          	add    $0x10,%rax
    422f:	48 8d 95 f7 fd ff ff 	lea    -0x209(%rbp),%rdx
    4236:	48 89 95 08 fe ff ff 	mov    %rdx,-0x1f8(%rbp)
    423d:	90                   	nop
    423e:	90                   	nop
    423f:	48 8d 95 f7 fd ff ff 	lea    -0x209(%rbp),%rdx
    4246:	48 8d b5 40 fe ff ff 	lea    -0x1c0(%rbp),%rsi
    424d:	48 8d bd 20 fe ff ff 	lea    -0x1e0(%rbp),%rdi
    4254:	48 89 d1             	mov    %rdx,%rcx
    4257:	48 89 c2             	mov    %rax,%rdx
    425a:	e8 3b 21 00 00       	call   639a <_ZNSt6vectorINSt7__cxx1112basic_stringIcSt11char_traitsIcESaIcEEESaIS5_EEC1IPKPKcvEET_SD_RKS6_>
    425f:	48 8d 85 50 fe ff ff 	lea    -0x1b0(%rbp),%rax
    4266:	48 8d 95 20 fe ff ff 	lea    -0x1e0(%rbp),%rdx
    426d:	48 8d 8d f8 fd ff ff 	lea    -0x208(%rbp),%rcx
    4274:	48 89 ce             	mov    %rcx,%rsi
    4277:	48 89 c7             	mov    %rax,%rdi
    427a:	e8 af fc ff ff       	call   3f2e <_ZZ19generarProductoJSONRKSt3mapINSt7__cxx1112basic_stringIcSt11char_traitsIcESaIcEEES5_St4lessIS5_ESaISt4pairIKS5_S5_EEEENKUlRKSt6vectorIS5_SaIS5_EEE_clESJ_>
    427f:	48 8d 85 50 fe ff ff 	lea    -0x1b0(%rbp),%rax
    4286:	48 89 c6             	mov    %rax,%rsi
    4289:	48 89 df             	mov    %rbx,%rdi
    428c:	e8 0f f4 ff ff       	call   36a0 <_init+0x6a0>
    4291:	48 89 c2             	mov    %rax,%rdx
    4294:	48 8d 05 9a 7d 00 00 	lea    0x7d9a(%rip),%rax        # c035 <_ZSt19piecewise_construct+0x31>
    429b:	48 89 c6             	mov    %rax,%rsi
    429e:	48 89 d7             	mov    %rdx,%rdi
    42a1:	e8 2a f4 ff ff       	call   36d0 <_init+0x6d0>
    42a6:	48 8d 85 50 fe ff ff 	lea    -0x1b0(%rbp),%rax
    42ad:	48 89 c7             	mov    %rax,%rdi
    42b0:	e8 3b f3 ff ff       	call   35f0 <_init+0x5f0>
    42b5:	48 8d 85 20 fe ff ff 	lea    -0x1e0(%rbp),%rax
    42bc:	48 89 c7             	mov    %rax,%rdi
    42bf:	e8 7c 21 00 00       	call   6440 <_ZNSt6vectorINSt7__cxx1112basic_stringIcSt11char_traitsIcESaIcEEESaIS5_EED1Ev>
    42c4:	48 8d 85 f7 fd ff ff 	lea    -0x209(%rbp),%rax
    42cb:	48 89 c7             	mov    %rax,%rdi
    42ce:	e8 49 35 00 00       	call   781c <_ZNSt15__new_allocatorINSt7__cxx1112basic_stringIcSt11char_traitsIcESaIcEEEED1Ev>
    42d3:	90                   	nop
    42d4:	48 8d 85 70 fe ff ff 	lea    -0x190(%rbp),%rax
    42db:	48 8d 15 74 7d 00 00 	lea    0x7d74(%rip),%rdx        # c056 <_ZSt19piecewise_construct+0x52>
    42e2:	48 89 d6             	mov    %rdx,%rsi
    42e5:	48 89 c7             	mov    %rax,%rdi
    42e8:	e8 e3 f3 ff ff       	call   36d0 <_init+0x6d0>
    42ed:	48 89 c3             	mov    %rax,%rbx
    42f0:	48 8d 05 6f 7d 00 00 	lea    0x7d6f(%rip),%rax        # c066 <_ZSt19piecewise_construct+0x62>
    42f7:	48 89 85 40 fe ff ff 	mov    %rax,-0x1c0(%rbp)
    42fe:	48 8d 05 68 7d 00 00 	lea    0x7d68(%rip),%rax        # c06d <_ZSt19piecewise_construct+0x69>
    4305:	48 89 85 48 fe ff ff 	mov    %rax,-0x1b8(%rbp)
    430c:	48 8d 85 40 fe ff ff 	lea    -0x1c0(%rbp),%rax
    4313:	48 83 c0 10          	add    $0x10,%rax
    4317:	48 8d 95 f7 fd ff ff 	lea    -0x209(%rbp),%rdx
    431e:	48 89 95 10 fe ff ff 	mov    %rdx,-0x1f0(%rbp)
    4325:	90                   	nop
    4326:	90                   	nop
    4327:	48 8d 95 f7 fd ff ff 	lea    -0x209(%rbp),%rdx
    432e:	48 8d b5 40 fe ff ff 	lea    -0x1c0(%rbp),%rsi
    4335:	48 8d bd 20 fe ff ff 	lea    -0x1e0(%rbp),%rdi
    433c:	48 89 d1             	mov    %rdx,%rcx
    433f:	48 89 c2             	mov    %rax,%rdx
    4342:	e8 53 20 00 00       	call   639a <_ZNSt6vectorINSt7__cxx1112basic_stringIcSt11char_traitsIcESaIcEEESaIS5_EEC1IPKPKcvEET_SD_RKS6_>
    4347:	48 8d 85 50 fe ff ff 	lea    -0x1b0(%rbp),%rax
    434e:	48 8d 95 20 fe ff ff 	lea    -0x1e0(%rbp),%rdx
    4355:	48 8d 8d f8 fd ff ff 	lea    -0x208(%rbp),%rcx
    435c:	48 89 ce             	mov    %rcx,%rsi
    435f:	48 89 c7             	mov    %rax,%rdi
    4362:	e8 c7 fb ff ff       	call   3f2e <_ZZ19generarProductoJSONRKSt3mapINSt7__cxx1112basic_stringIcSt11char_traitsIcESaIcEEES5_St4lessIS5_ESaISt4pairIKS5_S5_EEEENKUlRKSt6vectorIS5_SaIS5_EEE_clESJ_>
    4367:	48 8d 85 50 fe ff ff 	lea    -0x1b0(%rbp),%rax
    436e:	48 89 c6             	mov    %rax,%rsi
    4371:	48 89 df             	mov    %rbx,%rdi
    4374:	e8 27 f3 ff ff       	call   36a0 <_init+0x6a0>
    4379:	48 89 c2             	mov    %rax,%rdx
    437c:	48 8d 05 b2 7c 00 00 	lea    0x7cb2(%rip),%rax        # c035 <_ZSt19piecewise_construct+0x31>
    4383:	48 89 c6             	mov    %rax,%rsi
    4386:	48 89 d7             	mov    %rdx,%rdi
    4389:	e8 42 f3 ff ff       	call   36d0 <_init+0x6d0>
    438e:	48 8d 85 50 fe ff ff 	lea    -0x1b0(%rbp),%rax
    4395:	48 89 c7             	mov    %rax,%rdi
    4398:	e8 53 f2 ff ff       	call   35f0 <_init+0x5f0>
    439d:	48 8d 85 20 fe ff ff 	lea    -0x1e0(%rbp),%rax
    43a4:	48 89 c7             	mov    %rax,%rdi
    43a7:	e8 94 20 00 00       	call   6440 <_ZNSt6vectorINSt7__cxx1112basic_stringIcSt11char_traitsIcESaIcEEESaIS5_EED1Ev>
    43ac:	48 8d 85 f7 fd ff ff 	lea    -0x209(%rbp),%rax
    43b3:	48 89 c7             	mov    %rax,%rdi
    43b6:	e8 61 34 00 00       	call   781c <_ZNSt15__new_allocatorINSt7__cxx1112basic_stringIcSt11char_traitsIcESaIcEEEED1Ev>
    43bb:	90                   	nop
    43bc:	48 8d 85 70 fe ff ff 	lea    -0x190(%rbp),%rax
    43c3:	48 8d 15 ad 7c 00 00 	lea    0x7cad(%rip),%rdx        # c077 <_ZSt19piecewise_construct+0x73>
    43ca:	48 89 d6             	mov    %rdx,%rsi
    43cd:	48 89 c7             	mov    %rax,%rdi
    43d0:	e8 fb f2 ff ff       	call   36d0 <_init+0x6d0>
    43d5:	48 89 c3             	mov    %rax,%rbx
    43d8:	48 8d 05 a5 7c 00 00 	lea    0x7ca5(%rip),%rax        # c084 <_ZSt19piecewise_construct+0x80>
    43df:	48 89 85 40 fe ff ff 	mov    %rax,-0x1c0(%rbp)
    43e6:	48 8d 05 9b 7c 00 00 	lea    0x7c9b(%rip),%rax        # c088 <_ZSt19piecewise_construct+0x84>
    43ed:	48 89 85 48 fe ff ff 	mov    %rax,-0x1b8(%rbp)
    43f4:	48 8d 85 40 fe ff ff 	lea    -0x1c0(%rbp),%rax
    43fb:	48 83 c0 10          	add    $0x10,%rax
    43ff:	48 8d 95 f7 fd ff ff 	lea    -0x209(%rbp),%rdx
    4406:	48 89 95 18 fe ff ff 	mov    %rdx,-0x1e8(%rbp)
    440d:	90                   	nop
    440e:	90                   	nop
    440f:	48 8d 95 f7 fd ff ff 	lea    -0x209(%rbp),%rdx
    4416:	48 8d b5 40 fe ff ff 	lea    -0x1c0(%rbp),%rsi
    441d:	48 8d bd 20 fe ff ff 	lea    -0x1e0(%rbp),%rdi
    4424:	48 89 d1             	mov    %rdx,%rcx
    4427:	48 89 c2             	mov    %rax,%rdx
    442a:	e8 6b 1f 00 00       	call   639a <_ZNSt6vectorINSt7__cxx1112basic_stringIcSt11char_traitsIcESaIcEEESaIS5_EEC1IPKPKcvEET_SD_RKS6_>
    442f:	48 8d 85 50 fe ff ff 	lea    -0x1b0(%rbp),%rax
    4436:	48 8d 95 20 fe ff ff 	lea    -0x1e0(%rbp),%rdx
    443d:	48 8d 8d f8 fd ff ff 	lea    -0x208(%rbp),%rcx
    4444:	48 89 ce             	mov    %rcx,%rsi
    4447:	48 89 c7             	mov    %rax,%rdi
    444a:	e8 df fa ff ff       	call   3f2e <_ZZ19generarProductoJSONRKSt3mapINSt7__cxx1112basic_stringIcSt11char_traitsIcESaIcEEES5_St4lessIS5_ESaISt4pairIKS5_S5_EEEENKUlRKSt6vectorIS5_SaIS5_EEE_clESJ_>
    444f:	48 8d 85 50 fe ff ff 	lea    -0x1b0(%rbp),%rax
    4456:	48 89 c6             	mov    %rax,%rsi
    4459:	48 89 df             	mov    %rbx,%rdi
    445c:	e8 3f f2 ff ff       	call   36a0 <_init+0x6a0>
    4461:	48 89 c2             	mov    %rax,%rdx
    4464:	48 8d 05 29 7c 00 00 	lea    0x7c29(%rip),%rax        # c094 <_ZSt19piecewise_construct+0x90>
    446b:	48 89 c6             	mov    %rax,%rsi
    446e:	48 89 d7             	mov    %rdx,%rdi
    4471:	e8 5a f2 ff ff       	call   36d0 <_init+0x6d0>
    4476:	48 8d 85 50 fe ff ff 	lea    -0x1b0(%rbp),%rax
    447d:	48 89 c7             	mov    %rax,%rdi
    4480:	e8 6b f1 ff ff       	call   35f0 <_init+0x5f0>
    4485:	48 8d 85 20 fe ff ff 	lea    -0x1e0(%rbp),%rax
    448c:	48 89 c7             	mov    %rax,%rdi
    448f:	e8 ac 1f 00 00       	call   6440 <_ZNSt6vectorINSt7__cxx1112basic_stringIcSt11char_traitsIcESaIcEEESaIS5_EED1Ev>
    4494:	48 8d 85 f7 fd ff ff 	lea    -0x209(%rbp),%rax
    449b:	48 89 c7             	mov    %rax,%rdi
    449e:	e8 79 33 00 00       	call   781c <_ZNSt15__new_allocatorINSt7__cxx1112basic_stringIcSt11char_traitsIcESaIcEEEED1Ev>
    44a3:	90                   	nop
    44a4:	48 8d 85 70 fe ff ff 	lea    -0x190(%rbp),%rax
    44ab:	48 8d 15 e5 7b 00 00 	lea    0x7be5(%rip),%rdx        # c097 <_ZSt19piecewise_construct+0x93>
    44b2:	48 89 d6             	mov    %rdx,%rsi
    44b5:	48 89 c7             	mov    %rax,%rdi
    44b8:	e8 13 f2 ff ff       	call   36d0 <_init+0x6d0>
    44bd:	48 8b 85 e8 fd ff ff 	mov    -0x218(%rbp),%rax
    44c4:	48 8d 95 70 fe ff ff 	lea    -0x190(%rbp),%rdx
    44cb:	48 89 d6             	mov    %rdx,%rsi
    44ce:	48 89 c7             	mov    %rax,%rdi
    44d1:	e8 2a f2 ff ff       	call   3700 <_init+0x700>
    44d6:	90                   	nop
    44d7:	48 8d 85 70 fe ff ff 	lea    -0x190(%rbp),%rax
    44de:	48 89 c7             	mov    %rax,%rdi
    44e1:	e8 4a f0 ff ff       	call   3530 <_init+0x530>
    44e6:	90                   	nop
    44e7:	48 8b 45 e8          	mov    -0x18(%rbp),%rax
    44eb:	64 48 2b 04 25 28 00 	sub    %fs:0x28,%rax
    44f2:	00 00 
    44f4:	0f 84 69 01 00 00    	je     4663 <_Z19generarProductoJSONRKSt3mapINSt7__cxx1112basic_stringIcSt11char_traitsIcESaIcEEES5_St4lessIS5_ESaISt4pairIKS5_S5_EEE+0x5c2>
    44fa:	e9 5f 01 00 00       	jmp    465e <_Z19generarProductoJSONRKSt3mapINSt7__cxx1112basic_stringIcSt11char_traitsIcESaIcEEES5_St4lessIS5_ESaISt4pairIKS5_S5_EEE+0x5bd>
    44ff:	f3 0f 1e fa          	endbr64 
    4503:	48 89 c3             	mov    %rax,%rbx
    4506:	48 8d 85 50 fe ff ff 	lea    -0x1b0(%rbp),%rax
    450d:	48 89 c7             	mov    %rax,%rdi
    4510:	e8 db f0 ff ff       	call   35f0 <_init+0x5f0>
    4515:	eb 07                	jmp    451e <_Z19generarProductoJSONRKSt3mapINSt7__cxx1112basic_stringIcSt11char_traitsIcESaIcEEES5_St4lessIS5_ESaISt4pairIKS5_S5_EEE+0x47d>
    4517:	f3 0f 1e fa          	endbr64 
    451b:	48 89 c3             	mov    %rax,%rbx
    451e:	48 8d 85 20 fe ff ff 	lea    -0x1e0(%rbp),%rax
    4525:	48 89 c7             	mov    %rax,%rdi
    4528:	e8 13 1f 00 00       	call   6440 <_ZNSt6vectorINSt7__cxx1112basic_stringIcSt11char_traitsIcESaIcEEESaIS5_EED1Ev>
    452d:	eb 07                	jmp    4536 <_Z19generarProductoJSONRKSt3mapINSt7__cxx1112basic_stringIcSt11char_traitsIcESaIcEEES5_St4lessIS5_ESaISt4pairIKS5_S5_EEE+0x495>
    452f:	f3 0f 1e fa          	endbr64 
    4533:	48 89 c3             	mov    %rax,%rbx
    4536:	48 8d 85 f7 fd ff ff 	lea    -0x209(%rbp),%rax
    453d:	48 89 c7             	mov    %rax,%rdi
    4540:	e8 d7 32 00 00       	call   781c <_ZNSt15__new_allocatorINSt7__cxx1112basic_stringIcSt11char_traitsIcESaIcEEEED1Ev>
    4545:	90                   	nop
    4546:	e9 e5 00 00 00       	jmp    4630 <_Z19generarProductoJSONRKSt3mapINSt7__cxx1112basic_stringIcSt11char_traitsIcESaIcEEES5_St4lessIS5_ESaISt4pairIKS5_S5_EEE+0x58f>
    454b:	f3 0f 1e fa          	endbr64 
    454f:	48 89 c3             	mov    %rax,%rbx
    4552:	48 8d 85 50 fe ff ff 	lea    -0x1b0(%rbp),%rax
    4559:	48 89 c7             	mov    %rax,%rdi
    455c:	e8 8f f0 ff ff       	call   35f0 <_init+0x5f0>
    4561:	eb 07                	jmp    456a <_Z19generarProductoJSONRKSt3mapINSt7__cxx1112basic_stringIcSt11char_traitsIcESaIcEEES5_St4lessIS5_ESaISt4pairIKS5_S5_EEE+0x4c9>
    4563:	f3 0f 1e fa          	endbr64 
    4567:	48 89 c3             	mov    %rax,%rbx
    456a:	48 8d 85 20 fe ff ff 	lea    -0x1e0(%rbp),%rax
    4571:	48 89 c7             	mov    %rax,%rdi
    4574:	e8 c7 1e 00 00       	call   6440 <_ZNSt6vectorINSt7__cxx1112basic_stringIcSt11char_traitsIcESaIcEEESaIS5_EED1Ev>
    4579:	eb 07                	jmp    4582 <_Z19generarProductoJSONRKSt3mapINSt7__cxx1112basic_stringIcSt11char_traitsIcESaIcEEES5_St4lessIS5_ESaISt4pairIKS5_S5_EEE+0x4e1>
    457b:	f3 0f 1e fa          	endbr64 
    457f:	48 89 c3             	mov    %rax,%rbx
    4582:	48 8d 85 f7 fd ff ff 	lea    -0x209(%rbp),%rax
    4589:	48 89 c7             	mov    %rax,%rdi
    458c:	e8 8b 32 00 00       	call   781c <_ZNSt15__new_allocatorINSt7__cxx1112basic_stringIcSt11char_traitsIcESaIcEEEED1Ev>
    4591:	90                   	nop
    4592:	e9 99 00 00 00       	jmp    4630 <_Z19generarProductoJSONRKSt3mapINSt7__cxx1112basic_stringIcSt11char_traitsIcESaIcEEES5_St4lessIS5_ESaISt4pairIKS5_S5_EEE+0x58f>
    4597:	f3 0f 1e fa          	endbr64 
    459b:	48 89 c3             	mov    %rax,%rbx
    459e:	48 8d 85 50 fe ff ff 	lea    -0x1b0(%rbp),%rax
    45a5:	48 89 c7             	mov    %rax,%rdi
    45a8:	e8 43 f0 ff ff       	call   35f0 <_init+0x5f0>
    45ad:	eb 07                	jmp    45b6 <_Z19generarProductoJSONRKSt3mapINSt7__cxx1112basic_stringIcSt11char_traitsIcESaIcEEES5_St4lessIS5_ESaISt4pairIKS5_S5_EEE+0x515>
    45af:	f3 0f 1e fa          	endbr64 
    45b3:	48 89 c3             	mov    %rax,%rbx
    45b6:	48 8d 85 20 fe ff ff 	lea    -0x1e0(%rbp),%rax
    45bd:	48 89 c7             	mov    %rax,%rdi
    45c0:	e8 7b 1e 00 00       	call   6440 <_ZNSt6vectorINSt7__cxx1112basic_stringIcSt11char_traitsIcESaIcEEESaIS5_EED1Ev>
    45c5:	eb 07                	jmp    45ce <_Z19generarProductoJSONRKSt3mapINSt7__cxx1112basic_stringIcSt11char_traitsIcESaIcEEES5_St4lessIS5_ESaISt4pairIKS5_S5_EEE+0x52d>
    45c7:	f3 0f 1e fa          	endbr64 
    45cb:	48 89 c3             	mov    %rax,%rbx
    45ce:	48 8d 85 f7 fd ff ff 	lea    -0x209(%rbp),%rax
    45d5:	48 89 c7             	mov    %rax,%rdi
    45d8:	e8 3f 32 00 00       	call   781c <_ZNSt15__new_allocatorINSt7__cxx1112basic_stringIcSt11char_traitsIcESaIcEEEED1Ev>
    45dd:	90                   	nop
    45de:	eb 50                	jmp    4630 <_Z19generarProductoJSONRKSt3mapINSt7__cxx1112basic_stringIcSt11char_traitsIcESaIcEEES5_St4lessIS5_ESaISt4pairIKS5_S5_EEE+0x58f>
    45e0:	f3 0f 1e fa          	endbr64 
    45e4:	48 89 c3             	mov    %rax,%rbx
    45e7:	48 8d 85 50 fe ff ff 	lea    -0x1b0(%rbp),%rax
    45ee:	48 89 c7             	mov    %rax,%rdi
    45f1:	e8 fa ef ff ff       	call   35f0 <_init+0x5f0>
    45f6:	eb 07                	jmp    45ff <_Z19generarProductoJSONRKSt3mapINSt7__cxx1112basic_stringIcSt11char_traitsIcESaIcEEES5_St4lessIS5_ESaISt4pairIKS5_S5_EEE+0x55e>
    45f8:	f3 0f 1e fa          	endbr64 
    45fc:	48 89 c3             	mov    %rax,%rbx
    45ff:	48 8d 85 20 fe ff ff 	lea    -0x1e0(%rbp),%rax
    4606:	48 89 c7             	mov    %rax,%rdi
    4609:	e8 32 1e 00 00       	call   6440 <_ZNSt6vectorINSt7__cxx1112basic_stringIcSt11char_traitsIcESaIcEEESaIS5_EED1Ev>
    460e:	eb 07                	jmp    4617 <_Z19generarProductoJSONRKSt3mapINSt7__cxx1112basic_stringIcSt11char_traitsIcESaIcEEES5_St4lessIS5_ESaISt4pairIKS5_S5_EEE+0x576>
    4610:	f3 0f 1e fa          	endbr64 
    4614:	48 89 c3             	mov    %rax,%rbx
    4617:	48 8d 85 f7 fd ff ff 	lea    -0x209(%rbp),%rax
    461e:	48 89 c7             	mov    %rax,%rdi
    4621:	e8 f6 31 00 00       	call   781c <_ZNSt15__new_allocatorINSt7__cxx1112basic_stringIcSt11char_traitsIcESaIcEEEED1Ev>
    4626:	90                   	nop
    4627:	eb 07                	jmp    4630 <_Z19generarProductoJSONRKSt3mapINSt7__cxx1112basic_stringIcSt11char_traitsIcESaIcEEES5_St4lessIS5_ESaISt4pairIKS5_S5_EEE+0x58f>
    4629:	f3 0f 1e fa          	endbr64 
    462d:	48 89 c3             	mov    %rax,%rbx
    4630:	48 8d 85 70 fe ff ff 	lea    -0x190(%rbp),%rax
    4637:	48 89 c7             	mov    %rax,%rdi
    463a:	e8 f1 ee ff ff       	call   3530 <_init+0x530>
    463f:	48 89 d8             	mov    %rbx,%rax
    4642:	48 8b 55 e8          	mov    -0x18(%rbp),%rdx
    4646:	64 48 2b 14 25 28 00 	sub    %fs:0x28,%rdx
    464d:	00 00 
    464f:	74 05                	je     4656 <_Z19generarProductoJSONRKSt3mapINSt7__cxx1112basic_stringIcSt11char_traitsIcESaIcEEES5_St4lessIS5_ESaISt4pairIKS5_S5_EEE+0x5b5>
    4651:	e8 2a f1 ff ff       	call   3780 <_init+0x780>
    4656:	48 89 c7             	mov    %rax,%rdi
    4659:	e8 b2 f2 ff ff       	call   3910 <_init+0x910>
    465e:	e8 1d f1 ff ff       	call   3780 <_init+0x780>
    4663:	48 8b 85 e8 fd ff ff 	mov    -0x218(%rbp),%rax
    466a:	48 8b 5d f8          	mov    -0x8(%rbp),%rbx
    466e:	c9                   	leave  
    466f:	c3                   	ret    

0000000000004670 <_Z15ejecutarScraperRKNSt7__cxx1112basic_stringIcSt11char_traitsIcESaIcEEE>:
    4670:	f3 0f 1e fa          	endbr64 
    4674:	55                   	push   %rbp
    4675:	48 89 e5             	mov    %rsp,%rbp
    4678:	53                   	push   %rbx
    4679:	48 81 ec 98 08 00 00 	sub    $0x898,%rsp
    4680:	48 89 bd 68 f7 ff ff 	mov    %rdi,-0x898(%rbp)
    4687:	48 89 b5 60 f7 ff ff 	mov    %rsi,-0x8a0(%rbp)
    468e:	64 48 8b 04 25 28 00 	mov    %fs:0x28,%rax
    4695:	00 00 
    4697:	48 89 45 e8          	mov    %rax,-0x18(%rbp)
    469b:	31 c0                	xor    %eax,%eax
    469d:	48 8d 85 a0 f7 ff ff 	lea    -0x860(%rbp),%rax
    46a4:	48 8b 95 60 f7 ff ff 	mov    -0x8a0(%rbp),%rdx
    46ab:	48 8d 0d e9 79 00 00 	lea    0x79e9(%rip),%rcx        # c09b <_ZSt19piecewise_construct+0x97>
    46b2:	48 89 ce             	mov    %rcx,%rsi
    46b5:	48 89 c7             	mov    %rax,%rdi
    46b8:	e8 dd 1d 00 00       	call   649a <_ZStplIcSt11char_traitsIcESaIcEENSt7__cxx1112basic_stringIT_T0_T1_EEPKS5_RKS8_>
    46bd:	48 8d 85 a0 f7 ff ff 	lea    -0x860(%rbp),%rax
    46c4:	48 89 c7             	mov    %rax,%rdi
    46c7:	e8 c4 ee ff ff       	call   3590 <_init+0x590>
    46cc:	48 89 c2             	mov    %rax,%rdx
    46cf:	48 8d 05 ce 79 00 00 	lea    0x79ce(%rip),%rax        # c0a4 <_ZSt19piecewise_construct+0xa0>
    46d6:	48 89 c6             	mov    %rax,%rsi
    46d9:	48 89 d7             	mov    %rdx,%rdi
    46dc:	e8 6f ee ff ff       	call   3550 <_init+0x550>
    46e1:	48 89 85 78 f7 ff ff 	mov    %rax,-0x888(%rbp)
    46e8:	48 8d 85 80 f7 ff ff 	lea    -0x880(%rbp),%rax
    46ef:	48 89 c7             	mov    %rax,%rdi
    46f2:	e8 cb 13 00 00       	call   5ac2 <_ZNSt6vectorISt3mapINSt7__cxx1112basic_stringIcSt11char_traitsIcESaIcEEES6_St4lessIS6_ESaISt4pairIKS6_S6_EEESaISD_EEC1Ev>
    46f7:	48 83 bd 78 f7 ff ff 	cmpq   $0x0,-0x888(%rbp)
    46fe:	00 
    46ff:	75 5e                	jne    475f <_Z15ejecutarScraperRKNSt7__cxx1112basic_stringIcSt11char_traitsIcESaIcEEE+0xef>
    4701:	48 8d 05 9e 79 00 00 	lea    0x799e(%rip),%rax        # c0a6 <_ZSt19piecewise_construct+0xa2>
    4708:	48 89 c6             	mov    %rax,%rsi
    470b:	48 8d 05 4e ca 00 00 	lea    0xca4e(%rip),%rax        # 11160 <_ZSt4cerr@GLIBCXX_3.4>
    4712:	48 89 c7             	mov    %rax,%rdi
    4715:	e8 b6 ef ff ff       	call   36d0 <_init+0x6d0>
    471a:	48 89 c2             	mov    %rax,%rdx
    471d:	48 8b 85 60 f7 ff ff 	mov    -0x8a0(%rbp),%rax
    4724:	48 89 c6             	mov    %rax,%rsi
    4727:	48 89 d7             	mov    %rdx,%rdi
    472a:	e8 71 ef ff ff       	call   36a0 <_init+0x6a0>
    472f:	48 8b 15 a2 c8 00 00 	mov    0xc8a2(%rip),%rdx        # 10fd8 <_ZSt4endlIcSt11char_traitsIcEERSt13basic_ostreamIT_T0_ES6_@GLIBCXX_3.4>
    4736:	48 89 d6             	mov    %rdx,%rsi
    4739:	48 89 c7             	mov    %rax,%rdi
    473c:	e8 ef ef ff ff       	call   3730 <_init+0x730>
    4741:	48 8d 95 80 f7 ff ff 	lea    -0x880(%rbp),%rdx
    4748:	48 8b 85 68 f7 ff ff 	mov    -0x898(%rbp),%rax
    474f:	48 89 d6             	mov    %rdx,%rsi
    4752:	48 89 c7             	mov    %rax,%rdi
    4755:	e8 3a 14 00 00       	call   5b94 <_ZNSt6vectorISt3mapINSt7__cxx1112basic_stringIcSt11char_traitsIcESaIcEEES6_St4lessIS6_ESaISt4pairIKS6_S6_EEESaISD_EEC1EOSF_>
    475a:	e9 87 00 00 00       	jmp    47e6 <_Z15ejecutarScraperRKNSt7__cxx1112basic_stringIcSt11char_traitsIcESaIcEEE+0x176>
    475f:	48 8d 85 c0 f7 ff ff 	lea    -0x840(%rbp),%rax
    4766:	48 89 c7             	mov    %rax,%rdi
    4769:	e8 a2 f0 ff ff       	call   3810 <_init+0x810>
    476e:	eb 19                	jmp    4789 <_Z15ejecutarScraperRKNSt7__cxx1112basic_stringIcSt11char_traitsIcESaIcEEE+0x119>
    4770:	48 8d 95 e0 f7 ff ff 	lea    -0x820(%rbp),%rdx
    4777:	48 8d 85 c0 f7 ff ff 	lea    -0x840(%rbp),%rax
    477e:	48 89 d6             	mov    %rdx,%rsi
    4781:	48 89 c7             	mov    %rax,%rdi
    4784:	e8 37 ef ff ff       	call   36c0 <_init+0x6c0>
    4789:	48 8b 95 78 f7 ff ff 	mov    -0x888(%rbp),%rdx
    4790:	48 8d 85 e0 f7 ff ff 	lea    -0x820(%rbp),%rax
    4797:	be 00 08 00 00       	mov    $0x800,%esi
    479c:	48 89 c7             	mov    %rax,%rdi
    479f:	e8 ec f0 ff ff       	call   3890 <_init+0x890>
    47a4:	48 85 c0             	test   %rax,%rax
    47a7:	0f 95 c0             	setne  %al
    47aa:	84 c0                	test   %al,%al
    47ac:	75 c2                	jne    4770 <_Z15ejecutarScraperRKNSt7__cxx1112basic_stringIcSt11char_traitsIcESaIcEEE+0x100>
    47ae:	48 8b 85 78 f7 ff ff 	mov    -0x888(%rbp),%rax
    47b5:	48 89 c7             	mov    %rax,%rdi
    47b8:	e8 63 f0 ff ff       	call   3820 <_init+0x820>
    47bd:	48 8b 85 68 f7 ff ff 	mov    -0x898(%rbp),%rax
    47c4:	48 8d 95 c0 f7 ff ff 	lea    -0x840(%rbp),%rdx
    47cb:	48 89 d6             	mov    %rdx,%rsi
    47ce:	48 89 c7             	mov    %rax,%rdi
    47d1:	e8 b0 f3 ff ff       	call   3b86 <_Z19parsearJSONdePythonRKNSt7__cxx1112basic_stringIcSt11char_traitsIcESaIcEEE>
    47d6:	90                   	nop
    47d7:	48 8d 85 c0 f7 ff ff 	lea    -0x840(%rbp),%rax
    47de:	48 89 c7             	mov    %rax,%rdi
    47e1:	e8 0a ee ff ff       	call   35f0 <_init+0x5f0>
    47e6:	48 8d 85 80 f7 ff ff 	lea    -0x880(%rbp),%rax
    47ed:	48 89 c7             	mov    %rax,%rdi
    47f0:	e8 ef 15 00 00       	call   5de4 <_ZNSt6vectorISt3mapINSt7__cxx1112basic_stringIcSt11char_traitsIcESaIcEEES6_St4lessIS6_ESaISt4pairIKS6_S6_EEESaISD_EED1Ev>
    47f5:	48 8d 85 a0 f7 ff ff 	lea    -0x860(%rbp),%rax
    47fc:	48 89 c7             	mov    %rax,%rdi
    47ff:	e8 ec ed ff ff       	call   35f0 <_init+0x5f0>
    4804:	48 8b 45 e8          	mov    -0x18(%rbp),%rax
    4808:	64 48 2b 04 25 28 00 	sub    %fs:0x28,%rax
    480f:	00 00 
    4811:	74 6c                	je     487f <_Z15ejecutarScraperRKNSt7__cxx1112basic_stringIcSt11char_traitsIcESaIcEEE+0x20f>
    4813:	eb 65                	jmp    487a <_Z15ejecutarScraperRKNSt7__cxx1112basic_stringIcSt11char_traitsIcESaIcEEE+0x20a>
    4815:	f3 0f 1e fa          	endbr64 
    4819:	48 89 c3             	mov    %rax,%rbx
    481c:	48 8d 85 c0 f7 ff ff 	lea    -0x840(%rbp),%rax
    4823:	48 89 c7             	mov    %rax,%rdi
    4826:	e8 c5 ed ff ff       	call   35f0 <_init+0x5f0>
    482b:	eb 07                	jmp    4834 <_Z15ejecutarScraperRKNSt7__cxx1112basic_stringIcSt11char_traitsIcESaIcEEE+0x1c4>
    482d:	f3 0f 1e fa          	endbr64 
    4831:	48 89 c3             	mov    %rax,%rbx
    4834:	48 8d 85 80 f7 ff ff 	lea    -0x880(%rbp),%rax
    483b:	48 89 c7             	mov    %rax,%rdi
    483e:	e8 a1 15 00 00       	call   5de4 <_ZNSt6vectorISt3mapINSt7__cxx1112basic_stringIcSt11char_traitsIcESaIcEEES6_St4lessIS6_ESaISt4pairIKS6_S6_EEESaISD_EED1Ev>
    4843:	eb 07                	jmp    484c <_Z15ejecutarScraperRKNSt7__cxx1112basic_stringIcSt11char_traitsIcESaIcEEE+0x1dc>
    4845:	f3 0f 1e fa          	endbr64 
    4849:	48 89 c3             	mov    %rax,%rbx
    484c:	48 8d 85 a0 f7 ff ff 	lea    -0x860(%rbp),%rax
    4853:	48 89 c7             	mov    %rax,%rdi
    4856:	e8 95 ed ff ff       	call   35f0 <_init+0x5f0>
    485b:	48 89 d8             	mov    %rbx,%rax
    485e:	48 8b 55 e8          	mov    -0x18(%rbp),%rdx
    4862:	64 48 2b 14 25 28 00 	sub    %fs:0x28,%rdx
    4869:	00 00 
    486b:	74 05                	je     4872 <_Z15ejecutarScraperRKNSt7__cxx1112basic_stringIcSt11char_traitsIcESaIcEEE+0x202>
    486d:	e8 0e ef ff ff       	call   3780 <_init+0x780>
    4872:	48 89 c7             	mov    %rax,%rdi
    4875:	e8 96 f0 ff ff       	call   3910 <_init+0x910>
    487a:	e8 01 ef ff ff       	call   3780 <_init+0x780>
    487f:	48 8b 85 68 f7 ff ff 	mov    -0x898(%rbp),%rax
    4886:	48 8b 5d f8          	mov    -0x8(%rbp),%rbx
    488a:	c9                   	leave  
    488b:	c3                   	ret    

000000000000488c <_Z23obtenerURLsDesdeArchivoRKNSt7__cxx1112basic_stringIcSt11char_traitsIcESaIcEEERKSt3setIS4_St4lessIS4_ESaIS4_EE>:
    488c:	f3 0f 1e fa          	endbr64 
    4890:	55                   	push   %rbp
    4891:	48 89 e5             	mov    %rsp,%rbp
    4894:	53                   	push   %rbx
    4895:	48 81 ec a8 02 00 00 	sub    $0x2a8,%rsp
    489c:	48 89 bd 68 fd ff ff 	mov    %rdi,-0x298(%rbp)
    48a3:	48 89 b5 60 fd ff ff 	mov    %rsi,-0x2a0(%rbp)
    48aa:	48 89 95 58 fd ff ff 	mov    %rdx,-0x2a8(%rbp)
    48b1:	64 48 8b 04 25 28 00 	mov    %fs:0x28,%rax
    48b8:	00 00 
    48ba:	48 89 45 e8          	mov    %rax,-0x18(%rbp)
    48be:	31 c0                	xor    %eax,%eax
    48c0:	48 8b 85 68 fd ff ff 	mov    -0x298(%rbp),%rax
    48c7:	48 89 c7             	mov    %rax,%rdi
    48ca:	e8 37 13 00 00       	call   5c06 <_ZNSt6vectorINSt7__cxx1112basic_stringIcSt11char_traitsIcESaIcEEESaIS5_EEC1Ev>
    48cf:	48 8b 8d 60 fd ff ff 	mov    -0x2a0(%rbp),%rcx
    48d6:	48 8d 85 e0 fd ff ff 	lea    -0x220(%rbp),%rax
    48dd:	ba 08 00 00 00       	mov    $0x8,%edx
    48e2:	48 89 ce             	mov    %rcx,%rsi
    48e5:	48 89 c7             	mov    %rax,%rdi
    48e8:	e8 c3 ef ff ff       	call   38b0 <_init+0x8b0>
    48ed:	48 8d 85 a0 fd ff ff 	lea    -0x260(%rbp),%rax
    48f4:	48 89 c7             	mov    %rax,%rdi
    48f7:	e8 14 ef ff ff       	call   3810 <_init+0x810>
    48fc:	e9 7a 01 00 00       	jmp    4a7b <_Z23obtenerURLsDesdeArchivoRKNSt7__cxx1112basic_stringIcSt11char_traitsIcESaIcEEERKSt3setIS4_St4lessIS4_ESaIS4_EE+0x1ef>
    4901:	48 8d 85 a0 fd ff ff 	lea    -0x260(%rbp),%rax
    4908:	ba 00 00 00 00       	mov    $0x0,%edx
    490d:	48 8d 0d aa 77 00 00 	lea    0x77aa(%rip),%rcx        # c0be <_ZSt19piecewise_construct+0xba>
    4914:	48 89 ce             	mov    %rcx,%rsi
    4917:	48 89 c7             	mov    %rax,%rdi
    491a:	e8 41 f0 ff ff       	call   3960 <_init+0x960>
    491f:	48 83 f8 ff          	cmp    $0xffffffffffffffff,%rax
    4923:	0f 95 c0             	setne  %al
    4926:	84 c0                	test   %al,%al
    4928:	0f 84 4d 01 00 00    	je     4a7b <_Z23obtenerURLsDesdeArchivoRKNSt7__cxx1112basic_stringIcSt11char_traitsIcESaIcEEERKSt3setIS4_St4lessIS4_ESaIS4_EE+0x1ef>
    492e:	48 8d 85 a0 fd ff ff 	lea    -0x260(%rbp),%rax
    4935:	ba 00 00 00 00       	mov    $0x0,%edx
    493a:	48 8d 0d 7d 77 00 00 	lea    0x777d(%rip),%rcx        # c0be <_ZSt19piecewise_construct+0xba>
    4941:	48 89 ce             	mov    %rcx,%rsi
    4944:	48 89 c7             	mov    %rax,%rdi
    4947:	e8 14 f0 ff ff       	call   3960 <_init+0x960>
    494c:	48 89 85 88 fd ff ff 	mov    %rax,-0x278(%rbp)
    4953:	48 8d 85 c0 fd ff ff 	lea    -0x240(%rbp),%rax
    495a:	48 8b 95 88 fd ff ff 	mov    -0x278(%rbp),%rdx
    4961:	48 8d b5 a0 fd ff ff 	lea    -0x260(%rbp),%rsi
    4968:	48 c7 c1 ff ff ff ff 	mov    $0xffffffffffffffff,%rcx
    496f:	48 89 c7             	mov    %rax,%rdi
    4972:	e8 99 ed ff ff       	call   3710 <_init+0x710>
    4977:	48 8b 85 58 fd ff ff 	mov    -0x2a8(%rbp),%rax
    497e:	48 89 85 90 fd ff ff 	mov    %rax,-0x270(%rbp)
    4985:	48 8b 85 90 fd ff ff 	mov    -0x270(%rbp),%rax
    498c:	48 89 c7             	mov    %rax,%rdi
    498f:	e8 76 1c 00 00       	call   660a <_ZNKSt3setINSt7__cxx1112basic_stringIcSt11char_traitsIcESaIcEEESt4lessIS5_ESaIS5_EE5beginEv>
    4994:	48 89 85 78 fd ff ff 	mov    %rax,-0x288(%rbp)
    499b:	48 8b 85 90 fd ff ff 	mov    -0x270(%rbp),%rax
    49a2:	48 89 c7             	mov    %rax,%rdi
    49a5:	e8 7e 1c 00 00       	call   6628 <_ZNKSt3setINSt7__cxx1112basic_stringIcSt11char_traitsIcESaIcEEESt4lessIS5_ESaIS5_EE3endEv>
    49aa:	48 89 85 80 fd ff ff 	mov    %rax,-0x280(%rbp)
    49b1:	eb 69                	jmp    4a1c <_Z23obtenerURLsDesdeArchivoRKNSt7__cxx1112basic_stringIcSt11char_traitsIcESaIcEEERKSt3setIS4_St4lessIS4_ESaIS4_EE+0x190>
    49b3:	48 8d 85 78 fd ff ff 	lea    -0x288(%rbp),%rax
    49ba:	48 89 c7             	mov    %rax,%rdi
    49bd:	e8 d6 1c 00 00       	call   6698 <_ZNKSt23_Rb_tree_const_iteratorINSt7__cxx1112basic_stringIcSt11char_traitsIcESaIcEEEEdeEv>
    49c2:	48 89 85 98 fd ff ff 	mov    %rax,-0x268(%rbp)
    49c9:	48 8b 8d 98 fd ff ff 	mov    -0x268(%rbp),%rcx
    49d0:	48 8d 85 c0 fd ff ff 	lea    -0x240(%rbp),%rax
    49d7:	ba 00 00 00 00       	mov    $0x0,%edx
    49dc:	48 89 ce             	mov    %rcx,%rsi
    49df:	48 89 c7             	mov    %rax,%rdi
    49e2:	e8 89 ef ff ff       	call   3970 <_init+0x970>
    49e7:	48 83 f8 ff          	cmp    $0xffffffffffffffff,%rax
    49eb:	0f 95 c0             	setne  %al
    49ee:	84 c0                	test   %al,%al
    49f0:	74 1b                	je     4a0d <_Z23obtenerURLsDesdeArchivoRKNSt7__cxx1112basic_stringIcSt11char_traitsIcESaIcEEERKSt3setIS4_St4lessIS4_ESaIS4_EE+0x181>
    49f2:	48 8d 85 c0 fd ff ff 	lea    -0x240(%rbp),%rax
    49f9:	48 8d 15 c3 76 00 00 	lea    0x76c3(%rip),%rdx        # c0c3 <_ZSt19piecewise_construct+0xbf>
    4a00:	48 89 d6             	mov    %rdx,%rsi
    4a03:	48 89 c7             	mov    %rax,%rdi
    4a06:	e8 f5 ed ff ff       	call   3800 <_init+0x800>
    4a0b:	eb 30                	jmp    4a3d <_Z23obtenerURLsDesdeArchivoRKNSt7__cxx1112basic_stringIcSt11char_traitsIcESaIcEEERKSt3setIS4_St4lessIS4_ESaIS4_EE+0x1b1>
    4a0d:	48 8d 85 78 fd ff ff 	lea    -0x288(%rbp),%rax
    4a14:	48 89 c7             	mov    %rax,%rdi
    4a17:	e8 50 1c 00 00       	call   666c <_ZNSt23_Rb_tree_const_iteratorINSt7__cxx1112basic_stringIcSt11char_traitsIcESaIcEEEEppEv>
    4a1c:	48 8d 95 80 fd ff ff 	lea    -0x280(%rbp),%rdx
    4a23:	48 8d 85 78 fd ff ff 	lea    -0x288(%rbp),%rax
    4a2a:	48 89 d6             	mov    %rdx,%rsi
    4a2d:	48 89 c7             	mov    %rax,%rdi
    4a30:	e8 11 1c 00 00       	call   6646 <_ZStneRKSt23_Rb_tree_const_iteratorINSt7__cxx1112basic_stringIcSt11char_traitsIcESaIcEEEES8_>
    4a35:	84 c0                	test   %al,%al
    4a37:	0f 85 76 ff ff ff    	jne    49b3 <_Z23obtenerURLsDesdeArchivoRKNSt7__cxx1112basic_stringIcSt11char_traitsIcESaIcEEERKSt3setIS4_St4lessIS4_ESaIS4_EE+0x127>
    4a3d:	48 8d 85 c0 fd ff ff 	lea    -0x240(%rbp),%rax
    4a44:	48 89 c7             	mov    %rax,%rdi
    4a47:	e8 94 ee ff ff       	call   38e0 <_init+0x8e0>
    4a4c:	83 f0 01             	xor    $0x1,%eax
    4a4f:	84 c0                	test   %al,%al
    4a51:	74 19                	je     4a6c <_Z23obtenerURLsDesdeArchivoRKNSt7__cxx1112basic_stringIcSt11char_traitsIcESaIcEEERKSt3setIS4_St4lessIS4_ESaIS4_EE+0x1e0>
    4a53:	48 8d 95 c0 fd ff ff 	lea    -0x240(%rbp),%rdx
    4a5a:	48 8b 85 68 fd ff ff 	mov    -0x298(%rbp),%rax
    4a61:	48 89 d6             	mov    %rdx,%rsi
    4a64:	48 89 c7             	mov    %rax,%rdi
    4a67:	e8 4e 1c 00 00       	call   66ba <_ZNSt6vectorINSt7__cxx1112basic_stringIcSt11char_traitsIcESaIcEEESaIS5_EE9push_backERKS5_>
    4a6c:	48 8d 85 c0 fd ff ff 	lea    -0x240(%rbp),%rax
    4a73:	48 89 c7             	mov    %rax,%rdi
    4a76:	e8 75 eb ff ff       	call   35f0 <_init+0x5f0>
    4a7b:	48 8d 95 a0 fd ff ff 	lea    -0x260(%rbp),%rdx
    4a82:	48 8d 85 e0 fd ff ff 	lea    -0x220(%rbp),%rax
    4a89:	48 89 d6             	mov    %rdx,%rsi
    4a8c:	48 89 c7             	mov    %rax,%rdi
    4a8f:	e8 8c ea ff ff       	call   3520 <_init+0x520>
    4a94:	48 8b 10             	mov    (%rax),%rdx
    4a97:	48 83 ea 18          	sub    $0x18,%rdx
    4a9b:	48 8b 12             	mov    (%rdx),%rdx
    4a9e:	48 01 d0             	add    %rdx,%rax
    4aa1:	48 89 c7             	mov    %rax,%rdi
    4aa4:	e8 17 ed ff ff       	call   37c0 <_init+0x7c0>
    4aa9:	84 c0                	test   %al,%al
    4aab:	0f 85 50 fe ff ff    	jne    4901 <_Z23obtenerURLsDesdeArchivoRKNSt7__cxx1112basic_stringIcSt11char_traitsIcESaIcEEERKSt3setIS4_St4lessIS4_ESaIS4_EE+0x75>
    4ab1:	90                   	nop
    4ab2:	48 8d 85 a0 fd ff ff 	lea    -0x260(%rbp),%rax
    4ab9:	48 89 c7             	mov    %rax,%rdi
    4abc:	e8 2f eb ff ff       	call   35f0 <_init+0x5f0>
    4ac1:	48 8d 85 e0 fd ff ff 	lea    -0x220(%rbp),%rax
    4ac8:	48 89 c7             	mov    %rax,%rdi
    4acb:	e8 70 ea ff ff       	call   3540 <_init+0x540>
    4ad0:	90                   	nop
    4ad1:	48 8b 45 e8          	mov    -0x18(%rbp),%rax
    4ad5:	64 48 2b 04 25 28 00 	sub    %fs:0x28,%rax
    4adc:	00 00 
    4ade:	74 7b                	je     4b5b <_Z23obtenerURLsDesdeArchivoRKNSt7__cxx1112basic_stringIcSt11char_traitsIcESaIcEEERKSt3setIS4_St4lessIS4_ESaIS4_EE+0x2cf>
    4ae0:	eb 74                	jmp    4b56 <_Z23obtenerURLsDesdeArchivoRKNSt7__cxx1112basic_stringIcSt11char_traitsIcESaIcEEERKSt3setIS4_St4lessIS4_ESaIS4_EE+0x2ca>
    4ae2:	f3 0f 1e fa          	endbr64 
    4ae6:	48 89 c3             	mov    %rax,%rbx
    4ae9:	48 8d 85 c0 fd ff ff 	lea    -0x240(%rbp),%rax
    4af0:	48 89 c7             	mov    %rax,%rdi
    4af3:	e8 f8 ea ff ff       	call   35f0 <_init+0x5f0>
    4af8:	eb 07                	jmp    4b01 <_Z23obtenerURLsDesdeArchivoRKNSt7__cxx1112basic_stringIcSt11char_traitsIcESaIcEEERKSt3setIS4_St4lessIS4_ESaIS4_EE+0x275>
    4afa:	f3 0f 1e fa          	endbr64 
    4afe:	48 89 c3             	mov    %rax,%rbx
    4b01:	48 8d 85 a0 fd ff ff 	lea    -0x260(%rbp),%rax
    4b08:	48 89 c7             	mov    %rax,%rdi
    4b0b:	e8 e0 ea ff ff       	call   35f0 <_init+0x5f0>
    4b10:	48 8d 85 e0 fd ff ff 	lea    -0x220(%rbp),%rax
    4b17:	48 89 c7             	mov    %rax,%rdi
    4b1a:	e8 21 ea ff ff       	call   3540 <_init+0x540>
    4b1f:	eb 07                	jmp    4b28 <_Z23obtenerURLsDesdeArchivoRKNSt7__cxx1112basic_stringIcSt11char_traitsIcESaIcEEERKSt3setIS4_St4lessIS4_ESaIS4_EE+0x29c>
    4b21:	f3 0f 1e fa          	endbr64 
    4b25:	48 89 c3             	mov    %rax,%rbx
    4b28:	48 8b 85 68 fd ff ff 	mov    -0x298(%rbp),%rax
    4b2f:	48 89 c7             	mov    %rax,%rdi
    4b32:	e8 09 19 00 00       	call   6440 <_ZNSt6vectorINSt7__cxx1112basic_stringIcSt11char_traitsIcESaIcEEESaIS5_EED1Ev>
    4b37:	48 89 d8             	mov    %rbx,%rax
    4b3a:	48 8b 55 e8          	mov    -0x18(%rbp),%rdx
    4b3e:	64 48 2b 14 25 28 00 	sub    %fs:0x28,%rdx
    4b45:	00 00 
    4b47:	74 05                	je     4b4e <_Z23obtenerURLsDesdeArchivoRKNSt7__cxx1112basic_stringIcSt11char_traitsIcESaIcEEERKSt3setIS4_St4lessIS4_ESaIS4_EE+0x2c2>
    4b49:	e8 32 ec ff ff       	call   3780 <_init+0x780>
    4b4e:	48 89 c7             	mov    %rax,%rdi
    4b51:	e8 ba ed ff ff       	call   3910 <_init+0x910>
    4b56:	e8 25 ec ff ff       	call   3780 <_init+0x780>
    4b5b:	48 8b 85 68 fd ff ff 	mov    -0x298(%rbp),%rax
    4b62:	48 8b 5d f8          	mov    -0x8(%rbp),%rbx
    4b66:	c9                   	leave  
    4b67:	c3                   	ret    

0000000000004b68 <_Z25ejecutarMainScraperConURLRKNSt7__cxx1112basic_stringIcSt11char_traitsIcESaIcEEE>:
    4b68:	f3 0f 1e fa          	endbr64 
    4b6c:	55                   	push   %rbp
    4b6d:	48 89 e5             	mov    %rsp,%rbp
    4b70:	53                   	push   %rbx
    4b71:	48 81 ec 98 08 00 00 	sub    $0x898,%rsp
    4b78:	48 89 bd 68 f7 ff ff 	mov    %rdi,-0x898(%rbp)
    4b7f:	48 89 b5 60 f7 ff ff 	mov    %rsi,-0x8a0(%rbp)
    4b86:	64 48 8b 04 25 28 00 	mov    %fs:0x28,%rax
    4b8d:	00 00 
    4b8f:	48 89 45 e8          	mov    %rax,-0x18(%rbp)
    4b93:	31 c0                	xor    %eax,%eax
    4b95:	48 8d 85 80 f7 ff ff 	lea    -0x880(%rbp),%rax
    4b9c:	48 89 c7             	mov    %rax,%rdi
    4b9f:	e8 1e 0f 00 00       	call   5ac2 <_ZNSt6vectorISt3mapINSt7__cxx1112basic_stringIcSt11char_traitsIcESaIcEEES6_St4lessIS6_ESaISt4pairIKS6_S6_EEESaISD_EEC1Ev>
    4ba4:	48 8d 85 c0 f7 ff ff 	lea    -0x840(%rbp),%rax
    4bab:	48 8b 95 60 f7 ff ff 	mov    -0x8a0(%rbp),%rdx
    4bb2:	48 8d 0d 0f 75 00 00 	lea    0x750f(%rip),%rcx        # c0c8 <_ZSt19piecewise_construct+0xc4>
    4bb9:	48 89 ce             	mov    %rcx,%rsi
    4bbc:	48 89 c7             	mov    %rax,%rdi
    4bbf:	e8 d6 18 00 00       	call   649a <_ZStplIcSt11char_traitsIcESaIcEENSt7__cxx1112basic_stringIT_T0_T1_EEPKS5_RKS8_>
    4bc4:	48 8d 85 a0 f7 ff ff 	lea    -0x860(%rbp),%rax
    4bcb:	48 8d 8d c0 f7 ff ff 	lea    -0x840(%rbp),%rcx
    4bd2:	48 8d 15 32 74 00 00 	lea    0x7432(%rip),%rdx        # c00b <_ZSt19piecewise_construct+0x7>
    4bd9:	48 89 ce             	mov    %rcx,%rsi
    4bdc:	48 89 c7             	mov    %rax,%rdi
    4bdf:	e8 e1 1b 00 00       	call   67c5 <_ZStplIcSt11char_traitsIcESaIcEENSt7__cxx1112basic_stringIT_T0_T1_EEOS8_PKS5_>
    4be4:	48 8d 85 c0 f7 ff ff 	lea    -0x840(%rbp),%rax
    4beb:	48 89 c7             	mov    %rax,%rdi
    4bee:	e8 fd e9 ff ff       	call   35f0 <_init+0x5f0>
    4bf3:	48 8d 85 a0 f7 ff ff 	lea    -0x860(%rbp),%rax
    4bfa:	48 89 c7             	mov    %rax,%rdi
    4bfd:	e8 8e e9 ff ff       	call   3590 <_init+0x590>
    4c02:	48 89 c2             	mov    %rax,%rdx
    4c05:	48 8d 05 98 74 00 00 	lea    0x7498(%rip),%rax        # c0a4 <_ZSt19piecewise_construct+0xa0>
    4c0c:	48 89 c6             	mov    %rax,%rsi
    4c0f:	48 89 d7             	mov    %rdx,%rdi
    4c12:	e8 39 e9 ff ff       	call   3550 <_init+0x550>
    4c17:	48 89 85 78 f7 ff ff 	mov    %rax,-0x888(%rbp)
    4c1e:	48 83 bd 78 f7 ff ff 	cmpq   $0x0,-0x888(%rbp)
    4c25:	00 
    4c26:	75 5e                	jne    4c86 <_Z25ejecutarMainScraperConURLRKNSt7__cxx1112basic_stringIcSt11char_traitsIcESaIcEEE+0x11e>
    4c28:	48 8d 05 c1 74 00 00 	lea    0x74c1(%rip),%rax        # c0f0 <_ZSt19piecewise_construct+0xec>
    4c2f:	48 89 c6             	mov    %rax,%rsi
    4c32:	48 8d 05 27 c5 00 00 	lea    0xc527(%rip),%rax        # 11160 <_ZSt4cerr@GLIBCXX_3.4>
    4c39:	48 89 c7             	mov    %rax,%rdi
    4c3c:	e8 8f ea ff ff       	call   36d0 <_init+0x6d0>
    4c41:	48 89 c2             	mov    %rax,%rdx
    4c44:	48 8b 85 60 f7 ff ff 	mov    -0x8a0(%rbp),%rax
    4c4b:	48 89 c6             	mov    %rax,%rsi
    4c4e:	48 89 d7             	mov    %rdx,%rdi
    4c51:	e8 4a ea ff ff       	call   36a0 <_init+0x6a0>
    4c56:	48 8b 15 7b c3 00 00 	mov    0xc37b(%rip),%rdx        # 10fd8 <_ZSt4endlIcSt11char_traitsIcEERSt13basic_ostreamIT_T0_ES6_@GLIBCXX_3.4>
    4c5d:	48 89 d6             	mov    %rdx,%rsi
    4c60:	48 89 c7             	mov    %rax,%rdi
    4c63:	e8 c8 ea ff ff       	call   3730 <_init+0x730>
    4c68:	48 8d 95 80 f7 ff ff 	lea    -0x880(%rbp),%rdx
    4c6f:	48 8b 85 68 f7 ff ff 	mov    -0x898(%rbp),%rax
    4c76:	48 89 d6             	mov    %rdx,%rsi
    4c79:	48 89 c7             	mov    %rax,%rdi
    4c7c:	e8 13 0f 00 00       	call   5b94 <_ZNSt6vectorISt3mapINSt7__cxx1112basic_stringIcSt11char_traitsIcESaIcEEES6_St4lessIS6_ESaISt4pairIKS6_S6_EEESaISD_EEC1EOSF_>
    4c81:	e9 87 00 00 00       	jmp    4d0d <_Z25ejecutarMainScraperConURLRKNSt7__cxx1112basic_stringIcSt11char_traitsIcESaIcEEE+0x1a5>
    4c86:	48 8d 85 c0 f7 ff ff 	lea    -0x840(%rbp),%rax
    4c8d:	48 89 c7             	mov    %rax,%rdi
    4c90:	e8 7b eb ff ff       	call   3810 <_init+0x810>
    4c95:	eb 19                	jmp    4cb0 <_Z25ejecutarMainScraperConURLRKNSt7__cxx1112basic_stringIcSt11char_traitsIcESaIcEEE+0x148>
    4c97:	48 8d 95 e0 f7 ff ff 	lea    -0x820(%rbp),%rdx
    4c9e:	48 8d 85 c0 f7 ff ff 	lea    -0x840(%rbp),%rax
    4ca5:	48 89 d6             	mov    %rdx,%rsi
    4ca8:	48 89 c7             	mov    %rax,%rdi
    4cab:	e8 10 ea ff ff       	call   36c0 <_init+0x6c0>
    4cb0:	48 8b 95 78 f7 ff ff 	mov    -0x888(%rbp),%rdx
    4cb7:	48 8d 85 e0 f7 ff ff 	lea    -0x820(%rbp),%rax
    4cbe:	be 00 08 00 00       	mov    $0x800,%esi
    4cc3:	48 89 c7             	mov    %rax,%rdi
    4cc6:	e8 c5 eb ff ff       	call   3890 <_init+0x890>
    4ccb:	48 85 c0             	test   %rax,%rax
    4cce:	0f 95 c0             	setne  %al
    4cd1:	84 c0                	test   %al,%al
    4cd3:	75 c2                	jne    4c97 <_Z25ejecutarMainScraperConURLRKNSt7__cxx1112basic_stringIcSt11char_traitsIcESaIcEEE+0x12f>
    4cd5:	48 8b 85 78 f7 ff ff 	mov    -0x888(%rbp),%rax
    4cdc:	48 89 c7             	mov    %rax,%rdi
    4cdf:	e8 3c eb ff ff       	call   3820 <_init+0x820>
    4ce4:	48 8b 85 68 f7 ff ff 	mov    -0x898(%rbp),%rax
    4ceb:	48 8d 95 c0 f7 ff ff 	lea    -0x840(%rbp),%rdx
    4cf2:	48 89 d6             	mov    %rdx,%rsi
    4cf5:	48 89 c7             	mov    %rax,%rdi
    4cf8:	e8 89 ee ff ff       	call   3b86 <_Z19parsearJSONdePythonRKNSt7__cxx1112basic_stringIcSt11char_traitsIcESaIcEEE>
    4cfd:	90                   	nop
    4cfe:	48 8d 85 c0 f7 ff ff 	lea    -0x840(%rbp),%rax
    4d05:	48 89 c7             	mov    %rax,%rdi
    4d08:	e8 e3 e8 ff ff       	call   35f0 <_init+0x5f0>
    4d0d:	48 8d 85 a0 f7 ff ff 	lea    -0x860(%rbp),%rax
    4d14:	48 89 c7             	mov    %rax,%rdi
    4d17:	e8 d4 e8 ff ff       	call   35f0 <_init+0x5f0>
    4d1c:	48 8d 85 80 f7 ff ff 	lea    -0x880(%rbp),%rax
    4d23:	48 89 c7             	mov    %rax,%rdi
    4d26:	e8 b9 10 00 00       	call   5de4 <_ZNSt6vectorISt3mapINSt7__cxx1112basic_stringIcSt11char_traitsIcESaIcEEES6_St4lessIS6_ESaISt4pairIKS6_S6_EEESaISD_EED1Ev>
    4d2b:	48 8b 45 e8          	mov    -0x18(%rbp),%rax
    4d2f:	64 48 2b 04 25 28 00 	sub    %fs:0x28,%rax
    4d36:	00 00 
    4d38:	0f 84 84 00 00 00    	je     4dc2 <_Z25ejecutarMainScraperConURLRKNSt7__cxx1112basic_stringIcSt11char_traitsIcESaIcEEE+0x25a>
    4d3e:	eb 7d                	jmp    4dbd <_Z25ejecutarMainScraperConURLRKNSt7__cxx1112basic_stringIcSt11char_traitsIcESaIcEEE+0x255>
    4d40:	f3 0f 1e fa          	endbr64 
    4d44:	48 89 c3             	mov    %rax,%rbx
    4d47:	48 8d 85 c0 f7 ff ff 	lea    -0x840(%rbp),%rax
    4d4e:	48 89 c7             	mov    %rax,%rdi
    4d51:	e8 9a e8 ff ff       	call   35f0 <_init+0x5f0>
    4d56:	eb 37                	jmp    4d8f <_Z25ejecutarMainScraperConURLRKNSt7__cxx1112basic_stringIcSt11char_traitsIcESaIcEEE+0x227>
    4d58:	f3 0f 1e fa          	endbr64 
    4d5c:	48 89 c3             	mov    %rax,%rbx
    4d5f:	48 8d 85 c0 f7 ff ff 	lea    -0x840(%rbp),%rax
    4d66:	48 89 c7             	mov    %rax,%rdi
    4d69:	e8 82 e8 ff ff       	call   35f0 <_init+0x5f0>
    4d6e:	eb 07                	jmp    4d77 <_Z25ejecutarMainScraperConURLRKNSt7__cxx1112basic_stringIcSt11char_traitsIcESaIcEEE+0x20f>
    4d70:	f3 0f 1e fa          	endbr64 
    4d74:	48 89 c3             	mov    %rax,%rbx
    4d77:	48 8d 85 a0 f7 ff ff 	lea    -0x860(%rbp),%rax
    4d7e:	48 89 c7             	mov    %rax,%rdi
    4d81:	e8 6a e8 ff ff       	call   35f0 <_init+0x5f0>
    4d86:	eb 07                	jmp    4d8f <_Z25ejecutarMainScraperConURLRKNSt7__cxx1112basic_stringIcSt11char_traitsIcESaIcEEE+0x227>
    4d88:	f3 0f 1e fa          	endbr64 
    4d8c:	48 89 c3             	mov    %rax,%rbx
    4d8f:	48 8d 85 80 f7 ff ff 	lea    -0x880(%rbp),%rax
    4d96:	48 89 c7             	mov    %rax,%rdi
    4d99:	e8 46 10 00 00       	call   5de4 <_ZNSt6vectorISt3mapINSt7__cxx1112basic_stringIcSt11char_traitsIcESaIcEEES6_St4lessIS6_ESaISt4pairIKS6_S6_EEESaISD_EED1Ev>
    4d9e:	48 89 d8             	mov    %rbx,%rax
    4da1:	48 8b 55 e8          	mov    -0x18(%rbp),%rdx
    4da5:	64 48 2b 14 25 28 00 	sub    %fs:0x28,%rdx
    4dac:	00 00 
    4dae:	74 05                	je     4db5 <_Z25ejecutarMainScraperConURLRKNSt7__cxx1112basic_stringIcSt11char_traitsIcESaIcEEE+0x24d>
    4db0:	e8 cb e9 ff ff       	call   3780 <_init+0x780>
    4db5:	48 89 c7             	mov    %rax,%rdi
    4db8:	e8 53 eb ff ff       	call   3910 <_init+0x910>
    4dbd:	e8 be e9 ff ff       	call   3780 <_init+0x780>
    4dc2:	48 8b 85 68 f7 ff ff 	mov    -0x898(%rbp),%rax
    4dc9:	48 8b 5d f8          	mov    -0x8(%rbp),%rbx
    4dcd:	c9                   	leave  
    4dce:	c3                   	ret    

0000000000004dcf <main>:
    4dcf:	f3 0f 1e fa          	endbr64 
    4dd3:	55                   	push   %rbp
    4dd4:	48 89 e5             	mov    %rsp,%rbp
    4dd7:	41 57                	push   %r15
    4dd9:	41 56                	push   %r14
    4ddb:	41 55                	push   %r13
    4ddd:	41 54                	push   %r12
    4ddf:	53                   	push   %rbx
    4de0:	48 81 ec 18 03 00 00 	sub    $0x318,%rsp
    4de7:	64 48 8b 04 25 28 00 	mov    %fs:0x28,%rax
    4dee:	00 00 
    4df0:	48 89 45 c8          	mov    %rax,-0x38(%rbp)
    4df4:	31 c0                	xor    %eax,%eax
    4df6:	bf 04 00 00 00       	mov    $0x4,%edi
    4dfb:	e8 90 e9 ff ff       	call   3790 <_init+0x790>
    4e00:	48 8d 85 70 fd ff ff 	lea    -0x290(%rbp),%rax
    4e07:	48 89 85 d8 fc ff ff 	mov    %rax,-0x328(%rbp)
    4e0e:	90                   	nop
    4e0f:	90                   	nop
    4e10:	48 8d 95 70 fd ff ff 	lea    -0x290(%rbp),%rdx
    4e17:	48 8d 85 a0 fd ff ff 	lea    -0x260(%rbp),%rax
    4e1e:	48 8d 0d fb 72 00 00 	lea    0x72fb(%rip),%rcx        # c120 <_ZSt19piecewise_construct+0x11c>
    4e25:	48 89 ce             	mov    %rcx,%rsi
    4e28:	48 89 c7             	mov    %rax,%rdi
    4e2b:	e8 c2 14 00 00       	call   62f2 <_ZNSt7__cxx1112basic_stringIcSt11char_traitsIcESaIcEEC1IS3_EEPKcRKS3_>
    4e30:	48 8d 85 70 fd ff ff 	lea    -0x290(%rbp),%rax
    4e37:	48 89 c7             	mov    %rax,%rdi
    4e3a:	e8 99 1e 00 00       	call   6cd8 <_ZNSt15__new_allocatorIcED1Ev>
    4e3f:	90                   	nop
    4e40:	4c 8d ad c0 fd ff ff 	lea    -0x240(%rbp),%r13
    4e47:	bb 03 00 00 00       	mov    $0x3,%ebx
    4e4c:	48 8d 85 a0 fd ff ff 	lea    -0x260(%rbp),%rax
    4e53:	48 8d 15 d0 72 00 00 	lea    0x72d0(%rip),%rdx        # c12a <_ZSt19piecewise_construct+0x126>
    4e5a:	48 89 c6             	mov    %rax,%rsi
    4e5d:	4c 89 ef             	mov    %r13,%rdi
    4e60:	e8 ab 19 00 00       	call   6810 <_ZStplIcSt11char_traitsIcESaIcEENSt7__cxx1112basic_stringIT_T0_T1_EERKS8_PKS5_>
    4e65:	4d 8d 65 20          	lea    0x20(%r13),%r12
    4e69:	48 83 eb 01          	sub    $0x1,%rbx
    4e6d:	48 8d 85 a0 fd ff ff 	lea    -0x260(%rbp),%rax
    4e74:	48 8d 15 ba 72 00 00 	lea    0x72ba(%rip),%rdx        # c135 <_ZSt19piecewise_construct+0x131>
    4e7b:	48 89 c6             	mov    %rax,%rsi
    4e7e:	4c 89 e7             	mov    %r12,%rdi
    4e81:	e8 8a 19 00 00       	call   6810 <_ZStplIcSt11char_traitsIcESaIcEENSt7__cxx1112basic_stringIT_T0_T1_EERKS8_PKS5_>
    4e86:	49 83 c4 20          	add    $0x20,%r12
    4e8a:	48 83 eb 01          	sub    $0x1,%rbx
    4e8e:	48 8d 85 a0 fd ff ff 	lea    -0x260(%rbp),%rax
    4e95:	48 8d 15 a0 72 00 00 	lea    0x72a0(%rip),%rdx        # c13c <_ZSt19piecewise_construct+0x138>
    4e9c:	48 89 c6             	mov    %rax,%rsi
    4e9f:	4c 89 e7             	mov    %r12,%rdi
    4ea2:	e8 69 19 00 00       	call   6810 <_ZStplIcSt11char_traitsIcESaIcEENSt7__cxx1112basic_stringIT_T0_T1_EERKS8_PKS5_>
    4ea7:	49 8d 4c 24 20       	lea    0x20(%r12),%rcx
    4eac:	48 83 eb 01          	sub    $0x1,%rbx
    4eb0:	48 8d 85 a0 fd ff ff 	lea    -0x260(%rbp),%rax
    4eb7:	48 8d 15 8b 72 00 00 	lea    0x728b(%rip),%rdx        # c149 <_ZSt19piecewise_construct+0x145>
    4ebe:	48 89 c6             	mov    %rax,%rsi
    4ec1:	48 89 cf             	mov    %rcx,%rdi
    4ec4:	e8 47 19 00 00       	call   6810 <_ZStplIcSt11char_traitsIcESaIcEENSt7__cxx1112basic_stringIT_T0_T1_EERKS8_PKS5_>
    4ec9:	bb 03 00 00 00       	mov    $0x3,%ebx
    4ece:	48 8d 85 c0 fd ff ff 	lea    -0x240(%rbp),%rax
    4ed5:	49 89 c6             	mov    %rax,%r14
    4ed8:	41 bf 04 00 00 00    	mov    $0x4,%r15d
    4ede:	48 8d 85 70 fd ff ff 	lea    -0x290(%rbp),%rax
    4ee5:	48 89 85 e0 fc ff ff 	mov    %rax,-0x320(%rbp)
    4eec:	90                   	nop
    4eed:	90                   	nop
    4eee:	48 8d 95 70 fd ff ff 	lea    -0x290(%rbp),%rdx
    4ef5:	4c 89 f6             	mov    %r14,%rsi
    4ef8:	4c 89 ff             	mov    %r15,%rdi
    4efb:	4d 89 f0             	mov    %r14,%r8
    4efe:	4d 89 f9             	mov    %r15,%r9
    4f01:	4c 89 cf             	mov    %r9,%rdi
    4f04:	48 8d 85 f0 fc ff ff 	lea    -0x310(%rbp),%rax
    4f0b:	48 89 d1             	mov    %rdx,%rcx
    4f0e:	48 89 fa             	mov    %rdi,%rdx
    4f11:	48 89 c7             	mov    %rax,%rdi
    4f14:	e8 e5 19 00 00       	call   68fe <_ZNSt6vectorINSt7__cxx1112basic_stringIcSt11char_traitsIcESaIcEEESaIS5_EEC1ESt16initializer_listIS5_ERKS6_>
    4f19:	48 8d 85 70 fd ff ff 	lea    -0x290(%rbp),%rax
    4f20:	48 89 c7             	mov    %rax,%rdi
    4f23:	e8 f4 28 00 00       	call   781c <_ZNSt15__new_allocatorINSt7__cxx1112basic_stringIcSt11char_traitsIcESaIcEEEED1Ev>
    4f28:	90                   	nop
    4f29:	48 8d 9d c0 fd ff ff 	lea    -0x240(%rbp),%rbx
    4f30:	48 83 eb 80          	sub    $0xffffffffffffff80,%rbx
    4f34:	48 8d 85 c0 fd ff ff 	lea    -0x240(%rbp),%rax
    4f3b:	48 39 c3             	cmp    %rax,%rbx
    4f3e:	74 0e                	je     4f4e <main+0x17f>
    4f40:	48 83 eb 20          	sub    $0x20,%rbx
    4f44:	48 89 df             	mov    %rbx,%rdi
    4f47:	e8 a4 e6 ff ff       	call   35f0 <_init+0x5f0>
    4f4c:	eb e6                	jmp    4f34 <main+0x165>
    4f4e:	48 8d 05 00 72 00 00 	lea    0x7200(%rip),%rax        # c155 <_ZSt19piecewise_construct+0x151>
    4f55:	48 89 85 c0 fd ff ff 	mov    %rax,-0x240(%rbp)
    4f5c:	48 8d 05 fd 71 00 00 	lea    0x71fd(%rip),%rax        # c160 <_ZSt19piecewise_construct+0x15c>
    4f63:	48 89 85 c8 fd ff ff 	mov    %rax,-0x238(%rbp)
    4f6a:	48 8d 05 fa 71 00 00 	lea    0x71fa(%rip),%rax        # c16b <_ZSt19piecewise_construct+0x167>
    4f71:	48 89 85 d0 fd ff ff 	mov    %rax,-0x230(%rbp)
    4f78:	48 8d 05 f9 71 00 00 	lea    0x71f9(%rip),%rax        # c178 <_ZSt19piecewise_construct+0x174>
    4f7f:	48 89 85 d8 fd ff ff 	mov    %rax,-0x228(%rbp)
    4f86:	48 8d 85 c0 fd ff ff 	lea    -0x240(%rbp),%rax
    4f8d:	48 83 c0 20          	add    $0x20,%rax
    4f91:	48 8d b5 c0 fd ff ff 	lea    -0x240(%rbp),%rsi
    4f98:	48 8d 8d 70 fd ff ff 	lea    -0x290(%rbp),%rcx
    4f9f:	48 89 c2             	mov    %rax,%rdx
    4fa2:	48 89 cf             	mov    %rcx,%rdi
    4fa5:	e8 62 1a 00 00       	call   6a0c <_ZNSt3setINSt7__cxx1112basic_stringIcSt11char_traitsIcESaIcEEESt4lessIS5_ESaIS5_EEC1IPKPKcEET_SF_>
    4faa:	48 8d 85 50 fd ff ff 	lea    -0x2b0(%rbp),%rax
    4fb1:	48 89 85 e8 fc ff ff 	mov    %rax,-0x318(%rbp)
    4fb8:	90                   	nop
    4fb9:	90                   	nop
    4fba:	48 8d 95 50 fd ff ff 	lea    -0x2b0(%rbp),%rdx
    4fc1:	48 8d 85 c0 fd ff ff 	lea    -0x240(%rbp),%rax
    4fc8:	48 8d 0d b9 71 00 00 	lea    0x71b9(%rip),%rcx        # c188 <_ZSt19piecewise_construct+0x184>
    4fcf:	48 89 ce             	mov    %rcx,%rsi
    4fd2:	48 89 c7             	mov    %rax,%rdi
    4fd5:	e8 18 13 00 00       	call   62f2 <_ZNSt7__cxx1112basic_stringIcSt11char_traitsIcESaIcEEC1IS3_EEPKcRKS3_>
    4fda:	48 8d 85 10 fd ff ff 	lea    -0x2f0(%rbp),%rax
    4fe1:	48 8d 95 70 fd ff ff 	lea    -0x290(%rbp),%rdx
    4fe8:	48 8d 8d c0 fd ff ff 	lea    -0x240(%rbp),%rcx
    4fef:	48 89 ce             	mov    %rcx,%rsi
    4ff2:	48 89 c7             	mov    %rax,%rdi
    4ff5:	e8 92 f8 ff ff       	call   488c <_Z23obtenerURLsDesdeArchivoRKNSt7__cxx1112basic_stringIcSt11char_traitsIcESaIcEEERKSt3setIS4_St4lessIS4_ESaIS4_EE>
    4ffa:	48 8d 85 c0 fd ff ff 	lea    -0x240(%rbp),%rax
    5001:	48 89 c7             	mov    %rax,%rdi
    5004:	e8 e7 e5 ff ff       	call   35f0 <_init+0x5f0>
    5009:	48 8d 85 50 fd ff ff 	lea    -0x2b0(%rbp),%rax
    5010:	48 89 c7             	mov    %rax,%rdi
    5013:	e8 c0 1c 00 00       	call   6cd8 <_ZNSt15__new_allocatorIcED1Ev>
    5018:	90                   	nop
    5019:	48 8d 85 30 fd ff ff 	lea    -0x2d0(%rbp),%rax
    5020:	48 89 c7             	mov    %rax,%rdi
    5023:	e8 de 0b 00 00       	call   5c06 <_ZNSt6vectorINSt7__cxx1112basic_stringIcSt11char_traitsIcESaIcEEESaIS5_EEC1Ev>
    5028:	48 8d 85 f0 fc ff ff 	lea    -0x310(%rbp),%rax
    502f:	48 89 c7             	mov    %rax,%rdi
    5032:	e8 89 1a 00 00       	call   6ac0 <_ZNKSt6vectorINSt7__cxx1112basic_stringIcSt11char_traitsIcESaIcEEESaIS5_EE4sizeEv>
    5037:	89 c3                	mov    %eax,%ebx
    5039:	48 8d 85 10 fd ff ff 	lea    -0x2f0(%rbp),%rax
    5040:	48 89 c7             	mov    %rax,%rdi
    5043:	e8 78 1a 00 00       	call   6ac0 <_ZNKSt6vectorINSt7__cxx1112basic_stringIcSt11char_traitsIcESaIcEEESaIS5_EE4sizeEv>
    5048:	01 d8                	add    %ebx,%eax
    504a:	89 85 cc fc ff ff    	mov    %eax,-0x334(%rbp)
    5050:	8b 85 cc fc ff ff    	mov    -0x334(%rbp),%eax
    5056:	89 85 68 fd ff ff    	mov    %eax,-0x298(%rbp)
    505c:	48 8d 85 f0 fc ff ff 	lea    -0x310(%rbp),%rax
    5063:	48 89 85 50 fd ff ff 	mov    %rax,-0x2b0(%rbp)
    506a:	48 8d 85 10 fd ff ff 	lea    -0x2f0(%rbp),%rax
    5071:	48 89 85 58 fd ff ff 	mov    %rax,-0x2a8(%rbp)
    5078:	48 8d 85 30 fd ff ff 	lea    -0x2d0(%rbp),%rax
    507f:	48 89 85 60 fd ff ff 	mov    %rax,-0x2a0(%rbp)
    5086:	48 8d 85 50 fd ff ff 	lea    -0x2b0(%rbp),%rax
    508d:	b9 00 00 00 00       	mov    $0x0,%ecx
    5092:	ba 00 00 00 00       	mov    $0x0,%edx
    5097:	48 89 c6             	mov    %rax,%rsi
    509a:	48 8d 05 51 03 00 00 	lea    0x351(%rip),%rax        # 53f2 <main._omp_fn.0>
    50a1:	48 89 c7             	mov    %rax,%rdi
    50a4:	e8 c7 e7 ff ff       	call   3870 <_init+0x870>
    50a9:	48 8d 85 c0 fd ff ff 	lea    -0x240(%rbp),%rax
    50b0:	ba 10 00 00 00       	mov    $0x10,%edx
    50b5:	48 8d 0d dc 70 00 00 	lea    0x70dc(%rip),%rcx        # c198 <_ZSt19piecewise_construct+0x194>
    50bc:	48 89 ce             	mov    %rcx,%rsi
    50bf:	48 89 c7             	mov    %rax,%rdi
    50c2:	e8 89 e6 ff ff       	call   3750 <_init+0x750>
    50c7:	48 8d 85 c0 fd ff ff 	lea    -0x240(%rbp),%rax
    50ce:	48 8d 15 e4 70 00 00 	lea    0x70e4(%rip),%rdx        # c1b9 <_ZSt19piecewise_construct+0x1b5>
    50d5:	48 89 d6             	mov    %rdx,%rsi
    50d8:	48 89 c7             	mov    %rax,%rdi
    50db:	e8 f0 e5 ff ff       	call   36d0 <_init+0x6d0>
    50e0:	48 c7 85 d0 fc ff ff 	movq   $0x0,-0x330(%rbp)
    50e7:	00 00 00 00 
    50eb:	e9 89 00 00 00       	jmp    5179 <main+0x3aa>
    50f0:	48 8b 95 d0 fc ff ff 	mov    -0x330(%rbp),%rdx
    50f7:	48 8d 85 30 fd ff ff 	lea    -0x2d0(%rbp),%rax
    50fe:	48 89 d6             	mov    %rdx,%rsi
    5101:	48 89 c7             	mov    %rax,%rdi
    5104:	e8 df 19 00 00       	call   6ae8 <_ZNSt6vectorINSt7__cxx1112basic_stringIcSt11char_traitsIcESaIcEEESaIS5_EEixEm>
    5109:	48 89 c2             	mov    %rax,%rdx
    510c:	48 8d 85 c0 fd ff ff 	lea    -0x240(%rbp),%rax
    5113:	48 89 d6             	mov    %rdx,%rsi
    5116:	48 89 c7             	mov    %rax,%rdi
    5119:	e8 82 e5 ff ff       	call   36a0 <_init+0x6a0>
    511e:	48 8d 85 30 fd ff ff 	lea    -0x2d0(%rbp),%rax
    5125:	48 89 c7             	mov    %rax,%rdi
    5128:	e8 93 19 00 00       	call   6ac0 <_ZNKSt6vectorINSt7__cxx1112basic_stringIcSt11char_traitsIcESaIcEEESaIS5_EE4sizeEv>
    512d:	48 83 e8 01          	sub    $0x1,%rax
    5131:	48 39 85 d0 fc ff ff 	cmp    %rax,-0x330(%rbp)
    5138:	0f 95 c0             	setne  %al
    513b:	84 c0                	test   %al,%al
    513d:	74 19                	je     5158 <main+0x389>
    513f:	48 8d 85 c0 fd ff ff 	lea    -0x240(%rbp),%rax
    5146:	48 8d 15 6f 70 00 00 	lea    0x706f(%rip),%rdx        # c1bc <_ZSt19piecewise_construct+0x1b8>
    514d:	48 89 d6             	mov    %rdx,%rsi
    5150:	48 89 c7             	mov    %rax,%rdi
    5153:	e8 78 e5 ff ff       	call   36d0 <_init+0x6d0>
    5158:	48 8d 85 c0 fd ff ff 	lea    -0x240(%rbp),%rax
    515f:	48 8d 15 58 70 00 00 	lea    0x7058(%rip),%rdx        # c1be <_ZSt19piecewise_construct+0x1ba>
    5166:	48 89 d6             	mov    %rdx,%rsi
    5169:	48 89 c7             	mov    %rax,%rdi
    516c:	e8 5f e5 ff ff       	call   36d0 <_init+0x6d0>
    5171:	48 83 85 d0 fc ff ff 	addq   $0x1,-0x330(%rbp)
    5178:	01 
    5179:	48 8d 85 30 fd ff ff 	lea    -0x2d0(%rbp),%rax
    5180:	48 89 c7             	mov    %rax,%rdi
    5183:	e8 38 19 00 00       	call   6ac0 <_ZNKSt6vectorINSt7__cxx1112basic_stringIcSt11char_traitsIcESaIcEEESaIS5_EE4sizeEv>
    5188:	48 39 85 d0 fc ff ff 	cmp    %rax,-0x330(%rbp)
    518f:	0f 92 c0             	setb   %al
    5192:	84 c0                	test   %al,%al
    5194:	0f 85 56 ff ff ff    	jne    50f0 <main+0x321>
    519a:	48 8d 85 c0 fd ff ff 	lea    -0x240(%rbp),%rax
    51a1:	48 8d 15 18 70 00 00 	lea    0x7018(%rip),%rdx        # c1c0 <_ZSt19piecewise_construct+0x1bc>
    51a8:	48 89 d6             	mov    %rdx,%rsi
    51ab:	48 89 c7             	mov    %rax,%rdi
    51ae:	e8 1d e5 ff ff       	call   36d0 <_init+0x6d0>
    51b3:	48 8d 85 c0 fd ff ff 	lea    -0x240(%rbp),%rax
    51ba:	48 89 c7             	mov    %rax,%rdi
    51bd:	e8 6e e6 ff ff       	call   3830 <_init+0x830>
    51c2:	48 8d 05 ff 6f 00 00 	lea    0x6fff(%rip),%rax        # c1c8 <_ZSt19piecewise_construct+0x1c4>
    51c9:	48 89 c6             	mov    %rax,%rsi
    51cc:	48 8d 05 6d be 00 00 	lea    0xbe6d(%rip),%rax        # 11040 <_ZSt4cout@GLIBCXX_3.4>
    51d3:	48 89 c7             	mov    %rax,%rdi
    51d6:	e8 f5 e4 ff ff       	call   36d0 <_init+0x6d0>
    51db:	48 8b 15 f6 bd 00 00 	mov    0xbdf6(%rip),%rdx        # 10fd8 <_ZSt4endlIcSt11char_traitsIcEERSt13basic_ostreamIT_T0_ES6_@GLIBCXX_3.4>
    51e2:	48 89 d6             	mov    %rdx,%rsi
    51e5:	48 89 c7             	mov    %rax,%rdi
    51e8:	e8 43 e5 ff ff       	call   3730 <_init+0x730>
    51ed:	bb 00 00 00 00       	mov    $0x0,%ebx
    51f2:	48 8d 85 c0 fd ff ff 	lea    -0x240(%rbp),%rax
    51f9:	48 89 c7             	mov    %rax,%rdi
    51fc:	e8 5f e6 ff ff       	call   3860 <_init+0x860>
    5201:	48 8d 85 30 fd ff ff 	lea    -0x2d0(%rbp),%rax
    5208:	48 89 c7             	mov    %rax,%rdi
    520b:	e8 30 12 00 00       	call   6440 <_ZNSt6vectorINSt7__cxx1112basic_stringIcSt11char_traitsIcESaIcEEESaIS5_EED1Ev>
    5210:	48 8d 85 10 fd ff ff 	lea    -0x2f0(%rbp),%rax
    5217:	48 89 c7             	mov    %rax,%rdi
    521a:	e8 21 12 00 00       	call   6440 <_ZNSt6vectorINSt7__cxx1112basic_stringIcSt11char_traitsIcESaIcEEESaIS5_EED1Ev>
    521f:	48 8d 85 70 fd ff ff 	lea    -0x290(%rbp),%rax
    5226:	48 89 c7             	mov    %rax,%rdi
    5229:	e8 f8 09 00 00       	call   5c26 <_ZNSt3setINSt7__cxx1112basic_stringIcSt11char_traitsIcESaIcEEESt4lessIS5_ESaIS5_EED1Ev>
    522e:	48 8d 85 f0 fc ff ff 	lea    -0x310(%rbp),%rax
    5235:	48 89 c7             	mov    %rax,%rdi
    5238:	e8 03 12 00 00       	call   6440 <_ZNSt6vectorINSt7__cxx1112basic_stringIcSt11char_traitsIcESaIcEEESaIS5_EED1Ev>
    523d:	48 8d 85 a0 fd ff ff 	lea    -0x260(%rbp),%rax
    5244:	48 89 c7             	mov    %rax,%rdi
    5247:	e8 a4 e3 ff ff       	call   35f0 <_init+0x5f0>
    524c:	89 d8                	mov    %ebx,%eax
    524e:	48 8b 55 c8          	mov    -0x38(%rbp),%rdx
    5252:	64 48 2b 14 25 28 00 	sub    %fs:0x28,%rdx
    5259:	00 00 
    525b:	0f 84 7f 01 00 00    	je     53e0 <main+0x611>
    5261:	e9 75 01 00 00       	jmp    53db <main+0x60c>
    5266:	f3 0f 1e fa          	endbr64 
    526a:	48 89 c3             	mov    %rax,%rbx
    526d:	48 8d 85 70 fd ff ff 	lea    -0x290(%rbp),%rax
    5274:	48 89 c7             	mov    %rax,%rdi
    5277:	e8 5c 1a 00 00       	call   6cd8 <_ZNSt15__new_allocatorIcED1Ev>
    527c:	90                   	nop
    527d:	48 89 d8             	mov    %rbx,%rax
    5280:	48 8b 55 c8          	mov    -0x38(%rbp),%rdx
    5284:	64 48 2b 14 25 28 00 	sub    %fs:0x28,%rdx
    528b:	00 00 
    528d:	74 05                	je     5294 <main+0x4c5>
    528f:	e8 ec e4 ff ff       	call   3780 <_init+0x780>
    5294:	48 89 c7             	mov    %rax,%rdi
    5297:	e8 74 e6 ff ff       	call   3910 <_init+0x910>
    529c:	f3 0f 1e fa          	endbr64 
    52a0:	49 89 c4             	mov    %rax,%r12
    52a3:	48 8d 85 70 fd ff ff 	lea    -0x290(%rbp),%rax
    52aa:	48 89 c7             	mov    %rax,%rdi
    52ad:	e8 6a 25 00 00       	call   781c <_ZNSt15__new_allocatorINSt7__cxx1112basic_stringIcSt11char_traitsIcESaIcEEEED1Ev>
    52b2:	90                   	nop
    52b3:	4d 89 e6             	mov    %r12,%r14
    52b6:	4c 8d a5 c0 fd ff ff 	lea    -0x240(%rbp),%r12
    52bd:	49 83 ec 80          	sub    $0xffffffffffffff80,%r12
    52c1:	48 8d 85 c0 fd ff ff 	lea    -0x240(%rbp),%rax
    52c8:	49 39 c4             	cmp    %rax,%r12
    52cb:	74 0e                	je     52db <main+0x50c>
    52cd:	49 83 ec 20          	sub    $0x20,%r12
    52d1:	4c 89 e7             	mov    %r12,%rdi
    52d4:	e8 17 e3 ff ff       	call   35f0 <_init+0x5f0>
    52d9:	eb e6                	jmp    52c1 <main+0x4f2>
    52db:	4d 89 f4             	mov    %r14,%r12
    52de:	eb 07                	jmp    52e7 <main+0x518>
    52e0:	f3 0f 1e fa          	endbr64 
    52e4:	49 89 c4             	mov    %rax,%r12
    52e7:	4d 85 ed             	test   %r13,%r13
    52ea:	74 24                	je     5310 <main+0x541>
    52ec:	b8 03 00 00 00       	mov    $0x3,%eax
    52f1:	48 29 d8             	sub    %rbx,%rax
    52f4:	48 c1 e0 05          	shl    $0x5,%rax
    52f8:	49 8d 5c 05 00       	lea    0x0(%r13,%rax,1),%rbx
    52fd:	4c 39 eb             	cmp    %r13,%rbx
    5300:	74 0e                	je     5310 <main+0x541>
    5302:	48 83 eb 20          	sub    $0x20,%rbx
    5306:	48 89 df             	mov    %rbx,%rdi
    5309:	e8 e2 e2 ff ff       	call   35f0 <_init+0x5f0>
    530e:	eb ed                	jmp    52fd <main+0x52e>
    5310:	4c 89 e3             	mov    %r12,%rbx
    5313:	e9 95 00 00 00       	jmp    53ad <main+0x5de>
    5318:	f3 0f 1e fa          	endbr64 
    531c:	48 89 c3             	mov    %rax,%rbx
    531f:	48 8d 85 c0 fd ff ff 	lea    -0x240(%rbp),%rax
    5326:	48 89 c7             	mov    %rax,%rdi
    5329:	e8 c2 e2 ff ff       	call   35f0 <_init+0x5f0>
    532e:	eb 07                	jmp    5337 <main+0x568>
    5330:	f3 0f 1e fa          	endbr64 
    5334:	48 89 c3             	mov    %rax,%rbx
    5337:	48 8d 85 50 fd ff ff 	lea    -0x2b0(%rbp),%rax
    533e:	48 89 c7             	mov    %rax,%rdi
    5341:	e8 92 19 00 00       	call   6cd8 <_ZNSt15__new_allocatorIcED1Ev>
    5346:	90                   	nop
    5347:	eb 3d                	jmp    5386 <main+0x5b7>
    5349:	f3 0f 1e fa          	endbr64 
    534d:	48 89 c3             	mov    %rax,%rbx
    5350:	48 8d 85 c0 fd ff ff 	lea    -0x240(%rbp),%rax
    5357:	48 89 c7             	mov    %rax,%rdi
    535a:	e8 01 e5 ff ff       	call   3860 <_init+0x860>
    535f:	eb 07                	jmp    5368 <main+0x599>
    5361:	f3 0f 1e fa          	endbr64 
    5365:	48 89 c3             	mov    %rax,%rbx
    5368:	48 8d 85 30 fd ff ff 	lea    -0x2d0(%rbp),%rax
    536f:	48 89 c7             	mov    %rax,%rdi
    5372:	e8 c9 10 00 00       	call   6440 <_ZNSt6vectorINSt7__cxx1112basic_stringIcSt11char_traitsIcESaIcEEESaIS5_EED1Ev>
    5377:	48 8d 85 10 fd ff ff 	lea    -0x2f0(%rbp),%rax
    537e:	48 89 c7             	mov    %rax,%rdi
    5381:	e8 ba 10 00 00       	call   6440 <_ZNSt6vectorINSt7__cxx1112basic_stringIcSt11char_traitsIcESaIcEEESaIS5_EED1Ev>
    5386:	48 8d 85 70 fd ff ff 	lea    -0x290(%rbp),%rax
    538d:	48 89 c7             	mov    %rax,%rdi
    5390:	e8 91 08 00 00       	call   5c26 <_ZNSt3setINSt7__cxx1112basic_stringIcSt11char_traitsIcESaIcEEESt4lessIS5_ESaIS5_EED1Ev>
    5395:	eb 07                	jmp    539e <main+0x5cf>
    5397:	f3 0f 1e fa          	endbr64 
    539b:	48 89 c3             	mov    %rax,%rbx
    539e:	48 8d 85 f0 fc ff ff 	lea    -0x310(%rbp),%rax
    53a5:	48 89 c7             	mov    %rax,%rdi
    53a8:	e8 93 10 00 00       	call   6440 <_ZNSt6vectorINSt7__cxx1112basic_stringIcSt11char_traitsIcESaIcEEESaIS5_EED1Ev>
    53ad:	48 8d 85 a0 fd ff ff 	lea    -0x260(%rbp),%rax
    53b4:	48 89 c7             	mov    %rax,%rdi
    53b7:	e8 34 e2 ff ff       	call   35f0 <_init+0x5f0>
    53bc:	48 89 d8             	mov    %rbx,%rax
    53bf:	48 8b 55 c8          	mov    -0x38(%rbp),%rdx
    53c3:	64 48 2b 14 25 28 00 	sub    %fs:0x28,%rdx
    53ca:	00 00 
    53cc:	74 05                	je     53d3 <main+0x604>
    53ce:	e8 ad e3 ff ff       	call   3780 <_init+0x780>
    53d3:	48 89 c7             	mov    %rax,%rdi
    53d6:	e8 35 e5 ff ff       	call   3910 <_init+0x910>
    53db:	e8 a0 e3 ff ff       	call   3780 <_init+0x780>
    53e0:	48 81 c4 18 03 00 00 	add    $0x318,%rsp
    53e7:	5b                   	pop    %rbx
    53e8:	41 5c                	pop    %r12
    53ea:	41 5d                	pop    %r13
    53ec:	41 5e                	pop    %r14
    53ee:	41 5f                	pop    %r15
    53f0:	5d                   	pop    %rbp
    53f1:	c3                   	ret    

00000000000053f2 <main._omp_fn.0>:
    53f2:	f3 0f 1e fa          	endbr64 
    53f6:	55                   	push   %rbp
    53f7:	48 89 e5             	mov    %rsp,%rbp
    53fa:	41 54                	push   %r12
    53fc:	53                   	push   %rbx
    53fd:	48 81 ec c0 00 00 00 	sub    $0xc0,%rsp
    5404:	48 89 bd 38 ff ff ff 	mov    %rdi,-0xc8(%rbp)
    540b:	64 48 8b 04 25 28 00 	mov    %fs:0x28,%rax
    5412:	00 00 
    5414:	48 89 45 e8          	mov    %rax,-0x18(%rbp)
    5418:	31 c0                	xor    %eax,%eax
    541a:	48 8b 85 38 ff ff ff 	mov    -0xc8(%rbp),%rax
    5421:	8b 40 18             	mov    0x18(%rax),%eax
    5424:	89 85 48 ff ff ff    	mov    %eax,-0xb8(%rbp)
    542a:	8b 85 48 ff ff ff    	mov    -0xb8(%rbp),%eax
    5430:	48 98                	cltq   
    5432:	48 8d 8d 58 ff ff ff 	lea    -0xa8(%rbp),%rcx
    5439:	48 8d 95 50 ff ff ff 	lea    -0xb0(%rbp),%rdx
    5440:	49 89 c9             	mov    %rcx,%r9
    5443:	49 89 d0             	mov    %rdx,%r8
    5446:	b9 01 00 00 00       	mov    $0x1,%ecx
    544b:	ba 01 00 00 00       	mov    $0x1,%edx
    5450:	48 89 c6             	mov    %rax,%rsi
    5453:	bf 00 00 00 00       	mov    $0x0,%edi
    5458:	e8 73 e4 ff ff       	call   38d0 <_init+0x8d0>
    545d:	84 c0                	test   %al,%al
    545f:	0f 84 3d 03 00 00    	je     57a2 <main._omp_fn.0+0x3b0>
    5465:	48 8b 85 50 ff ff ff 	mov    -0xb0(%rbp),%rax
    546c:	89 85 44 ff ff ff    	mov    %eax,-0xbc(%rbp)
    5472:	48 8b 85 58 ff ff ff 	mov    -0xa8(%rbp),%rax
    5479:	41 89 c4             	mov    %eax,%r12d
    547c:	e8 1f e4 ff ff       	call   38a0 <_init+0x8a0>
    5481:	89 85 4c ff ff ff    	mov    %eax,-0xb4(%rbp)
    5487:	48 8d 45 80          	lea    -0x80(%rbp),%rax
    548b:	48 89 c7             	mov    %rax,%rdi
    548e:	e8 2f 06 00 00       	call   5ac2 <_ZNSt6vectorISt3mapINSt7__cxx1112basic_stringIcSt11char_traitsIcESaIcEEES6_St4lessIS6_ESaISt4pairIKS6_S6_EEESaISD_EEC1Ev>
    5493:	48 8b 85 38 ff ff ff 	mov    -0xc8(%rbp),%rax
    549a:	48 8b 00             	mov    (%rax),%rax
    549d:	48 89 c7             	mov    %rax,%rdi
    54a0:	e8 1b 16 00 00       	call   6ac0 <_ZNKSt6vectorINSt7__cxx1112basic_stringIcSt11char_traitsIcESaIcEEESaIS5_EE4sizeEv>
    54a5:	3b 85 44 ff ff ff    	cmp    -0xbc(%rbp),%eax
    54ab:	0f 9f c0             	setg   %al
    54ae:	84 c0                	test   %al,%al
    54b0:	0f 85 19 02 00 00    	jne    56cf <main._omp_fn.0+0x2dd>
    54b6:	e9 23 01 00 00       	jmp    55de <main._omp_fn.0+0x1ec>
    54bb:	48 8d 45 80          	lea    -0x80(%rbp),%rax
    54bf:	48 89 85 70 ff ff ff 	mov    %rax,-0x90(%rbp)
    54c6:	48 8b 85 70 ff ff ff 	mov    -0x90(%rbp),%rax
    54cd:	48 89 c7             	mov    %rax,%rdi
    54d0:	e8 73 16 00 00       	call   6b48 <_ZNSt6vectorISt3mapINSt7__cxx1112basic_stringIcSt11char_traitsIcESaIcEEES6_St4lessIS6_ESaISt4pairIKS6_S6_EEESaISD_EE5beginEv>
    54d5:	48 89 85 60 ff ff ff 	mov    %rax,-0xa0(%rbp)
    54dc:	48 8b 85 70 ff ff ff 	mov    -0x90(%rbp),%rax
    54e3:	48 89 c7             	mov    %rax,%rdi
    54e6:	e8 a9 16 00 00       	call   6b94 <_ZNSt6vectorISt3mapINSt7__cxx1112basic_stringIcSt11char_traitsIcESaIcEEES6_St4lessIS6_ESaISt4pairIKS6_S6_EEESaISD_EE3endEv>
    54eb:	48 89 85 68 ff ff ff 	mov    %rax,-0x98(%rbp)
    54f2:	90                   	nop
    54f3:	48 8d 95 68 ff ff ff 	lea    -0x98(%rbp),%rdx
    54fa:	48 8d 85 60 ff ff ff 	lea    -0xa0(%rbp),%rax
    5501:	48 89 d6             	mov    %rdx,%rsi
    5504:	48 89 c7             	mov    %rax,%rdi
    5507:	e8 d8 16 00 00       	call   6be4 <_ZN9__gnu_cxxneIPSt3mapINSt7__cxx1112basic_stringIcSt11char_traitsIcESaIcEEES7_St4lessIS7_ESaISt4pairIKS7_S7_EEESt6vectorISE_SaISE_EEEEbRKNS_17__normal_iteratorIT_T0_EESO_>
    550c:	84 c0                	test   %al,%al
    550e:	75 46                	jne    5556 <main._omp_fn.0+0x164>
    5510:	48 8d 45 80          	lea    -0x80(%rbp),%rax
    5514:	48 89 c7             	mov    %rax,%rdi
    5517:	e8 c8 08 00 00       	call   5de4 <_ZNSt6vectorISt3mapINSt7__cxx1112basic_stringIcSt11char_traitsIcESaIcEEES6_St4lessIS6_ESaISt4pairIKS6_S6_EEESaISD_EED1Ev>
    551c:	83 85 44 ff ff ff 01 	addl   $0x1,-0xbc(%rbp)
    5523:	44 39 a5 44 ff ff ff 	cmp    %r12d,-0xbc(%rbp)
    552a:	0f 8c 4c ff ff ff    	jl     547c <main._omp_fn.0+0x8a>
    5530:	48 8d 95 58 ff ff ff 	lea    -0xa8(%rbp),%rdx
    5537:	48 8d 85 50 ff ff ff 	lea    -0xb0(%rbp),%rax
    553e:	48 89 d6             	mov    %rdx,%rsi
    5541:	48 89 c7             	mov    %rax,%rdi
    5544:	e8 87 e2 ff ff       	call   37d0 <_init+0x7d0>
    5549:	84 c0                	test   %al,%al
    554b:	0f 85 14 ff ff ff    	jne    5465 <main._omp_fn.0+0x73>
    5551:	e9 4c 02 00 00       	jmp    57a2 <main._omp_fn.0+0x3b0>
    5556:	48 8d 85 60 ff ff ff 	lea    -0xa0(%rbp),%rax
    555d:	48 89 c7             	mov    %rax,%rdi
    5560:	e8 e3 16 00 00       	call   6c48 <_ZNK9__gnu_cxx17__normal_iteratorIPSt3mapINSt7__cxx1112basic_stringIcSt11char_traitsIcESaIcEEES7_St4lessIS7_ESaISt4pairIKS7_S7_EEESt6vectorISE_SaISE_EEEdeEv>
    5565:	48 89 85 78 ff ff ff 	mov    %rax,-0x88(%rbp)
    556c:	48 8d 45 c0          	lea    -0x40(%rbp),%rax
    5570:	48 8b 95 78 ff ff ff 	mov    -0x88(%rbp),%rdx
    5577:	48 89 d6             	mov    %rdx,%rsi
    557a:	48 89 c7             	mov    %rax,%rdi
    557d:	e8 1f eb ff ff       	call   40a1 <_Z19generarProductoJSONRKSt3mapINSt7__cxx1112basic_stringIcSt11char_traitsIcESaIcEEES5_St4lessIS5_ESaISt4pairIKS5_S5_EEE>
    5582:	48 8d 45 a0          	lea    -0x60(%rbp),%rax
    5586:	48 8d 15 f3 bc 00 00 	lea    0xbcf3(%rip),%rdx        # 11280 <mutex_json>
    558d:	48 89 d6             	mov    %rdx,%rsi
    5590:	48 89 c7             	mov    %rax,%rdi
    5593:	e8 c6 16 00 00       	call   6c5e <_ZNSt10lock_guardISt5mutexEC1ERS0_>
    5598:	48 8b 85 38 ff ff ff 	mov    -0xc8(%rbp),%rax
    559f:	48 8b 40 10          	mov    0x10(%rax),%rax
    55a3:	48 8d 55 c0          	lea    -0x40(%rbp),%rdx
    55a7:	48 89 d6             	mov    %rdx,%rsi
    55aa:	48 89 c7             	mov    %rax,%rdi
    55ad:	e8 08 11 00 00       	call   66ba <_ZNSt6vectorINSt7__cxx1112basic_stringIcSt11char_traitsIcESaIcEEESaIS5_EE9push_backERKS5_>
    55b2:	48 8d 45 a0          	lea    -0x60(%rbp),%rax
    55b6:	48 89 c7             	mov    %rax,%rdi
    55b9:	e8 d2 16 00 00       	call   6c90 <_ZNSt10lock_guardISt5mutexED1Ev>
    55be:	48 8d 45 c0          	lea    -0x40(%rbp),%rax
    55c2:	48 89 c7             	mov    %rax,%rdi
    55c5:	e8 26 e0 ff ff       	call   35f0 <_init+0x5f0>
    55ca:	48 8d 85 60 ff ff ff 	lea    -0xa0(%rbp),%rax
    55d1:	48 89 c7             	mov    %rax,%rdi
    55d4:	e8 4b 16 00 00       	call   6c24 <_ZN9__gnu_cxx17__normal_iteratorIPSt3mapINSt7__cxx1112basic_stringIcSt11char_traitsIcESaIcEEES7_St4lessIS7_ESaISt4pairIKS7_S7_EEESt6vectorISE_SaISE_EEEppEv>
    55d9:	e9 15 ff ff ff       	jmp    54f3 <main._omp_fn.0+0x101>
    55de:	8b 85 44 ff ff ff    	mov    -0xbc(%rbp),%eax
    55e4:	48 63 d8             	movslq %eax,%rbx
    55e7:	48 8b 85 38 ff ff ff 	mov    -0xc8(%rbp),%rax
    55ee:	48 8b 00             	mov    (%rax),%rax
    55f1:	48 89 c7             	mov    %rax,%rdi
    55f4:	e8 c7 14 00 00       	call   6ac0 <_ZNKSt6vectorINSt7__cxx1112basic_stringIcSt11char_traitsIcESaIcEEESaIS5_EE4sizeEv>
    55f9:	48 29 c3             	sub    %rax,%rbx
    55fc:	48 89 da             	mov    %rbx,%rdx
    55ff:	48 8b 85 38 ff ff ff 	mov    -0xc8(%rbp),%rax
    5606:	48 8b 40 08          	mov    0x8(%rax),%rax
    560a:	48 89 d6             	mov    %rdx,%rsi
    560d:	48 89 c7             	mov    %rax,%rdi
    5610:	e8 d3 14 00 00       	call   6ae8 <_ZNSt6vectorINSt7__cxx1112basic_stringIcSt11char_traitsIcESaIcEEESaIS5_EEixEm>
    5615:	48 89 c2             	mov    %rax,%rdx
    5618:	48 8d 45 c0          	lea    -0x40(%rbp),%rax
    561c:	48 89 d6             	mov    %rdx,%rsi
    561f:	48 89 c7             	mov    %rax,%rdi
    5622:	e8 79 df ff ff       	call   35a0 <_init+0x5a0>
    5627:	48 8d 05 69 6c 00 00 	lea    0x6c69(%rip),%rax        # c297 <_ZSt12__is_ratio_vISt5ratioILl1000000000ELl1EEE+0x1>
    562e:	48 89 c6             	mov    %rax,%rsi
    5631:	48 8d 05 08 ba 00 00 	lea    0xba08(%rip),%rax        # 11040 <_ZSt4cout@GLIBCXX_3.4>
    5638:	48 89 c7             	mov    %rax,%rdi
    563b:	e8 90 e0 ff ff       	call   36d0 <_init+0x6d0>
    5640:	48 89 c2             	mov    %rax,%rdx
    5643:	8b 85 4c ff ff ff    	mov    -0xb4(%rbp),%eax
    5649:	89 c6                	mov    %eax,%esi
    564b:	48 89 d7             	mov    %rdx,%rdi
    564e:	e8 ad e2 ff ff       	call   3900 <_init+0x900>
    5653:	48 89 c2             	mov    %rax,%rdx
    5656:	48 8d 05 4b 6c 00 00 	lea    0x6c4b(%rip),%rax        # c2a8 <_ZSt12__is_ratio_vISt5ratioILl1000000000ELl1EEE+0x12>
    565d:	48 89 c6             	mov    %rax,%rsi
    5660:	48 89 d7             	mov    %rdx,%rdi
    5663:	e8 68 e0 ff ff       	call   36d0 <_init+0x6d0>
    5668:	48 89 c2             	mov    %rax,%rdx
    566b:	48 8d 45 c0          	lea    -0x40(%rbp),%rax
    566f:	48 89 c6             	mov    %rax,%rsi
    5672:	48 89 d7             	mov    %rdx,%rdi
    5675:	e8 26 e0 ff ff       	call   36a0 <_init+0x6a0>
    567a:	48 8b 15 57 b9 00 00 	mov    0xb957(%rip),%rdx        # 10fd8 <_ZSt4endlIcSt11char_traitsIcEERSt13basic_ostreamIT_T0_ES6_@GLIBCXX_3.4>
    5681:	48 89 d6             	mov    %rdx,%rsi
    5684:	48 89 c7             	mov    %rax,%rdi
    5687:	e8 a4 e0 ff ff       	call   3730 <_init+0x730>
    568c:	48 8d 45 a0          	lea    -0x60(%rbp),%rax
    5690:	48 8d 55 c0          	lea    -0x40(%rbp),%rdx
    5694:	48 89 d6             	mov    %rdx,%rsi
    5697:	48 89 c7             	mov    %rax,%rdi
    569a:	e8 c9 f4 ff ff       	call   4b68 <_Z25ejecutarMainScraperConURLRKNSt7__cxx1112basic_stringIcSt11char_traitsIcESaIcEEE>
    569f:	48 8d 55 a0          	lea    -0x60(%rbp),%rdx
    56a3:	48 8d 45 80          	lea    -0x80(%rbp),%rax
    56a7:	48 89 d6             	mov    %rdx,%rsi
    56aa:	48 89 c7             	mov    %rax,%rdi
    56ad:	e8 5a 14 00 00       	call   6b0c <_ZNSt6vectorISt3mapINSt7__cxx1112basic_stringIcSt11char_traitsIcESaIcEEES6_St4lessIS6_ESaISt4pairIKS6_S6_EEESaISD_EEaSEOSF_>
    56b2:	48 8d 45 a0          	lea    -0x60(%rbp),%rax
    56b6:	48 89 c7             	mov    %rax,%rdi
    56b9:	e8 26 07 00 00       	call   5de4 <_ZNSt6vectorISt3mapINSt7__cxx1112basic_stringIcSt11char_traitsIcESaIcEEES6_St4lessIS6_ESaISt4pairIKS6_S6_EEESaISD_EED1Ev>
    56be:	48 8d 45 c0          	lea    -0x40(%rbp),%rax
    56c2:	48 89 c7             	mov    %rax,%rdi
    56c5:	e8 26 df ff ff       	call   35f0 <_init+0x5f0>
    56ca:	e9 ec fd ff ff       	jmp    54bb <main._omp_fn.0+0xc9>
    56cf:	48 8d 05 c1 6b 00 00 	lea    0x6bc1(%rip),%rax        # c297 <_ZSt12__is_ratio_vISt5ratioILl1000000000ELl1EEE+0x1>
    56d6:	48 89 c6             	mov    %rax,%rsi
    56d9:	48 8d 05 60 b9 00 00 	lea    0xb960(%rip),%rax        # 11040 <_ZSt4cout@GLIBCXX_3.4>
    56e0:	48 89 c7             	mov    %rax,%rdi
    56e3:	e8 e8 df ff ff       	call   36d0 <_init+0x6d0>
    56e8:	48 89 c2             	mov    %rax,%rdx
    56eb:	8b 85 4c ff ff ff    	mov    -0xb4(%rbp),%eax
    56f1:	89 c6                	mov    %eax,%esi
    56f3:	48 89 d7             	mov    %rdx,%rdi
    56f6:	e8 05 e2 ff ff       	call   3900 <_init+0x900>
    56fb:	48 89 c2             	mov    %rax,%rdx
    56fe:	48 8d 05 ca 6b 00 00 	lea    0x6bca(%rip),%rax        # c2cf <_ZSt12__is_ratio_vISt5ratioILl1000000000ELl1EEE+0x39>
    5705:	48 89 c6             	mov    %rax,%rsi
    5708:	48 89 d7             	mov    %rdx,%rdi
    570b:	e8 c0 df ff ff       	call   36d0 <_init+0x6d0>
    5710:	48 89 c3             	mov    %rax,%rbx
    5713:	8b 85 44 ff ff ff    	mov    -0xbc(%rbp),%eax
    5719:	48 63 d0             	movslq %eax,%rdx
    571c:	48 8b 85 38 ff ff ff 	mov    -0xc8(%rbp),%rax
    5723:	48 8b 00             	mov    (%rax),%rax
    5726:	48 89 d6             	mov    %rdx,%rsi
    5729:	48 89 c7             	mov    %rax,%rdi
    572c:	e8 b7 13 00 00       	call   6ae8 <_ZNSt6vectorINSt7__cxx1112basic_stringIcSt11char_traitsIcESaIcEEESaIS5_EEixEm>
    5731:	48 89 c6             	mov    %rax,%rsi
    5734:	48 89 df             	mov    %rbx,%rdi
    5737:	e8 64 df ff ff       	call   36a0 <_init+0x6a0>
    573c:	48 8b 15 95 b8 00 00 	mov    0xb895(%rip),%rdx        # 10fd8 <_ZSt4endlIcSt11char_traitsIcEERSt13basic_ostreamIT_T0_ES6_@GLIBCXX_3.4>
    5743:	48 89 d6             	mov    %rdx,%rsi
    5746:	48 89 c7             	mov    %rax,%rdi
    5749:	e8 e2 df ff ff       	call   3730 <_init+0x730>
    574e:	8b 85 44 ff ff ff    	mov    -0xbc(%rbp),%eax
    5754:	48 63 d0             	movslq %eax,%rdx
    5757:	48 8b 85 38 ff ff ff 	mov    -0xc8(%rbp),%rax
    575e:	48 8b 00             	mov    (%rax),%rax
    5761:	48 89 d6             	mov    %rdx,%rsi
    5764:	48 89 c7             	mov    %rax,%rdi
    5767:	e8 7c 13 00 00       	call   6ae8 <_ZNSt6vectorINSt7__cxx1112basic_stringIcSt11char_traitsIcESaIcEEESaIS5_EEixEm>
    576c:	48 89 c2             	mov    %rax,%rdx
    576f:	48 8d 45 a0          	lea    -0x60(%rbp),%rax
    5773:	48 89 d6             	mov    %rdx,%rsi
    5776:	48 89 c7             	mov    %rax,%rdi
    5779:	e8 f2 ee ff ff       	call   4670 <_Z15ejecutarScraperRKNSt7__cxx1112basic_stringIcSt11char_traitsIcESaIcEEE>
    577e:	48 8d 55 a0          	lea    -0x60(%rbp),%rdx
    5782:	48 8d 45 80          	lea    -0x80(%rbp),%rax
    5786:	48 89 d6             	mov    %rdx,%rsi
    5789:	48 89 c7             	mov    %rax,%rdi
    578c:	e8 7b 13 00 00       	call   6b0c <_ZNSt6vectorISt3mapINSt7__cxx1112basic_stringIcSt11char_traitsIcESaIcEEES6_St4lessIS6_ESaISt4pairIKS6_S6_EEESaISD_EEaSEOSF_>
    5791:	48 8d 45 a0          	lea    -0x60(%rbp),%rax
    5795:	48 89 c7             	mov    %rax,%rdi
    5798:	e8 47 06 00 00       	call   5de4 <_ZNSt6vectorISt3mapINSt7__cxx1112basic_stringIcSt11char_traitsIcESaIcEEES6_St4lessIS6_ESaISt4pairIKS6_S6_EEESaISD_EED1Ev>
    579d:	e9 19 fd ff ff       	jmp    54bb <main._omp_fn.0+0xc9>
    57a2:	e8 19 de ff ff       	call   35c0 <_init+0x5c0>
    57a7:	48 8b 45 e8          	mov    -0x18(%rbp),%rax
    57ab:	64 48 2b 04 25 28 00 	sub    %fs:0x28,%rax
    57b2:	00 00 
    57b4:	74 05                	je     57bb <main._omp_fn.0+0x3c9>
    57b6:	e8 c5 df ff ff       	call   3780 <_init+0x780>
    57bb:	48 81 c4 c0 00 00 00 	add    $0xc0,%rsp
    57c2:	5b                   	pop    %rbx
    57c3:	41 5c                	pop    %r12
    57c5:	5d                   	pop    %rbp
    57c6:	c3                   	ret    

00000000000057c7 <_ZSt23__is_constant_evaluatedv>:
    57c7:	f3 0f 1e fa          	endbr64 
    57cb:	55                   	push   %rbp
    57cc:	48 89 e5             	mov    %rsp,%rbp
    57cf:	b8 00 00 00 00       	mov    $0x0,%eax
    57d4:	5d                   	pop    %rbp
    57d5:	c3                   	ret    

00000000000057d6 <_ZnwmPv>:
    57d6:	f3 0f 1e fa          	endbr64 
    57da:	55                   	push   %rbp
    57db:	48 89 e5             	mov    %rsp,%rbp
    57de:	48 89 7d f8          	mov    %rdi,-0x8(%rbp)
    57e2:	48 89 75 f0          	mov    %rsi,-0x10(%rbp)
    57e6:	48 8b 45 f0          	mov    -0x10(%rbp),%rax
    57ea:	5d                   	pop    %rbp
    57eb:	c3                   	ret    

00000000000057ec <_ZdlPvS_>:
    57ec:	f3 0f 1e fa          	endbr64 
    57f0:	55                   	push   %rbp
    57f1:	48 89 e5             	mov    %rsp,%rbp
    57f4:	48 89 7d f8          	mov    %rdi,-0x8(%rbp)
    57f8:	48 89 75 f0          	mov    %rsi,-0x10(%rbp)
    57fc:	90                   	nop
    57fd:	5d                   	pop    %rbp
    57fe:	c3                   	ret    

00000000000057ff <_ZNSt11char_traitsIcE6lengthEPKc>:
    57ff:	f3 0f 1e fa          	endbr64 
    5803:	55                   	push   %rbp
    5804:	48 89 e5             	mov    %rsp,%rbp
    5807:	48 83 ec 10          	sub    $0x10,%rsp
    580b:	48 89 7d f8          	mov    %rdi,-0x8(%rbp)
    580f:	e8 b3 ff ff ff       	call   57c7 <_ZSt23__is_constant_evaluatedv>
    5814:	84 c0                	test   %al,%al
    5816:	74 0e                	je     5826 <_ZNSt11char_traitsIcE6lengthEPKc+0x27>
    5818:	48 8b 45 f8          	mov    -0x8(%rbp),%rax
    581c:	48 89 c7             	mov    %rax,%rdi
    581f:	e8 22 04 00 00       	call   5c46 <_ZN9__gnu_cxx11char_traitsIcE6lengthEPKc>
    5824:	eb 0d                	jmp    5833 <_ZNSt11char_traitsIcE6lengthEPKc+0x34>
    5826:	48 8b 45 f8          	mov    -0x8(%rbp),%rax
    582a:	48 89 c7             	mov    %rax,%rdi
    582d:	e8 7e dd ff ff       	call   35b0 <_init+0x5b0>
    5832:	90                   	nop
    5833:	c9                   	leave  
    5834:	c3                   	ret    

0000000000005835 <_ZL20__gthread_mutex_lockP15pthread_mutex_t>:
    5835:	55                   	push   %rbp
    5836:	48 89 e5             	mov    %rsp,%rbp
    5839:	48 83 ec 10          	sub    $0x10,%rsp
    583d:	48 89 7d f8          	mov    %rdi,-0x8(%rbp)
    5841:	e8 24 e2 ff ff       	call   3a6a <_ZL18__gthread_active_pv>
    5846:	85 c0                	test   %eax,%eax
    5848:	0f 95 c0             	setne  %al
    584b:	84 c0                	test   %al,%al
    584d:	74 0e                	je     585d <_ZL20__gthread_mutex_lockP15pthread_mutex_t+0x28>
    584f:	48 8b 45 f8          	mov    -0x8(%rbp),%rax
    5853:	48 89 c7             	mov    %rax,%rdi
    5856:	e8 f5 df ff ff       	call   3850 <_init+0x850>
    585b:	eb 05                	jmp    5862 <_ZL20__gthread_mutex_lockP15pthread_mutex_t+0x2d>
    585d:	b8 00 00 00 00       	mov    $0x0,%eax
    5862:	c9                   	leave  
    5863:	c3                   	ret    

0000000000005864 <_ZL22__gthread_mutex_unlockP15pthread_mutex_t>:
    5864:	55                   	push   %rbp
    5865:	48 89 e5             	mov    %rsp,%rbp
    5868:	48 83 ec 10          	sub    $0x10,%rsp
    586c:	48 89 7d f8          	mov    %rdi,-0x8(%rbp)
    5870:	e8 f5 e1 ff ff       	call   3a6a <_ZL18__gthread_active_pv>
    5875:	85 c0                	test   %eax,%eax
    5877:	0f 95 c0             	setne  %al
    587a:	84 c0                	test   %al,%al
    587c:	74 0e                	je     588c <_ZL22__gthread_mutex_unlockP15pthread_mutex_t+0x28>
    587e:	48 8b 45 f8          	mov    -0x8(%rbp),%rax
    5882:	48 89 c7             	mov    %rax,%rdi
    5885:	e8 d6 dd ff ff       	call   3660 <_init+0x660>
    588a:	eb 05                	jmp    5891 <_ZL22__gthread_mutex_unlockP15pthread_mutex_t+0x2d>
    588c:	b8 00 00 00 00       	mov    $0x0,%eax
    5891:	c9                   	leave  
    5892:	c3                   	ret    
    5893:	90                   	nop

0000000000005894 <_ZNSt5mutex4lockEv>:
    5894:	f3 0f 1e fa          	endbr64 
    5898:	55                   	push   %rbp
    5899:	48 89 e5             	mov    %rsp,%rbp
    589c:	48 83 ec 20          	sub    $0x20,%rsp
    58a0:	48 89 7d e8          	mov    %rdi,-0x18(%rbp)
    58a4:	48 8b 45 e8          	mov    -0x18(%rbp),%rax
    58a8:	48 89 c7             	mov    %rax,%rdi
    58ab:	e8 85 ff ff ff       	call   5835 <_ZL20__gthread_mutex_lockP15pthread_mutex_t>
    58b0:	89 45 fc             	mov    %eax,-0x4(%rbp)
    58b3:	83 7d fc 00          	cmpl   $0x0,-0x4(%rbp)
    58b7:	74 0a                	je     58c3 <_ZNSt5mutex4lockEv+0x2f>
    58b9:	8b 45 fc             	mov    -0x4(%rbp),%eax
    58bc:	89 c7                	mov    %eax,%edi
    58be:	e8 4d dd ff ff       	call   3610 <_init+0x610>
    58c3:	90                   	nop
    58c4:	c9                   	leave  
    58c5:	c3                   	ret    

00000000000058c6 <_ZNSt5mutex6unlockEv>:
    58c6:	f3 0f 1e fa          	endbr64 
    58ca:	55                   	push   %rbp
    58cb:	48 89 e5             	mov    %rsp,%rbp
    58ce:	48 83 ec 10          	sub    $0x10,%rsp
    58d2:	48 89 7d f8          	mov    %rdi,-0x8(%rbp)
    58d6:	48 8b 45 f8          	mov    -0x8(%rbp),%rax
    58da:	48 89 c7             	mov    %rax,%rdi
    58dd:	e8 82 ff ff ff       	call   5864 <_ZL22__gthread_mutex_unlockP15pthread_mutex_t>
    58e2:	90                   	nop
    58e3:	c9                   	leave  
    58e4:	c3                   	ret    

00000000000058e5 <_ZNSt18_Rb_tree_node_base10_S_minimumEPS_>:
    58e5:	f3 0f 1e fa          	endbr64 
    58e9:	55                   	push   %rbp
    58ea:	48 89 e5             	mov    %rsp,%rbp
    58ed:	48 89 7d f8          	mov    %rdi,-0x8(%rbp)
    58f1:	eb 0c                	jmp    58ff <_ZNSt18_Rb_tree_node_base10_S_minimumEPS_+0x1a>
    58f3:	48 8b 45 f8          	mov    -0x8(%rbp),%rax
    58f7:	48 8b 40 10          	mov    0x10(%rax),%rax
    58fb:	48 89 45 f8          	mov    %rax,-0x8(%rbp)
    58ff:	48 8b 45 f8          	mov    -0x8(%rbp),%rax
    5903:	48 8b 40 10          	mov    0x10(%rax),%rax
    5907:	48 85 c0             	test   %rax,%rax
    590a:	75 e7                	jne    58f3 <_ZNSt18_Rb_tree_node_base10_S_minimumEPS_+0xe>
    590c:	48 8b 45 f8          	mov    -0x8(%rbp),%rax
    5910:	5d                   	pop    %rbp
    5911:	c3                   	ret    

0000000000005912 <_ZNSt18_Rb_tree_node_base10_S_maximumEPS_>:
    5912:	f3 0f 1e fa          	endbr64 
    5916:	55                   	push   %rbp
    5917:	48 89 e5             	mov    %rsp,%rbp
    591a:	48 89 7d f8          	mov    %rdi,-0x8(%rbp)
    591e:	eb 0c                	jmp    592c <_ZNSt18_Rb_tree_node_base10_S_maximumEPS_+0x1a>
    5920:	48 8b 45 f8          	mov    -0x8(%rbp),%rax
    5924:	48 8b 40 18          	mov    0x18(%rax),%rax
    5928:	48 89 45 f8          	mov    %rax,-0x8(%rbp)
    592c:	48 8b 45 f8          	mov    -0x8(%rbp),%rax
    5930:	48 8b 40 18          	mov    0x18(%rax),%rax
    5934:	48 85 c0             	test   %rax,%rax
    5937:	75 e7                	jne    5920 <_ZNSt18_Rb_tree_node_base10_S_maximumEPS_+0xe>
    5939:	48 8b 45 f8          	mov    -0x8(%rbp),%rax
    593d:	5d                   	pop    %rbp
    593e:	c3                   	ret    
    593f:	90                   	nop

0000000000005940 <_ZNSt15_Rb_tree_headerC1Ev>:
    5940:	f3 0f 1e fa          	endbr64 
    5944:	55                   	push   %rbp
    5945:	48 89 e5             	mov    %rsp,%rbp
    5948:	48 83 ec 10          	sub    $0x10,%rsp
    594c:	48 89 7d f8          	mov    %rdi,-0x8(%rbp)
    5950:	48 8b 45 f8          	mov    -0x8(%rbp),%rax
    5954:	c7 00 00 00 00 00    	movl   $0x0,(%rax)
    595a:	48 8b 45 f8          	mov    -0x8(%rbp),%rax
    595e:	48 89 c7             	mov    %rax,%rdi
    5961:	e8 d4 00 00 00       	call   5a3a <_ZNSt15_Rb_tree_header8_M_resetEv>
    5966:	90                   	nop
    5967:	c9                   	leave  
    5968:	c3                   	ret    
    5969:	90                   	nop

000000000000596a <_ZNSt15_Rb_tree_headerC1EOS_>:
    596a:	f3 0f 1e fa          	endbr64 
    596e:	55                   	push   %rbp
    596f:	48 89 e5             	mov    %rsp,%rbp
    5972:	48 83 ec 10          	sub    $0x10,%rsp
    5976:	48 89 7d f8          	mov    %rdi,-0x8(%rbp)
    597a:	48 89 75 f0          	mov    %rsi,-0x10(%rbp)
    597e:	48 8b 45 f0          	mov    -0x10(%rbp),%rax
    5982:	48 8b 40 08          	mov    0x8(%rax),%rax
    5986:	48 85 c0             	test   %rax,%rax
    5989:	74 15                	je     59a0 <_ZNSt15_Rb_tree_headerC1EOS_+0x36>
    598b:	48 8b 55 f0          	mov    -0x10(%rbp),%rdx
    598f:	48 8b 45 f8          	mov    -0x8(%rbp),%rax
    5993:	48 89 d6             	mov    %rdx,%rsi
    5996:	48 89 c7             	mov    %rax,%rdi
    5999:	e8 1c 00 00 00       	call   59ba <_ZNSt15_Rb_tree_header12_M_move_dataERS_>
    599e:	eb 16                	jmp    59b6 <_ZNSt15_Rb_tree_headerC1EOS_+0x4c>
    59a0:	48 8b 45 f8          	mov    -0x8(%rbp),%rax
    59a4:	c7 00 00 00 00 00    	movl   $0x0,(%rax)
    59aa:	48 8b 45 f8          	mov    -0x8(%rbp),%rax
    59ae:	48 89 c7             	mov    %rax,%rdi
    59b1:	e8 84 00 00 00       	call   5a3a <_ZNSt15_Rb_tree_header8_M_resetEv>
    59b6:	90                   	nop
    59b7:	c9                   	leave  
    59b8:	c3                   	ret    
    59b9:	90                   	nop

00000000000059ba <_ZNSt15_Rb_tree_header12_M_move_dataERS_>:
    59ba:	f3 0f 1e fa          	endbr64 
    59be:	55                   	push   %rbp
    59bf:	48 89 e5             	mov    %rsp,%rbp
    59c2:	48 83 ec 10          	sub    $0x10,%rsp
    59c6:	48 89 7d f8          	mov    %rdi,-0x8(%rbp)
    59ca:	48 89 75 f0          	mov    %rsi,-0x10(%rbp)
    59ce:	48 8b 45 f0          	mov    -0x10(%rbp),%rax
    59d2:	8b 10                	mov    (%rax),%edx
    59d4:	48 8b 45 f8          	mov    -0x8(%rbp),%rax
    59d8:	89 10                	mov    %edx,(%rax)
    59da:	48 8b 45 f0          	mov    -0x10(%rbp),%rax
    59de:	48 8b 50 08          	mov    0x8(%rax),%rdx
    59e2:	48 8b 45 f8          	mov    -0x8(%rbp),%rax
    59e6:	48 89 50 08          	mov    %rdx,0x8(%rax)
    59ea:	48 8b 45 f0          	mov    -0x10(%rbp),%rax
    59ee:	48 8b 50 10          	mov    0x10(%rax),%rdx
    59f2:	48 8b 45 f8          	mov    -0x8(%rbp),%rax
    59f6:	48 89 50 10          	mov    %rdx,0x10(%rax)
    59fa:	48 8b 45 f0          	mov    -0x10(%rbp),%rax
    59fe:	48 8b 50 18          	mov    0x18(%rax),%rdx
    5a02:	48 8b 45 f8          	mov    -0x8(%rbp),%rax
    5a06:	48 89 50 18          	mov    %rdx,0x18(%rax)
    5a0a:	48 8b 45 f8          	mov    -0x8(%rbp),%rax
    5a0e:	48 8b 40 08          	mov    0x8(%rax),%rax
    5a12:	48 8b 55 f8          	mov    -0x8(%rbp),%rdx
    5a16:	48 89 50 08          	mov    %rdx,0x8(%rax)
    5a1a:	48 8b 45 f0          	mov    -0x10(%rbp),%rax
    5a1e:	48 8b 50 20          	mov    0x20(%rax),%rdx
    5a22:	48 8b 45 f8          	mov    -0x8(%rbp),%rax
    5a26:	48 89 50 20          	mov    %rdx,0x20(%rax)
    5a2a:	48 8b 45 f0          	mov    -0x10(%rbp),%rax
    5a2e:	48 89 c7             	mov    %rax,%rdi
    5a31:	e8 04 00 00 00       	call   5a3a <_ZNSt15_Rb_tree_header8_M_resetEv>
    5a36:	90                   	nop
    5a37:	c9                   	leave  
    5a38:	c3                   	ret    
    5a39:	90                   	nop

0000000000005a3a <_ZNSt15_Rb_tree_header8_M_resetEv>:
    5a3a:	f3 0f 1e fa          	endbr64 
    5a3e:	55                   	push   %rbp
    5a3f:	48 89 e5             	mov    %rsp,%rbp
    5a42:	48 89 7d f8          	mov    %rdi,-0x8(%rbp)
    5a46:	48 8b 45 f8          	mov    -0x8(%rbp),%rax
    5a4a:	48 c7 40 08 00 00 00 	movq   $0x0,0x8(%rax)
    5a51:	00 
    5a52:	48 8b 55 f8          	mov    -0x8(%rbp),%rdx
    5a56:	48 8b 45 f8          	mov    -0x8(%rbp),%rax
    5a5a:	48 89 50 10          	mov    %rdx,0x10(%rax)
    5a5e:	48 8b 55 f8          	mov    -0x8(%rbp),%rdx
    5a62:	48 8b 45 f8          	mov    -0x8(%rbp),%rax
    5a66:	48 89 50 18          	mov    %rdx,0x18(%rax)
    5a6a:	48 8b 45 f8          	mov    -0x8(%rbp),%rax
    5a6e:	48 c7 40 20 00 00 00 	movq   $0x0,0x20(%rax)
    5a75:	00 
    5a76:	90                   	nop
    5a77:	5d                   	pop    %rbp
    5a78:	c3                   	ret    
    5a79:	90                   	nop

0000000000005a7a <_ZNSt12_Vector_baseISt3mapINSt7__cxx1112basic_stringIcSt11char_traitsIcESaIcEEES6_St4lessIS6_ESaISt4pairIKS6_S6_EEESaISD_EE12_Vector_implD1Ev>:
    5a7a:	f3 0f 1e fa          	endbr64 
    5a7e:	55                   	push   %rbp
    5a7f:	48 89 e5             	mov    %rsp,%rbp
    5a82:	48 83 ec 20          	sub    $0x20,%rsp
    5a86:	48 89 7d e8          	mov    %rdi,-0x18(%rbp)
    5a8a:	48 8b 45 e8          	mov    -0x18(%rbp),%rax
    5a8e:	48 89 45 f8          	mov    %rax,-0x8(%rbp)
    5a92:	48 8b 45 f8          	mov    -0x8(%rbp),%rax
    5a96:	48 89 c7             	mov    %rax,%rdi
    5a99:	e8 06 14 00 00       	call   6ea4 <_ZNSt15__new_allocatorISt3mapINSt7__cxx1112basic_stringIcSt11char_traitsIcESaIcEEES6_St4lessIS6_ESaISt4pairIKS6_S6_EEEED1Ev>
    5a9e:	90                   	nop
    5a9f:	90                   	nop
    5aa0:	c9                   	leave  
    5aa1:	c3                   	ret    

0000000000005aa2 <_ZNSt12_Vector_baseISt3mapINSt7__cxx1112basic_stringIcSt11char_traitsIcESaIcEEES6_St4lessIS6_ESaISt4pairIKS6_S6_EEESaISD_EEC1Ev>:
    5aa2:	f3 0f 1e fa          	endbr64 
    5aa6:	55                   	push   %rbp
    5aa7:	48 89 e5             	mov    %rsp,%rbp
    5aaa:	48 83 ec 10          	sub    $0x10,%rsp
    5aae:	48 89 7d f8          	mov    %rdi,-0x8(%rbp)
    5ab2:	48 8b 45 f8          	mov    -0x8(%rbp),%rax
    5ab6:	48 89 c7             	mov    %rax,%rdi
    5ab9:	e8 98 02 00 00       	call   5d56 <_ZNSt12_Vector_baseISt3mapINSt7__cxx1112basic_stringIcSt11char_traitsIcESaIcEEES6_St4lessIS6_ESaISt4pairIKS6_S6_EEESaISD_EE12_Vector_implC1Ev>
    5abe:	90                   	nop
    5abf:	c9                   	leave  
    5ac0:	c3                   	ret    
    5ac1:	90                   	nop

0000000000005ac2 <_ZNSt6vectorISt3mapINSt7__cxx1112basic_stringIcSt11char_traitsIcESaIcEEES6_St4lessIS6_ESaISt4pairIKS6_S6_EEESaISD_EEC1Ev>:
    5ac2:	f3 0f 1e fa          	endbr64 
    5ac6:	55                   	push   %rbp
    5ac7:	48 89 e5             	mov    %rsp,%rbp
    5aca:	48 83 ec 10          	sub    $0x10,%rsp
    5ace:	48 89 7d f8          	mov    %rdi,-0x8(%rbp)
    5ad2:	48 8b 45 f8          	mov    -0x8(%rbp),%rax
    5ad6:	48 89 c7             	mov    %rax,%rdi
    5ad9:	e8 c4 ff ff ff       	call   5aa2 <_ZNSt12_Vector_baseISt3mapINSt7__cxx1112basic_stringIcSt11char_traitsIcESaIcEEES6_St4lessIS6_ESaISt4pairIKS6_S6_EEESaISD_EEC1Ev>
    5ade:	90                   	nop
    5adf:	c9                   	leave  
    5ae0:	c3                   	ret    
    5ae1:	90                   	nop

0000000000005ae2 <_ZNSt8_Rb_treeINSt7__cxx1112basic_stringIcSt11char_traitsIcESaIcEEESt4pairIKS5_S5_ESt10_Select1stIS8_ESt4lessIS5_ESaIS8_EE13_Rb_tree_implISC_Lb1EED1Ev>:
    5ae2:	f3 0f 1e fa          	endbr64 
    5ae6:	55                   	push   %rbp
    5ae7:	48 89 e5             	mov    %rsp,%rbp
    5aea:	48 83 ec 20          	sub    $0x20,%rsp
    5aee:	48 89 7d e8          	mov    %rdi,-0x18(%rbp)
    5af2:	48 8b 45 e8          	mov    -0x18(%rbp),%rax
    5af6:	48 89 45 f8          	mov    %rax,-0x8(%rbp)
    5afa:	48 8b 45 f8          	mov    -0x8(%rbp),%rax
    5afe:	48 89 c7             	mov    %rax,%rdi
    5b01:	e8 22 14 00 00       	call   6f28 <_ZNSt15__new_allocatorISt13_Rb_tree_nodeISt4pairIKNSt7__cxx1112basic_stringIcSt11char_traitsIcESaIcEEES7_EEED1Ev>
    5b06:	90                   	nop
    5b07:	90                   	nop
    5b08:	c9                   	leave  
    5b09:	c3                   	ret    

0000000000005b0a <_ZNSt8_Rb_treeINSt7__cxx1112basic_stringIcSt11char_traitsIcESaIcEEESt4pairIKS5_S5_ESt10_Select1stIS8_ESt4lessIS5_ESaIS8_EEC1Ev>:
    5b0a:	f3 0f 1e fa          	endbr64 
    5b0e:	55                   	push   %rbp
    5b0f:	48 89 e5             	mov    %rsp,%rbp
    5b12:	48 83 ec 10          	sub    $0x10,%rsp
    5b16:	48 89 7d f8          	mov    %rdi,-0x8(%rbp)
    5b1a:	48 8b 45 f8          	mov    -0x8(%rbp),%rax
    5b1e:	48 89 c7             	mov    %rax,%rdi
    5b21:	e8 18 03 00 00       	call   5e3e <_ZNSt8_Rb_treeINSt7__cxx1112basic_stringIcSt11char_traitsIcESaIcEEESt4pairIKS5_S5_ESt10_Select1stIS8_ESt4lessIS5_ESaIS8_EE13_Rb_tree_implISC_Lb1EEC1Ev>
    5b26:	90                   	nop
    5b27:	c9                   	leave  
    5b28:	c3                   	ret    
    5b29:	90                   	nop

0000000000005b2a <_ZNSt3mapINSt7__cxx1112basic_stringIcSt11char_traitsIcESaIcEEES5_St4lessIS5_ESaISt4pairIKS5_S5_EEEC1Ev>:
    5b2a:	f3 0f 1e fa          	endbr64 
    5b2e:	55                   	push   %rbp
    5b2f:	48 89 e5             	mov    %rsp,%rbp
    5b32:	48 83 ec 10          	sub    $0x10,%rsp
    5b36:	48 89 7d f8          	mov    %rdi,-0x8(%rbp)
    5b3a:	48 8b 45 f8          	mov    -0x8(%rbp),%rax
    5b3e:	48 89 c7             	mov    %rax,%rdi
    5b41:	e8 c4 ff ff ff       	call   5b0a <_ZNSt8_Rb_treeINSt7__cxx1112basic_stringIcSt11char_traitsIcESaIcEEESt4pairIKS5_S5_ESt10_Select1stIS8_ESt4lessIS5_ESaIS8_EEC1Ev>
    5b46:	90                   	nop
    5b47:	c9                   	leave  
    5b48:	c3                   	ret    
    5b49:	90                   	nop

0000000000005b4a <_ZNSt3mapINSt7__cxx1112basic_stringIcSt11char_traitsIcESaIcEEES5_St4lessIS5_ESaISt4pairIKS5_S5_EEED1Ev>:
    5b4a:	f3 0f 1e fa          	endbr64 
    5b4e:	55                   	push   %rbp
    5b4f:	48 89 e5             	mov    %rsp,%rbp
    5b52:	48 83 ec 10          	sub    $0x10,%rsp
    5b56:	48 89 7d f8          	mov    %rdi,-0x8(%rbp)
    5b5a:	48 8b 45 f8          	mov    -0x8(%rbp),%rax
    5b5e:	48 89 c7             	mov    %rax,%rdi
    5b61:	e8 1a 03 00 00       	call   5e80 <_ZNSt8_Rb_treeINSt7__cxx1112basic_stringIcSt11char_traitsIcESaIcEEESt4pairIKS5_S5_ESt10_Select1stIS8_ESt4lessIS5_ESaIS8_EED1Ev>
    5b66:	90                   	nop
    5b67:	c9                   	leave  
    5b68:	c3                   	ret    
    5b69:	90                   	nop

0000000000005b6a <_ZNSt12_Vector_baseISt3mapINSt7__cxx1112basic_stringIcSt11char_traitsIcESaIcEEES6_St4lessIS6_ESaISt4pairIKS6_S6_EEESaISD_EEC1EOSF_>:
    5b6a:	f3 0f 1e fa          	endbr64 
    5b6e:	55                   	push   %rbp
    5b6f:	48 89 e5             	mov    %rsp,%rbp
    5b72:	48 83 ec 10          	sub    $0x10,%rsp
    5b76:	48 89 7d f8          	mov    %rdi,-0x8(%rbp)
    5b7a:	48 89 75 f0          	mov    %rsi,-0x10(%rbp)
    5b7e:	48 8b 45 f8          	mov    -0x8(%rbp),%rax
    5b82:	48 8b 55 f0          	mov    -0x10(%rbp),%rdx
    5b86:	48 89 d6             	mov    %rdx,%rsi
    5b89:	48 89 c7             	mov    %rax,%rdi
    5b8c:	e8 59 05 00 00       	call   60ea <_ZNSt12_Vector_baseISt3mapINSt7__cxx1112basic_stringIcSt11char_traitsIcESaIcEEES6_St4lessIS6_ESaISt4pairIKS6_S6_EEESaISD_EE12_Vector_implC1EOSG_>
    5b91:	90                   	nop
    5b92:	c9                   	leave  
    5b93:	c3                   	ret    

0000000000005b94 <_ZNSt6vectorISt3mapINSt7__cxx1112basic_stringIcSt11char_traitsIcESaIcEEES6_St4lessIS6_ESaISt4pairIKS6_S6_EEESaISD_EEC1EOSF_>:
    5b94:	f3 0f 1e fa          	endbr64 
    5b98:	55                   	push   %rbp
    5b99:	48 89 e5             	mov    %rsp,%rbp
    5b9c:	48 83 ec 10          	sub    $0x10,%rsp
    5ba0:	48 89 7d f8          	mov    %rdi,-0x8(%rbp)
    5ba4:	48 89 75 f0          	mov    %rsi,-0x10(%rbp)
    5ba8:	48 8b 45 f8          	mov    -0x8(%rbp),%rax
    5bac:	48 8b 55 f0          	mov    -0x10(%rbp),%rdx
    5bb0:	48 89 d6             	mov    %rdx,%rsi
    5bb3:	48 89 c7             	mov    %rax,%rdi
    5bb6:	e8 af ff ff ff       	call   5b6a <_ZNSt12_Vector_baseISt3mapINSt7__cxx1112basic_stringIcSt11char_traitsIcESaIcEEES6_St4lessIS6_ESaISt4pairIKS6_S6_EEESaISD_EEC1EOSF_>
    5bbb:	90                   	nop
    5bbc:	c9                   	leave  
    5bbd:	c3                   	ret    

0000000000005bbe <_ZNSt12_Vector_baseINSt7__cxx1112basic_stringIcSt11char_traitsIcESaIcEEESaIS5_EE12_Vector_implD1Ev>:
    5bbe:	f3 0f 1e fa          	endbr64 
    5bc2:	55                   	push   %rbp
    5bc3:	48 89 e5             	mov    %rsp,%rbp
    5bc6:	48 83 ec 20          	sub    $0x20,%rsp
    5bca:	48 89 7d e8          	mov    %rdi,-0x18(%rbp)
    5bce:	48 8b 45 e8          	mov    -0x18(%rbp),%rax
    5bd2:	48 89 45 f8          	mov    %rax,-0x8(%rbp)
    5bd6:	48 8b 45 f8          	mov    -0x8(%rbp),%rax
    5bda:	48 89 c7             	mov    %rax,%rdi
    5bdd:	e8 3a 1c 00 00       	call   781c <_ZNSt15__new_allocatorINSt7__cxx1112basic_stringIcSt11char_traitsIcESaIcEEEED1Ev>
    5be2:	90                   	nop
    5be3:	90                   	nop
    5be4:	c9                   	leave  
    5be5:	c3                   	ret    

0000000000005be6 <_ZNSt12_Vector_baseINSt7__cxx1112basic_stringIcSt11char_traitsIcESaIcEEESaIS5_EEC1Ev>:
    5be6:	f3 0f 1e fa          	endbr64 
    5bea:	55                   	push   %rbp
    5beb:	48 89 e5             	mov    %rsp,%rbp
    5bee:	48 83 ec 10          	sub    $0x10,%rsp
    5bf2:	48 89 7d f8          	mov    %rdi,-0x8(%rbp)
    5bf6:	48 8b 45 f8          	mov    -0x8(%rbp),%rax
    5bfa:	48 89 c7             	mov    %rax,%rdi
    5bfd:	e8 84 09 00 00       	call   6586 <_ZNSt12_Vector_baseINSt7__cxx1112basic_stringIcSt11char_traitsIcESaIcEEESaIS5_EE12_Vector_implC1Ev>
    5c02:	90                   	nop
    5c03:	c9                   	leave  
    5c04:	c3                   	ret    
    5c05:	90                   	nop

0000000000005c06 <_ZNSt6vectorINSt7__cxx1112basic_stringIcSt11char_traitsIcESaIcEEESaIS5_EEC1Ev>:
    5c06:	f3 0f 1e fa          	endbr64 
    5c0a:	55                   	push   %rbp
    5c0b:	48 89 e5             	mov    %rsp,%rbp
    5c0e:	48 83 ec 10          	sub    $0x10,%rsp
    5c12:	48 89 7d f8          	mov    %rdi,-0x8(%rbp)
    5c16:	48 8b 45 f8          	mov    -0x8(%rbp),%rax
    5c1a:	48 89 c7             	mov    %rax,%rdi
    5c1d:	e8 c4 ff ff ff       	call   5be6 <_ZNSt12_Vector_baseINSt7__cxx1112basic_stringIcSt11char_traitsIcESaIcEEESaIS5_EEC1Ev>
    5c22:	90                   	nop
    5c23:	c9                   	leave  
    5c24:	c3                   	ret    
    5c25:	90                   	nop

0000000000005c26 <_ZNSt3setINSt7__cxx1112basic_stringIcSt11char_traitsIcESaIcEEESt4lessIS5_ESaIS5_EED1Ev>:
    5c26:	f3 0f 1e fa          	endbr64 
    5c2a:	55                   	push   %rbp
    5c2b:	48 89 e5             	mov    %rsp,%rbp
    5c2e:	48 83 ec 10          	sub    $0x10,%rsp
    5c32:	48 89 7d f8          	mov    %rdi,-0x8(%rbp)
    5c36:	48 8b 45 f8          	mov    -0x8(%rbp),%rax
    5c3a:	48 89 c7             	mov    %rax,%rdi
    5c3d:	e8 40 0e 00 00       	call   6a82 <_ZNSt8_Rb_treeINSt7__cxx1112basic_stringIcSt11char_traitsIcESaIcEEES5_St9_IdentityIS5_ESt4lessIS5_ESaIS5_EED1Ev>
    5c42:	90                   	nop
    5c43:	c9                   	leave  
    5c44:	c3                   	ret    
    5c45:	90                   	nop

0000000000005c46 <_ZN9__gnu_cxx11char_traitsIcE6lengthEPKc>:
    5c46:	f3 0f 1e fa          	endbr64 
    5c4a:	55                   	push   %rbp
    5c4b:	48 89 e5             	mov    %rsp,%rbp
    5c4e:	48 83 ec 30          	sub    $0x30,%rsp
    5c52:	48 89 7d d8          	mov    %rdi,-0x28(%rbp)
    5c56:	64 48 8b 04 25 28 00 	mov    %fs:0x28,%rax
    5c5d:	00 00 
    5c5f:	48 89 45 f8          	mov    %rax,-0x8(%rbp)
    5c63:	31 c0                	xor    %eax,%eax
    5c65:	48 c7 45 f0 00 00 00 	movq   $0x0,-0x10(%rbp)
    5c6c:	00 
    5c6d:	eb 05                	jmp    5c74 <_ZN9__gnu_cxx11char_traitsIcE6lengthEPKc+0x2e>
    5c6f:	48 83 45 f0 01       	addq   $0x1,-0x10(%rbp)
    5c74:	c6 45 ef 00          	movb   $0x0,-0x11(%rbp)
    5c78:	48 8b 55 d8          	mov    -0x28(%rbp),%rdx
    5c7c:	48 8b 45 f0          	mov    -0x10(%rbp),%rax
    5c80:	48 01 c2             	add    %rax,%rdx
    5c83:	48 8d 45 ef          	lea    -0x11(%rbp),%rax
    5c87:	48 89 c6             	mov    %rax,%rsi
    5c8a:	48 89 d7             	mov    %rdx,%rdi
    5c8d:	e8 20 10 00 00       	call   6cb2 <_ZN9__gnu_cxx11char_traitsIcE2eqERKcS3_>
    5c92:	83 f0 01             	xor    $0x1,%eax
    5c95:	84 c0                	test   %al,%al
    5c97:	75 d6                	jne    5c6f <_ZN9__gnu_cxx11char_traitsIcE6lengthEPKc+0x29>
    5c99:	48 8b 45 f0          	mov    -0x10(%rbp),%rax
    5c9d:	48 8b 55 f8          	mov    -0x8(%rbp),%rdx
    5ca1:	64 48 2b 14 25 28 00 	sub    %fs:0x28,%rdx
    5ca8:	00 00 
    5caa:	74 05                	je     5cb1 <_ZN9__gnu_cxx11char_traitsIcE6lengthEPKc+0x6b>
    5cac:	e8 cf da ff ff       	call   3780 <_init+0x780>
    5cb1:	c9                   	leave  
    5cb2:	c3                   	ret    
    5cb3:	90                   	nop

0000000000005cb4 <_ZNSt7__cxx1112basic_stringIcSt11char_traitsIcESaIcEE12_Alloc_hiderD1Ev>:
    5cb4:	f3 0f 1e fa          	endbr64 
    5cb8:	55                   	push   %rbp
    5cb9:	48 89 e5             	mov    %rsp,%rbp
    5cbc:	48 83 ec 20          	sub    $0x20,%rsp
    5cc0:	48 89 7d e8          	mov    %rdi,-0x18(%rbp)
    5cc4:	48 8b 45 e8          	mov    -0x18(%rbp),%rax
    5cc8:	48 89 45 f8          	mov    %rax,-0x8(%rbp)
    5ccc:	48 8b 45 f8          	mov    -0x8(%rbp),%rax
    5cd0:	48 89 c7             	mov    %rax,%rdi
    5cd3:	e8 00 10 00 00       	call   6cd8 <_ZNSt15__new_allocatorIcED1Ev>
    5cd8:	90                   	nop
    5cd9:	90                   	nop
    5cda:	c9                   	leave  
    5cdb:	c3                   	ret    

0000000000005cdc <_ZN9__gnu_cxxneIPKcNSt7__cxx1112basic_stringIcSt11char_traitsIcESaIcEEEEEbRKNS_17__normal_iteratorIT_T0_EESE_>:
    5cdc:	f3 0f 1e fa          	endbr64 
    5ce0:	55                   	push   %rbp
    5ce1:	48 89 e5             	mov    %rsp,%rbp
    5ce4:	53                   	push   %rbx
    5ce5:	48 83 ec 18          	sub    $0x18,%rsp
    5ce9:	48 89 7d e8          	mov    %rdi,-0x18(%rbp)
    5ced:	48 89 75 e0          	mov    %rsi,-0x20(%rbp)
    5cf1:	48 8b 45 e8          	mov    -0x18(%rbp),%rax
    5cf5:	48 89 c7             	mov    %rax,%rdi
    5cf8:	e8 63 11 00 00       	call   6e60 <_ZNK9__gnu_cxx17__normal_iteratorIPKcNSt7__cxx1112basic_stringIcSt11char_traitsIcESaIcEEEE4baseEv>
    5cfd:	48 8b 18             	mov    (%rax),%rbx
    5d00:	48 8b 45 e0          	mov    -0x20(%rbp),%rax
    5d04:	48 89 c7             	mov    %rax,%rdi
    5d07:	e8 54 11 00 00       	call   6e60 <_ZNK9__gnu_cxx17__normal_iteratorIPKcNSt7__cxx1112basic_stringIcSt11char_traitsIcESaIcEEEE4baseEv>
    5d0c:	48 8b 00             	mov    (%rax),%rax
    5d0f:	48 39 c3             	cmp    %rax,%rbx
    5d12:	0f 95 c0             	setne  %al
    5d15:	48 8b 5d f8          	mov    -0x8(%rbp),%rbx
    5d19:	c9                   	leave  
    5d1a:	c3                   	ret    
    5d1b:	90                   	nop

0000000000005d1c <_ZN9__gnu_cxx17__normal_iteratorIPKcNSt7__cxx1112basic_stringIcSt11char_traitsIcESaIcEEEEppEv>:
    5d1c:	f3 0f 1e fa          	endbr64 
    5d20:	55                   	push   %rbp
    5d21:	48 89 e5             	mov    %rsp,%rbp
    5d24:	48 89 7d f8          	mov    %rdi,-0x8(%rbp)
    5d28:	48 8b 45 f8          	mov    -0x8(%rbp),%rax
    5d2c:	48 8b 00             	mov    (%rax),%rax
    5d2f:	48 8d 50 01          	lea    0x1(%rax),%rdx
    5d33:	48 8b 45 f8          	mov    -0x8(%rbp),%rax
    5d37:	48 89 10             	mov    %rdx,(%rax)
    5d3a:	48 8b 45 f8          	mov    -0x8(%rbp),%rax
    5d3e:	5d                   	pop    %rbp
    5d3f:	c3                   	ret    

0000000000005d40 <_ZNK9__gnu_cxx17__normal_iteratorIPKcNSt7__cxx1112basic_stringIcSt11char_traitsIcESaIcEEEEdeEv>:
    5d40:	f3 0f 1e fa          	endbr64 
    5d44:	55                   	push   %rbp
    5d45:	48 89 e5             	mov    %rsp,%rbp
    5d48:	48 89 7d f8          	mov    %rdi,-0x8(%rbp)
    5d4c:	48 8b 45 f8          	mov    -0x8(%rbp),%rax
    5d50:	48 8b 00             	mov    (%rax),%rax
    5d53:	5d                   	pop    %rbp
    5d54:	c3                   	ret    
    5d55:	90                   	nop

0000000000005d56 <_ZNSt12_Vector_baseISt3mapINSt7__cxx1112basic_stringIcSt11char_traitsIcESaIcEEES6_St4lessIS6_ESaISt4pairIKS6_S6_EEESaISD_EE12_Vector_implC1Ev>:
    5d56:	f3 0f 1e fa          	endbr64 
    5d5a:	55                   	push   %rbp
    5d5b:	48 89 e5             	mov    %rsp,%rbp
    5d5e:	48 83 ec 20          	sub    $0x20,%rsp
    5d62:	48 89 7d e8          	mov    %rdi,-0x18(%rbp)
    5d66:	48 8b 45 e8          	mov    -0x18(%rbp),%rax
    5d6a:	48 89 45 f0          	mov    %rax,-0x10(%rbp)
    5d6e:	48 8b 45 f0          	mov    -0x10(%rbp),%rax
    5d72:	48 89 45 f8          	mov    %rax,-0x8(%rbp)
    5d76:	90                   	nop
    5d77:	90                   	nop
    5d78:	48 8b 45 e8          	mov    -0x18(%rbp),%rax
    5d7c:	48 89 c7             	mov    %rax,%rdi
    5d7f:	e8 ee 10 00 00       	call   6e72 <_ZNSt12_Vector_baseISt3mapINSt7__cxx1112basic_stringIcSt11char_traitsIcESaIcEEES6_St4lessIS6_ESaISt4pairIKS6_S6_EEESaISD_EE17_Vector_impl_dataC1Ev>
    5d84:	90                   	nop
    5d85:	c9                   	leave  
    5d86:	c3                   	ret    
    5d87:	90                   	nop

0000000000005d88 <_ZNSt12_Vector_baseISt3mapINSt7__cxx1112basic_stringIcSt11char_traitsIcESaIcEEES6_St4lessIS6_ESaISt4pairIKS6_S6_EEESaISD_EED1Ev>:
    5d88:	f3 0f 1e fa          	endbr64 
    5d8c:	55                   	push   %rbp
    5d8d:	48 89 e5             	mov    %rsp,%rbp
    5d90:	48 83 ec 10          	sub    $0x10,%rsp
    5d94:	48 89 7d f8          	mov    %rdi,-0x8(%rbp)
    5d98:	48 8b 45 f8          	mov    -0x8(%rbp),%rax
    5d9c:	48 8b 50 10          	mov    0x10(%rax),%rdx
    5da0:	48 8b 45 f8          	mov    -0x8(%rbp),%rax
    5da4:	48 8b 00             	mov    (%rax),%rax
    5da7:	48 29 c2             	sub    %rax,%rdx
    5daa:	48 c1 fa 04          	sar    $0x4,%rdx
    5dae:	48 b8 ab aa aa aa aa 	movabs $0xaaaaaaaaaaaaaaab,%rax
    5db5:	aa aa aa 
    5db8:	48 0f af c2          	imul   %rdx,%rax
    5dbc:	48 89 c2             	mov    %rax,%rdx
    5dbf:	48 8b 45 f8          	mov    -0x8(%rbp),%rax
    5dc3:	48 8b 08             	mov    (%rax),%rcx
    5dc6:	48 8b 45 f8          	mov    -0x8(%rbp),%rax
    5dca:	48 89 ce             	mov    %rcx,%rsi
    5dcd:	48 89 c7             	mov    %rax,%rdi
    5dd0:	e8 df 10 00 00       	call   6eb4 <_ZNSt12_Vector_baseISt3mapINSt7__cxx1112basic_stringIcSt11char_traitsIcESaIcEEES6_St4lessIS6_ESaISt4pairIKS6_S6_EEESaISD_EE13_M_deallocateEPSD_m>
    5dd5:	48 8b 45 f8          	mov    -0x8(%rbp),%rax
    5dd9:	48 89 c7             	mov    %rax,%rdi
    5ddc:	e8 99 fc ff ff       	call   5a7a <_ZNSt12_Vector_baseISt3mapINSt7__cxx1112basic_stringIcSt11char_traitsIcESaIcEEES6_St4lessIS6_ESaISt4pairIKS6_S6_EEESaISD_EE12_Vector_implD1Ev>
    5de1:	90                   	nop
    5de2:	c9                   	leave  
    5de3:	c3                   	ret    

0000000000005de4 <_ZNSt6vectorISt3mapINSt7__cxx1112basic_stringIcSt11char_traitsIcESaIcEEES6_St4lessIS6_ESaISt4pairIKS6_S6_EEESaISD_EED1Ev>:
    5de4:	f3 0f 1e fa          	endbr64 
    5de8:	55                   	push   %rbp
    5de9:	48 89 e5             	mov    %rsp,%rbp
    5dec:	48 83 ec 30          	sub    $0x30,%rsp
    5df0:	48 89 7d d8          	mov    %rdi,-0x28(%rbp)
    5df4:	48 8b 45 d8          	mov    -0x28(%rbp),%rax
    5df8:	48 89 c7             	mov    %rax,%rdi
    5dfb:	e8 06 11 00 00       	call   6f06 <_ZNSt12_Vector_baseISt3mapINSt7__cxx1112basic_stringIcSt11char_traitsIcESaIcEEES6_St4lessIS6_ESaISt4pairIKS6_S6_EEESaISD_EE19_M_get_Tp_allocatorEv>
    5e00:	48 8b 55 d8          	mov    -0x28(%rbp),%rdx
    5e04:	48 8b 52 08          	mov    0x8(%rdx),%rdx
    5e08:	48 8b 4d d8          	mov    -0x28(%rbp),%rcx
    5e0c:	48 8b 09             	mov    (%rcx),%rcx
    5e0f:	48 89 4d e8          	mov    %rcx,-0x18(%rbp)
    5e13:	48 89 55 f0          	mov    %rdx,-0x10(%rbp)
    5e17:	48 89 45 f8          	mov    %rax,-0x8(%rbp)
    5e1b:	48 8b 55 f0          	mov    -0x10(%rbp),%rdx
    5e1f:	48 8b 45 e8          	mov    -0x18(%rbp),%rax
    5e23:	48 89 d6             	mov    %rdx,%rsi
    5e26:	48 89 c7             	mov    %rax,%rdi
    5e29:	e8 18 25 00 00       	call   8346 <_ZSt8_DestroyIPSt3mapINSt7__cxx1112basic_stringIcSt11char_traitsIcESaIcEEES6_St4lessIS6_ESaISt4pairIKS6_S6_EEEEvT_SF_>
    5e2e:	90                   	nop
    5e2f:	48 8b 45 d8          	mov    -0x28(%rbp),%rax
    5e33:	48 89 c7             	mov    %rax,%rdi
    5e36:	e8 4d ff ff ff       	call   5d88 <_ZNSt12_Vector_baseISt3mapINSt7__cxx1112basic_stringIcSt11char_traitsIcESaIcEEES6_St4lessIS6_ESaISt4pairIKS6_S6_EEESaISD_EED1Ev>
    5e3b:	90                   	nop
    5e3c:	c9                   	leave  
    5e3d:	c3                   	ret    

0000000000005e3e <_ZNSt8_Rb_treeINSt7__cxx1112basic_stringIcSt11char_traitsIcESaIcEEESt4pairIKS5_S5_ESt10_Select1stIS8_ESt4lessIS5_ESaIS8_EE13_Rb_tree_implISC_Lb1EEC1Ev>:
    5e3e:	f3 0f 1e fa          	endbr64 
    5e42:	55                   	push   %rbp
    5e43:	48 89 e5             	mov    %rsp,%rbp
    5e46:	48 83 ec 20          	sub    $0x20,%rsp
    5e4a:	48 89 7d e8          	mov    %rdi,-0x18(%rbp)
    5e4e:	48 8b 45 e8          	mov    -0x18(%rbp),%rax
    5e52:	48 89 45 f0          	mov    %rax,-0x10(%rbp)
    5e56:	48 8b 45 f0          	mov    -0x10(%rbp),%rax
    5e5a:	48 89 45 f8          	mov    %rax,-0x8(%rbp)
    5e5e:	90                   	nop
    5e5f:	90                   	nop
    5e60:	48 8b 45 e8          	mov    -0x18(%rbp),%rax
    5e64:	48 89 c7             	mov    %rax,%rdi
    5e67:	e8 ac 10 00 00       	call   6f18 <_ZNSt20_Rb_tree_key_compareISt4lessINSt7__cxx1112basic_stringIcSt11char_traitsIcESaIcEEEEEC1Ev>
    5e6c:	48 8b 45 e8          	mov    -0x18(%rbp),%rax
    5e70:	48 83 c0 08          	add    $0x8,%rax
    5e74:	48 89 c7             	mov    %rax,%rdi
    5e77:	e8 c4 fa ff ff       	call   5940 <_ZNSt15_Rb_tree_headerC1Ev>
    5e7c:	90                   	nop
    5e7d:	c9                   	leave  
    5e7e:	c3                   	ret    
    5e7f:	90                   	nop

0000000000005e80 <_ZNSt8_Rb_treeINSt7__cxx1112basic_stringIcSt11char_traitsIcESaIcEEESt4pairIKS5_S5_ESt10_Select1stIS8_ESt4lessIS5_ESaIS8_EED1Ev>:
    5e80:	f3 0f 1e fa          	endbr64 
    5e84:	55                   	push   %rbp
    5e85:	48 89 e5             	mov    %rsp,%rbp
    5e88:	48 83 ec 10          	sub    $0x10,%rsp
    5e8c:	48 89 7d f8          	mov    %rdi,-0x8(%rbp)
    5e90:	48 8b 45 f8          	mov    -0x8(%rbp),%rax
    5e94:	48 89 c7             	mov    %rax,%rdi
    5e97:	e8 06 11 00 00       	call   6fa2 <_ZNSt8_Rb_treeINSt7__cxx1112basic_stringIcSt11char_traitsIcESaIcEEESt4pairIKS5_S5_ESt10_Select1stIS8_ESt4lessIS5_ESaIS8_EE8_M_beginEv>
    5e9c:	48 89 c2             	mov    %rax,%rdx
    5e9f:	48 8b 45 f8          	mov    -0x8(%rbp),%rax
    5ea3:	48 89 d6             	mov    %rdx,%rsi
    5ea6:	48 89 c7             	mov    %rax,%rdi
    5ea9:	e8 8a 10 00 00       	call   6f38 <_ZNSt8_Rb_treeINSt7__cxx1112basic_stringIcSt11char_traitsIcESaIcEEESt4pairIKS5_S5_ESt10_Select1stIS8_ESt4lessIS5_ESaIS8_EE8_M_eraseEPSt13_Rb_tree_nodeIS8_E>
    5eae:	48 8b 45 f8          	mov    -0x8(%rbp),%rax
    5eb2:	48 89 c7             	mov    %rax,%rdi
    5eb5:	e8 28 fc ff ff       	call   5ae2 <_ZNSt8_Rb_treeINSt7__cxx1112basic_stringIcSt11char_traitsIcESaIcEEESt4pairIKS5_S5_ESt10_Select1stIS8_ESt4lessIS5_ESaIS8_EE13_Rb_tree_implISC_Lb1EED1Ev>
    5eba:	90                   	nop
    5ebb:	c9                   	leave  
    5ebc:	c3                   	ret    
    5ebd:	90                   	nop

0000000000005ebe <_ZNSt3mapINSt7__cxx1112basic_stringIcSt11char_traitsIcESaIcEEES5_St4lessIS5_ESaISt4pairIKS5_S5_EEEixERS9_>:
    5ebe:	f3 0f 1e fa          	endbr64 
    5ec2:	55                   	push   %rbp
    5ec3:	48 89 e5             	mov    %rsp,%rbp
    5ec6:	53                   	push   %rbx
    5ec7:	48 83 ec 48          	sub    $0x48,%rsp
    5ecb:	48 89 7d b8          	mov    %rdi,-0x48(%rbp)
    5ecf:	48 89 75 b0          	mov    %rsi,-0x50(%rbp)
    5ed3:	64 48 8b 04 25 28 00 	mov    %fs:0x28,%rax
    5eda:	00 00 
    5edc:	48 89 45 e8          	mov    %rax,-0x18(%rbp)
    5ee0:	31 c0                	xor    %eax,%eax
    5ee2:	48 8b 55 b0          	mov    -0x50(%rbp),%rdx
    5ee6:	48 8b 45 b8          	mov    -0x48(%rbp),%rax
    5eea:	48 89 d6             	mov    %rdx,%rsi
    5eed:	48 89 c7             	mov    %rax,%rdi
    5ef0:	e8 cb 10 00 00       	call   6fc0 <_ZNSt3mapINSt7__cxx1112basic_stringIcSt11char_traitsIcESaIcEEES5_St4lessIS5_ESaISt4pairIKS5_S5_EEE11lower_boundERS9_>
    5ef5:	48 89 45 d0          	mov    %rax,-0x30(%rbp)
    5ef9:	48 8b 45 b8          	mov    -0x48(%rbp),%rax
    5efd:	48 89 c7             	mov    %rax,%rdi
    5f00:	e8 e5 10 00 00       	call   6fea <_ZNSt3mapINSt7__cxx1112basic_stringIcSt11char_traitsIcESaIcEEES5_St4lessIS5_ESaISt4pairIKS5_S5_EEE3endEv>
    5f05:	48 89 45 e0          	mov    %rax,-0x20(%rbp)
    5f09:	48 8d 55 e0          	lea    -0x20(%rbp),%rdx
    5f0d:	48 8d 45 d0          	lea    -0x30(%rbp),%rax
    5f11:	48 89 d6             	mov    %rdx,%rsi
    5f14:	48 89 c7             	mov    %rax,%rdi
    5f17:	e8 ec 10 00 00       	call   7008 <_ZSteqRKSt17_Rb_tree_iteratorISt4pairIKNSt7__cxx1112basic_stringIcSt11char_traitsIcESaIcEEES6_EESB_>
    5f1c:	84 c0                	test   %al,%al
    5f1e:	75 32                	jne    5f52 <_ZNSt3mapINSt7__cxx1112basic_stringIcSt11char_traitsIcESaIcEEES5_St4lessIS5_ESaISt4pairIKS5_S5_EEEixERS9_+0x94>
    5f20:	48 8b 45 b8          	mov    -0x48(%rbp),%rax
    5f24:	48 89 c7             	mov    %rax,%rdi
    5f27:	e8 02 11 00 00       	call   702e <_ZNKSt3mapINSt7__cxx1112basic_stringIcSt11char_traitsIcESaIcEEES5_St4lessIS5_ESaISt4pairIKS5_S5_EEE8key_compEv>
    5f2c:	48 8d 45 d0          	lea    -0x30(%rbp),%rax
    5f30:	48 89 c7             	mov    %rax,%rdi
    5f33:	e8 16 11 00 00       	call   704e <_ZNKSt17_Rb_tree_iteratorISt4pairIKNSt7__cxx1112basic_stringIcSt11char_traitsIcESaIcEEES6_EEdeEv>
    5f38:	48 89 c2             	mov    %rax,%rdx
    5f3b:	48 8b 4d b0          	mov    -0x50(%rbp),%rcx
    5f3f:	48 8d 45 d8          	lea    -0x28(%rbp),%rax
    5f43:	48 89 ce             	mov    %rcx,%rsi
    5f46:	48 89 c7             	mov    %rax,%rdi
    5f49:	e8 22 11 00 00       	call   7070 <_ZNKSt4lessINSt7__cxx1112basic_stringIcSt11char_traitsIcESaIcEEEEclERKS5_S8_>
    5f4e:	84 c0                	test   %al,%al
    5f50:	74 07                	je     5f59 <_ZNSt3mapINSt7__cxx1112basic_stringIcSt11char_traitsIcESaIcEEES5_St4lessIS5_ESaISt4pairIKS5_S5_EEEixERS9_+0x9b>
    5f52:	b8 01 00 00 00       	mov    $0x1,%eax
    5f57:	eb 05                	jmp    5f5e <_ZNSt3mapINSt7__cxx1112basic_stringIcSt11char_traitsIcESaIcEEES5_St4lessIS5_ESaISt4pairIKS5_S5_EEEixERS9_+0xa0>
    5f59:	b8 00 00 00 00       	mov    $0x0,%eax
    5f5e:	84 c0                	test   %al,%al
    5f60:	74 52                	je     5fb4 <_ZNSt3mapINSt7__cxx1112basic_stringIcSt11char_traitsIcESaIcEEES5_St4lessIS5_ESaISt4pairIKS5_S5_EEEixERS9_+0xf6>
    5f62:	48 8b 5d b8          	mov    -0x48(%rbp),%rbx
    5f66:	48 8b 55 b0          	mov    -0x50(%rbp),%rdx
    5f6a:	48 8d 45 d8          	lea    -0x28(%rbp),%rax
    5f6e:	48 89 d6             	mov    %rdx,%rsi
    5f71:	48 89 c7             	mov    %rax,%rdi
    5f74:	e8 25 11 00 00       	call   709e <_ZNSt5tupleIJRKNSt7__cxx1112basic_stringIcSt11char_traitsIcESaIcEEEEEC1ILb1ELb1EEES7_>
    5f79:	48 8d 55 d0          	lea    -0x30(%rbp),%rdx
    5f7d:	48 8d 45 e0          	lea    -0x20(%rbp),%rax
    5f81:	48 89 d6             	mov    %rdx,%rsi
    5f84:	48 89 c7             	mov    %rax,%rdi
    5f87:	e8 3c 11 00 00       	call   70c8 <_ZNSt23_Rb_tree_const_iteratorISt4pairIKNSt7__cxx1112basic_stringIcSt11char_traitsIcESaIcEEES6_EEC1ERKSt17_Rb_tree_iteratorIS8_E>
    5f8c:	48 8d 4d cf          	lea    -0x31(%rbp),%rcx
    5f90:	48 8d 55 d8          	lea    -0x28(%rbp),%rdx
    5f94:	48 8b 45 e0          	mov    -0x20(%rbp),%rax
    5f98:	49 89 c8             	mov    %rcx,%r8
    5f9b:	48 89 d1             	mov    %rdx,%rcx
    5f9e:	48 8d 15 5f 60 00 00 	lea    0x605f(%rip),%rdx        # c004 <_ZSt19piecewise_construct>
    5fa5:	48 89 c6             	mov    %rax,%rsi
    5fa8:	48 89 df             	mov    %rbx,%rdi
    5fab:	e8 3a 11 00 00       	call   70ea <_ZNSt8_Rb_treeINSt7__cxx1112basic_stringIcSt11char_traitsIcESaIcEEESt4pairIKS5_S5_ESt10_Select1stIS8_ESt4lessIS5_ESaIS8_EE22_M_emplace_hint_uniqueIJRKSt21piecewise_construct_tSt5tupleIJRS7_EESJ_IJEEEEESt17_Rb_tree_iteratorIS8_ESt23_Rb_tree_const_iteratorIS8_EDpOT_>
    5fb0:	48 89 45 d0          	mov    %rax,-0x30(%rbp)
    5fb4:	48 8d 45 d0          	lea    -0x30(%rbp),%rax
    5fb8:	48 89 c7             	mov    %rax,%rdi
    5fbb:	e8 8e 10 00 00       	call   704e <_ZNKSt17_Rb_tree_iteratorISt4pairIKNSt7__cxx1112basic_stringIcSt11char_traitsIcESaIcEEES6_EEdeEv>
    5fc0:	48 83 c0 20          	add    $0x20,%rax
    5fc4:	48 8b 55 e8          	mov    -0x18(%rbp),%rdx
    5fc8:	64 48 2b 14 25 28 00 	sub    %fs:0x28,%rdx
    5fcf:	00 00 
    5fd1:	74 05                	je     5fd8 <_ZNSt3mapINSt7__cxx1112basic_stringIcSt11char_traitsIcESaIcEEES5_St4lessIS5_ESaISt4pairIKS5_S5_EEEixERS9_+0x11a>
    5fd3:	e8 a8 d7 ff ff       	call   3780 <_init+0x780>
    5fd8:	48 8b 5d f8          	mov    -0x8(%rbp),%rbx
    5fdc:	c9                   	leave  
    5fdd:	c3                   	ret    

0000000000005fde <_ZNSt6vectorISt3mapINSt7__cxx1112basic_stringIcSt11char_traitsIcESaIcEEES6_St4lessIS6_ESaISt4pairIKS6_S6_EEESaISD_EE9push_backERKSD_>:
    5fde:	f3 0f 1e fa          	endbr64 
    5fe2:	55                   	push   %rbp
    5fe3:	48 89 e5             	mov    %rsp,%rbp
    5fe6:	41 56                	push   %r14
    5fe8:	41 55                	push   %r13
    5fea:	41 54                	push   %r12
    5fec:	53                   	push   %rbx
    5fed:	48 83 ec 40          	sub    $0x40,%rsp
    5ff1:	48 89 7d a8          	mov    %rdi,-0x58(%rbp)
    5ff5:	48 89 75 a0          	mov    %rsi,-0x60(%rbp)
    5ff9:	48 8b 45 a8          	mov    -0x58(%rbp),%rax
    5ffd:	48 8b 50 08          	mov    0x8(%rax),%rdx
    6001:	48 8b 45 a8          	mov    -0x58(%rbp),%rax
    6005:	48 8b 40 10          	mov    0x10(%rax),%rax
    6009:	48 39 c2             	cmp    %rax,%rdx
    600c:	0f 84 a7 00 00 00    	je     60b9 <_ZNSt6vectorISt3mapINSt7__cxx1112basic_stringIcSt11char_traitsIcESaIcEEES6_St4lessIS6_ESaISt4pairIKS6_S6_EEESaISD_EE9push_backERKSD_+0xdb>
    6012:	48 8b 45 a8          	mov    -0x58(%rbp),%rax
    6016:	48 8b 40 08          	mov    0x8(%rax),%rax
    601a:	48 8b 55 a8          	mov    -0x58(%rbp),%rdx
    601e:	48 89 55 b0          	mov    %rdx,-0x50(%rbp)
    6022:	48 89 45 b8          	mov    %rax,-0x48(%rbp)
    6026:	48 8b 45 a0          	mov    -0x60(%rbp),%rax
    602a:	48 89 45 c0          	mov    %rax,-0x40(%rbp)
    602e:	48 8b 45 c0          	mov    -0x40(%rbp),%rax
    6032:	48 89 c7             	mov    %rax,%rdi
    6035:	e8 32 2a 00 00       	call   8a6c <_ZSt7forwardIRKSt3mapINSt7__cxx1112basic_stringIcSt11char_traitsIcESaIcEEES6_St4lessIS6_ESaISt4pairIKS6_S6_EEEEOT_RNSt16remove_referenceISG_E4typeE>
    603a:	48 8b 55 b0          	mov    -0x50(%rbp),%rdx
    603e:	48 89 55 c8          	mov    %rdx,-0x38(%rbp)
    6042:	48 8b 55 b8          	mov    -0x48(%rbp),%rdx
    6046:	48 89 55 d0          	mov    %rdx,-0x30(%rbp)
    604a:	48 89 45 d8          	mov    %rax,-0x28(%rbp)
    604e:	48 8b 5d d0          	mov    -0x30(%rbp),%rbx
    6052:	48 89 de             	mov    %rbx,%rsi
    6055:	bf 30 00 00 00       	mov    $0x30,%edi
    605a:	e8 77 f7 ff ff       	call   57d6 <_ZnwmPv>
    605f:	49 89 c4             	mov    %rax,%r12
    6062:	41 be 01 00 00 00    	mov    $0x1,%r14d
    6068:	48 8b 45 d8          	mov    -0x28(%rbp),%rax
    606c:	48 89 c7             	mov    %rax,%rdi
    606f:	e8 f8 29 00 00       	call   8a6c <_ZSt7forwardIRKSt3mapINSt7__cxx1112basic_stringIcSt11char_traitsIcESaIcEEES6_St4lessIS6_ESaISt4pairIKS6_S6_EEEEOT_RNSt16remove_referenceISG_E4typeE>
    6074:	48 89 c6             	mov    %rax,%rsi
    6077:	4c 89 e7             	mov    %r12,%rdi
    607a:	e8 ff 29 00 00       	call   8a7e <_ZNSt3mapINSt7__cxx1112basic_stringIcSt11char_traitsIcESaIcEEES5_St4lessIS5_ESaISt4pairIKS5_S5_EEEC1ERKSC_>
    607f:	90                   	nop
    6080:	90                   	nop
    6081:	48 8b 45 a8          	mov    -0x58(%rbp),%rax
    6085:	48 8b 40 08          	mov    0x8(%rax),%rax
    6089:	48 8d 50 30          	lea    0x30(%rax),%rdx
    608d:	48 8b 45 a8          	mov    -0x58(%rbp),%rax
    6091:	48 89 50 08          	mov    %rdx,0x8(%rax)
    6095:	eb 44                	jmp    60db <_ZNSt6vectorISt3mapINSt7__cxx1112basic_stringIcSt11char_traitsIcESaIcEEES6_St4lessIS6_ESaISt4pairIKS6_S6_EEESaISD_EE9push_backERKSD_+0xfd>
    6097:	f3 0f 1e fa          	endbr64 
    609b:	49 89 c5             	mov    %rax,%r13
    609e:	45 84 f6             	test   %r14b,%r14b
    60a1:	74 0b                	je     60ae <_ZNSt6vectorISt3mapINSt7__cxx1112basic_stringIcSt11char_traitsIcESaIcEEES6_St4lessIS6_ESaISt4pairIKS6_S6_EEESaISD_EE9push_backERKSD_+0xd0>
    60a3:	48 89 de             	mov    %rbx,%rsi
    60a6:	4c 89 e7             	mov    %r12,%rdi
    60a9:	e8 3e f7 ff ff       	call   57ec <_ZdlPvS_>
    60ae:	4c 89 e8             	mov    %r13,%rax
    60b1:	48 89 c7             	mov    %rax,%rdi
    60b4:	e8 57 d8 ff ff       	call   3910 <_init+0x910>
    60b9:	48 8b 45 a8          	mov    -0x58(%rbp),%rax
    60bd:	48 89 c7             	mov    %rax,%rdi
    60c0:	e8 cf 0a 00 00       	call   6b94 <_ZNSt6vectorISt3mapINSt7__cxx1112basic_stringIcSt11char_traitsIcESaIcEEES6_St4lessIS6_ESaISt4pairIKS6_S6_EEESaISD_EE3endEv>
    60c5:	48 89 c1             	mov    %rax,%rcx
    60c8:	48 8b 55 a0          	mov    -0x60(%rbp),%rdx
    60cc:	48 8b 45 a8          	mov    -0x58(%rbp),%rax
    60d0:	48 89 ce             	mov    %rcx,%rsi
    60d3:	48 89 c7             	mov    %rax,%rdi
    60d6:	e8 4b 11 00 00       	call   7226 <_ZNSt6vectorISt3mapINSt7__cxx1112basic_stringIcSt11char_traitsIcESaIcEEES6_St4lessIS6_ESaISt4pairIKS6_S6_EEESaISD_EE17_M_realloc_insertIJRKSD_EEEvN9__gnu_cxx17__normal_iteratorIPSD_SF_EEDpOT_>
    60db:	90                   	nop
    60dc:	48 83 c4 40          	add    $0x40,%rsp
    60e0:	5b                   	pop    %rbx
    60e1:	41 5c                	pop    %r12
    60e3:	41 5d                	pop    %r13
    60e5:	41 5e                	pop    %r14
    60e7:	5d                   	pop    %rbp
    60e8:	c3                   	ret    
    60e9:	90                   	nop

00000000000060ea <_ZNSt12_Vector_baseISt3mapINSt7__cxx1112basic_stringIcSt11char_traitsIcESaIcEEES6_St4lessIS6_ESaISt4pairIKS6_S6_EEESaISD_EE12_Vector_implC1EOSG_>:
    60ea:	f3 0f 1e fa          	endbr64 
    60ee:	55                   	push   %rbp
    60ef:	48 89 e5             	mov    %rsp,%rbp
    60f2:	53                   	push   %rbx
    60f3:	48 83 ec 38          	sub    $0x38,%rsp
    60f7:	48 89 7d c8          	mov    %rdi,-0x38(%rbp)
    60fb:	48 89 75 c0          	mov    %rsi,-0x40(%rbp)
    60ff:	48 8b 45 c0          	mov    -0x40(%rbp),%rax
    6103:	48 89 c7             	mov    %rax,%rdi
    6106:	e8 17 15 00 00       	call   7622 <_ZSt4moveIRNSt12_Vector_baseISt3mapINSt7__cxx1112basic_stringIcSt11char_traitsIcESaIcEEES7_St4lessIS7_ESaISt4pairIKS7_S7_EEESaISE_EE12_Vector_implEEONSt16remove_referenceIT_E4typeEOSK_>
    610b:	48 8b 55 c8          	mov    -0x38(%rbp),%rdx
    610f:	48 89 55 d0          	mov    %rdx,-0x30(%rbp)
    6113:	48 89 45 d8          	mov    %rax,-0x28(%rbp)
    6117:	48 8b 45 d0          	mov    -0x30(%rbp),%rax
    611b:	48 89 45 e0          	mov    %rax,-0x20(%rbp)
    611f:	48 8b 45 d8          	mov    -0x28(%rbp),%rax
    6123:	48 89 45 e8          	mov    %rax,-0x18(%rbp)
    6127:	90                   	nop
    6128:	90                   	nop
    6129:	48 8b 5d c8          	mov    -0x38(%rbp),%rbx
    612d:	48 8b 45 c0          	mov    -0x40(%rbp),%rax
    6131:	48 89 c7             	mov    %rax,%rdi
    6134:	e8 e9 14 00 00       	call   7622 <_ZSt4moveIRNSt12_Vector_baseISt3mapINSt7__cxx1112basic_stringIcSt11char_traitsIcESaIcEEES7_St4lessIS7_ESaISt4pairIKS7_S7_EEESaISE_EE12_Vector_implEEONSt16remove_referenceIT_E4typeEOSK_>
    6139:	48 89 c6             	mov    %rax,%rsi
    613c:	48 89 df             	mov    %rbx,%rdi
    613f:	e8 f0 14 00 00       	call   7634 <_ZNSt12_Vector_baseISt3mapINSt7__cxx1112basic_stringIcSt11char_traitsIcESaIcEEES6_St4lessIS6_ESaISt4pairIKS6_S6_EEESaISD_EE17_Vector_impl_dataC1EOSG_>
    6144:	90                   	nop
    6145:	48 8b 5d f8          	mov    -0x8(%rbp),%rbx
    6149:	c9                   	leave  
    614a:	c3                   	ret    
    614b:	90                   	nop

000000000000614c <_ZNKSt6vectorINSt7__cxx1112basic_stringIcSt11char_traitsIcESaIcEEESaIS5_EE5beginEv>:
    614c:	f3 0f 1e fa          	endbr64 
    6150:	55                   	push   %rbp
    6151:	48 89 e5             	mov    %rsp,%rbp
    6154:	48 83 ec 20          	sub    $0x20,%rsp
    6158:	48 89 7d e8          	mov    %rdi,-0x18(%rbp)
    615c:	64 48 8b 04 25 28 00 	mov    %fs:0x28,%rax
    6163:	00 00 
    6165:	48 89 45 f8          	mov    %rax,-0x8(%rbp)
    6169:	31 c0                	xor    %eax,%eax
    616b:	48 8b 55 e8          	mov    -0x18(%rbp),%rdx
    616f:	48 8d 45 f0          	lea    -0x10(%rbp),%rax
    6173:	48 89 d6             	mov    %rdx,%rsi
    6176:	48 89 c7             	mov    %rax,%rdi
    6179:	e8 22 15 00 00       	call   76a0 <_ZN9__gnu_cxx17__normal_iteratorIPKNSt7__cxx1112basic_stringIcSt11char_traitsIcESaIcEEESt6vectorIS6_SaIS6_EEEC1ERKS8_>
    617e:	48 8b 45 f0          	mov    -0x10(%rbp),%rax
    6182:	48 8b 55 f8          	mov    -0x8(%rbp),%rdx
    6186:	64 48 2b 14 25 28 00 	sub    %fs:0x28,%rdx
    618d:	00 00 
    618f:	74 05                	je     6196 <_ZNKSt6vectorINSt7__cxx1112basic_stringIcSt11char_traitsIcESaIcEEESaIS5_EE5beginEv+0x4a>
    6191:	e8 ea d5 ff ff       	call   3780 <_init+0x780>
    6196:	c9                   	leave  
    6197:	c3                   	ret    

0000000000006198 <_ZNKSt6vectorINSt7__cxx1112basic_stringIcSt11char_traitsIcESaIcEEESaIS5_EE3endEv>:
    6198:	f3 0f 1e fa          	endbr64 
    619c:	55                   	push   %rbp
    619d:	48 89 e5             	mov    %rsp,%rbp
    61a0:	48 83 ec 20          	sub    $0x20,%rsp
    61a4:	48 89 7d e8          	mov    %rdi,-0x18(%rbp)
    61a8:	64 48 8b 04 25 28 00 	mov    %fs:0x28,%rax
    61af:	00 00 
    61b1:	48 89 45 f8          	mov    %rax,-0x8(%rbp)
    61b5:	31 c0                	xor    %eax,%eax
    61b7:	48 8b 45 e8          	mov    -0x18(%rbp),%rax
    61bb:	48 8d 50 08          	lea    0x8(%rax),%rdx
    61bf:	48 8d 45 f0          	lea    -0x10(%rbp),%rax
    61c3:	48 89 d6             	mov    %rdx,%rsi
    61c6:	48 89 c7             	mov    %rax,%rdi
    61c9:	e8 d2 14 00 00       	call   76a0 <_ZN9__gnu_cxx17__normal_iteratorIPKNSt7__cxx1112basic_stringIcSt11char_traitsIcESaIcEEESt6vectorIS6_SaIS6_EEEC1ERKS8_>
    61ce:	48 8b 45 f0          	mov    -0x10(%rbp),%rax
    61d2:	48 8b 55 f8          	mov    -0x8(%rbp),%rdx
    61d6:	64 48 2b 14 25 28 00 	sub    %fs:0x28,%rdx
    61dd:	00 00 
    61df:	74 05                	je     61e6 <_ZNKSt6vectorINSt7__cxx1112basic_stringIcSt11char_traitsIcESaIcEEESaIS5_EE3endEv+0x4e>
    61e1:	e8 9a d5 ff ff       	call   3780 <_init+0x780>
    61e6:	c9                   	leave  
    61e7:	c3                   	ret    

00000000000061e8 <_ZN9__gnu_cxxneIPKNSt7__cxx1112basic_stringIcSt11char_traitsIcESaIcEEESt6vectorIS6_SaIS6_EEEEbRKNS_17__normal_iteratorIT_T0_EESH_>:
    61e8:	f3 0f 1e fa          	endbr64 
    61ec:	55                   	push   %rbp
    61ed:	48 89 e5             	mov    %rsp,%rbp
    61f0:	53                   	push   %rbx
    61f1:	48 83 ec 18          	sub    $0x18,%rsp
    61f5:	48 89 7d e8          	mov    %rdi,-0x18(%rbp)
    61f9:	48 89 75 e0          	mov    %rsi,-0x20(%rbp)
    61fd:	48 8b 45 e8          	mov    -0x18(%rbp),%rax
    6201:	48 89 c7             	mov    %rax,%rdi
    6204:	e8 b9 14 00 00       	call   76c2 <_ZNK9__gnu_cxx17__normal_iteratorIPKNSt7__cxx1112basic_stringIcSt11char_traitsIcESaIcEEESt6vectorIS6_SaIS6_EEE4baseEv>
    6209:	48 8b 18             	mov    (%rax),%rbx
    620c:	48 8b 45 e0          	mov    -0x20(%rbp),%rax
    6210:	48 89 c7             	mov    %rax,%rdi
    6213:	e8 aa 14 00 00       	call   76c2 <_ZNK9__gnu_cxx17__normal_iteratorIPKNSt7__cxx1112basic_stringIcSt11char_traitsIcESaIcEEESt6vectorIS6_SaIS6_EEE4baseEv>
    6218:	48 8b 00             	mov    (%rax),%rax
    621b:	48 39 c3             	cmp    %rax,%rbx
    621e:	0f 95 c0             	setne  %al
    6221:	48 8b 5d f8          	mov    -0x8(%rbp),%rbx
    6225:	c9                   	leave  
    6226:	c3                   	ret    
    6227:	90                   	nop

0000000000006228 <_ZN9__gnu_cxx17__normal_iteratorIPKNSt7__cxx1112basic_stringIcSt11char_traitsIcESaIcEEESt6vectorIS6_SaIS6_EEEppEv>:
    6228:	f3 0f 1e fa          	endbr64 
    622c:	55                   	push   %rbp
    622d:	48 89 e5             	mov    %rsp,%rbp
    6230:	48 89 7d f8          	mov    %rdi,-0x8(%rbp)
    6234:	48 8b 45 f8          	mov    -0x8(%rbp),%rax
    6238:	48 8b 00             	mov    (%rax),%rax
    623b:	48 8d 50 20          	lea    0x20(%rax),%rdx
    623f:	48 8b 45 f8          	mov    -0x8(%rbp),%rax
    6243:	48 89 10             	mov    %rdx,(%rax)
    6246:	48 8b 45 f8          	mov    -0x8(%rbp),%rax
    624a:	5d                   	pop    %rbp
    624b:	c3                   	ret    

000000000000624c <_ZNK9__gnu_cxx17__normal_iteratorIPKNSt7__cxx1112basic_stringIcSt11char_traitsIcESaIcEEESt6vectorIS6_SaIS6_EEEdeEv>:
    624c:	f3 0f 1e fa          	endbr64 
    6250:	55                   	push   %rbp
    6251:	48 89 e5             	mov    %rsp,%rbp
    6254:	48 89 7d f8          	mov    %rdi,-0x8(%rbp)
    6258:	48 8b 45 f8          	mov    -0x8(%rbp),%rax
    625c:	48 8b 00             	mov    (%rax),%rax
    625f:	5d                   	pop    %rbp
    6260:	c3                   	ret    
    6261:	90                   	nop

0000000000006262 <_ZNKSt3mapINSt7__cxx1112basic_stringIcSt11char_traitsIcESaIcEEES5_St4lessIS5_ESaISt4pairIKS5_S5_EEE4findERS9_>:
    6262:	f3 0f 1e fa          	endbr64 
    6266:	55                   	push   %rbp
    6267:	48 89 e5             	mov    %rsp,%rbp
    626a:	48 83 ec 10          	sub    $0x10,%rsp
    626e:	48 89 7d f8          	mov    %rdi,-0x8(%rbp)
    6272:	48 89 75 f0          	mov    %rsi,-0x10(%rbp)
    6276:	48 8b 45 f8          	mov    -0x8(%rbp),%rax
    627a:	48 8b 55 f0          	mov    -0x10(%rbp),%rdx
    627e:	48 89 d6             	mov    %rdx,%rsi
    6281:	48 89 c7             	mov    %rax,%rdi
    6284:	e8 4b 14 00 00       	call   76d4 <_ZNKSt8_Rb_treeINSt7__cxx1112basic_stringIcSt11char_traitsIcESaIcEEESt4pairIKS5_S5_ESt10_Select1stIS8_ESt4lessIS5_ESaIS8_EE4findERS7_>
    6289:	c9                   	leave  
    628a:	c3                   	ret    
    628b:	90                   	nop

000000000000628c <_ZNKSt3mapINSt7__cxx1112basic_stringIcSt11char_traitsIcESaIcEEES5_St4lessIS5_ESaISt4pairIKS5_S5_EEE3endEv>:
    628c:	f3 0f 1e fa          	endbr64 
    6290:	55                   	push   %rbp
    6291:	48 89 e5             	mov    %rsp,%rbp
    6294:	48 83 ec 10          	sub    $0x10,%rsp
    6298:	48 89 7d f8          	mov    %rdi,-0x8(%rbp)
    629c:	48 8b 45 f8          	mov    -0x8(%rbp),%rax
    62a0:	48 89 c7             	mov    %rax,%rdi
    62a3:	e8 02 15 00 00       	call   77aa <_ZNKSt8_Rb_treeINSt7__cxx1112basic_stringIcSt11char_traitsIcESaIcEEESt4pairIKS5_S5_ESt10_Select1stIS8_ESt4lessIS5_ESaIS8_EE3endEv>
    62a8:	c9                   	leave  
    62a9:	c3                   	ret    

00000000000062aa <_ZStneRKSt23_Rb_tree_const_iteratorISt4pairIKNSt7__cxx1112basic_stringIcSt11char_traitsIcESaIcEEES6_EESB_>:
    62aa:	f3 0f 1e fa          	endbr64 
    62ae:	55                   	push   %rbp
    62af:	48 89 e5             	mov    %rsp,%rbp
    62b2:	48 89 7d f8          	mov    %rdi,-0x8(%rbp)
    62b6:	48 89 75 f0          	mov    %rsi,-0x10(%rbp)
    62ba:	48 8b 45 f8          	mov    -0x8(%rbp),%rax
    62be:	48 8b 10             	mov    (%rax),%rdx
    62c1:	48 8b 45 f0          	mov    -0x10(%rbp),%rax
    62c5:	48 8b 00             	mov    (%rax),%rax
    62c8:	48 39 c2             	cmp    %rax,%rdx
    62cb:	0f 95 c0             	setne  %al
    62ce:	5d                   	pop    %rbp
    62cf:	c3                   	ret    

00000000000062d0 <_ZNKSt23_Rb_tree_const_iteratorISt4pairIKNSt7__cxx1112basic_stringIcSt11char_traitsIcESaIcEEES6_EEptEv>:
    62d0:	f3 0f 1e fa          	endbr64 
    62d4:	55                   	push   %rbp
    62d5:	48 89 e5             	mov    %rsp,%rbp
    62d8:	48 83 ec 10          	sub    $0x10,%rsp
    62dc:	48 89 7d f8          	mov    %rdi,-0x8(%rbp)
    62e0:	48 8b 45 f8          	mov    -0x8(%rbp),%rax
    62e4:	48 8b 00             	mov    (%rax),%rax
    62e7:	48 89 c7             	mov    %rax,%rdi
    62ea:	e8 0b 15 00 00       	call   77fa <_ZNKSt13_Rb_tree_nodeISt4pairIKNSt7__cxx1112basic_stringIcSt11char_traitsIcESaIcEEES6_EE9_M_valptrEv>
    62ef:	c9                   	leave  
    62f0:	c3                   	ret    
    62f1:	90                   	nop

00000000000062f2 <_ZNSt7__cxx1112basic_stringIcSt11char_traitsIcESaIcEEC1IS3_EEPKcRKS3_>:
    62f2:	f3 0f 1e fa          	endbr64 
    62f6:	55                   	push   %rbp
    62f7:	48 89 e5             	mov    %rsp,%rbp
    62fa:	53                   	push   %rbx
    62fb:	48 83 ec 38          	sub    $0x38,%rsp
    62ff:	48 89 7d d8          	mov    %rdi,-0x28(%rbp)
    6303:	48 89 75 d0          	mov    %rsi,-0x30(%rbp)
    6307:	48 89 55 c8          	mov    %rdx,-0x38(%rbp)
    630b:	48 8b 5d d8          	mov    -0x28(%rbp),%rbx
    630f:	48 8b 45 d8          	mov    -0x28(%rbp),%rax
    6313:	48 89 c7             	mov    %rax,%rdi
    6316:	e8 65 d3 ff ff       	call   3680 <_init+0x680>
    631b:	48 89 c1             	mov    %rax,%rcx
    631e:	48 8b 45 c8          	mov    -0x38(%rbp),%rax
    6322:	48 89 c2             	mov    %rax,%rdx
    6325:	48 89 ce             	mov    %rcx,%rsi
    6328:	48 89 df             	mov    %rbx,%rdi
    632b:	e8 10 d4 ff ff       	call   3740 <_init+0x740>
    6330:	48 83 7d d0 00       	cmpq   $0x0,-0x30(%rbp)
    6335:	75 0f                	jne    6346 <_ZNSt7__cxx1112basic_stringIcSt11char_traitsIcESaIcEEC1IS3_EEPKcRKS3_+0x54>
    6337:	48 8d 05 d2 5e 00 00 	lea    0x5ed2(%rip),%rax        # c210 <_ZSt19piecewise_construct+0x20c>
    633e:	48 89 c7             	mov    %rax,%rdi
    6341:	e8 0a d3 ff ff       	call   3650 <_init+0x650>
    6346:	48 8b 45 d0          	mov    -0x30(%rbp),%rax
    634a:	48 89 c7             	mov    %rax,%rdi
    634d:	e8 ad f4 ff ff       	call   57ff <_ZNSt11char_traitsIcE6lengthEPKc>
    6352:	48 8b 55 d0          	mov    -0x30(%rbp),%rdx
    6356:	48 01 d0             	add    %rdx,%rax
    6359:	48 89 45 e8          	mov    %rax,-0x18(%rbp)
    635d:	48 8b 55 e8          	mov    -0x18(%rbp),%rdx
    6361:	48 8b 4d d0          	mov    -0x30(%rbp),%rcx
    6365:	48 8b 45 d8          	mov    -0x28(%rbp),%rax
    6369:	48 89 ce             	mov    %rcx,%rsi
    636c:	48 89 c7             	mov    %rax,%rdi
    636f:	e8 c0 09 00 00       	call   6d34 <_ZNSt7__cxx1112basic_stringIcSt11char_traitsIcESaIcEE12_M_constructIPKcEEvT_S8_St20forward_iterator_tag>
    6374:	eb 1e                	jmp    6394 <_ZNSt7__cxx1112basic_stringIcSt11char_traitsIcESaIcEEC1IS3_EEPKcRKS3_+0xa2>
    6376:	f3 0f 1e fa          	endbr64 
    637a:	48 89 c3             	mov    %rax,%rbx
    637d:	48 8b 45 d8          	mov    -0x28(%rbp),%rax
    6381:	48 89 c7             	mov    %rax,%rdi
    6384:	e8 2b f9 ff ff       	call   5cb4 <_ZNSt7__cxx1112basic_stringIcSt11char_traitsIcESaIcEE12_Alloc_hiderD1Ev>
    6389:	48 89 d8             	mov    %rbx,%rax
    638c:	48 89 c7             	mov    %rax,%rdi
    638f:	e8 7c d5 ff ff       	call   3910 <_init+0x910>
    6394:	48 8b 5d f8          	mov    -0x8(%rbp),%rbx
    6398:	c9                   	leave  
    6399:	c3                   	ret    

000000000000639a <_ZNSt6vectorINSt7__cxx1112basic_stringIcSt11char_traitsIcESaIcEEESaIS5_EEC1IPKPKcvEET_SD_RKS6_>:
    639a:	f3 0f 1e fa          	endbr64 
    639e:	55                   	push   %rbp
    639f:	48 89 e5             	mov    %rsp,%rbp
    63a2:	53                   	push   %rbx
    63a3:	48 83 ec 38          	sub    $0x38,%rsp
    63a7:	48 89 7d d8          	mov    %rdi,-0x28(%rbp)
    63ab:	48 89 75 d0          	mov    %rsi,-0x30(%rbp)
    63af:	48 89 55 c8          	mov    %rdx,-0x38(%rbp)
    63b3:	48 89 4d c0          	mov    %rcx,-0x40(%rbp)
    63b7:	64 48 8b 04 25 28 00 	mov    %fs:0x28,%rax
    63be:	00 00 
    63c0:	48 89 45 e8          	mov    %rax,-0x18(%rbp)
    63c4:	31 c0                	xor    %eax,%eax
    63c6:	48 8b 45 d8          	mov    -0x28(%rbp),%rax
    63ca:	48 8b 55 c0          	mov    -0x40(%rbp),%rdx
    63ce:	48 89 d6             	mov    %rdx,%rsi
    63d1:	48 89 c7             	mov    %rax,%rdi
    63d4:	e8 53 14 00 00       	call   782c <_ZNSt12_Vector_baseINSt7__cxx1112basic_stringIcSt11char_traitsIcESaIcEEESaIS5_EEC1ERKS6_>
    63d9:	90                   	nop
    63da:	48 8b 4d d0          	mov    -0x30(%rbp),%rcx
    63de:	48 8b 55 c8          	mov    -0x38(%rbp),%rdx
    63e2:	48 8b 45 d8          	mov    -0x28(%rbp),%rax
    63e6:	48 89 ce             	mov    %rcx,%rsi
    63e9:	48 89 c7             	mov    %rax,%rdi
    63ec:	e8 65 14 00 00       	call   7856 <_ZNSt6vectorINSt7__cxx1112basic_stringIcSt11char_traitsIcESaIcEEESaIS5_EE19_M_range_initializeIPKPKcEEvT_SD_St20forward_iterator_tag>
    63f1:	eb 32                	jmp    6425 <_ZNSt6vectorINSt7__cxx1112basic_stringIcSt11char_traitsIcESaIcEEESaIS5_EEC1IPKPKcvEET_SD_RKS6_+0x8b>
    63f3:	f3 0f 1e fa          	endbr64 
    63f7:	48 89 c3             	mov    %rax,%rbx
    63fa:	48 8b 45 d8          	mov    -0x28(%rbp),%rax
    63fe:	48 89 c7             	mov    %rax,%rdi
    6401:	e8 b2 01 00 00       	call   65b8 <_ZNSt12_Vector_baseINSt7__cxx1112basic_stringIcSt11char_traitsIcESaIcEEESaIS5_EED1Ev>
    6406:	48 89 d8             	mov    %rbx,%rax
    6409:	48 8b 55 e8          	mov    -0x18(%rbp),%rdx
    640d:	64 48 2b 14 25 28 00 	sub    %fs:0x28,%rdx
    6414:	00 00 
    6416:	74 05                	je     641d <_ZNSt6vectorINSt7__cxx1112basic_stringIcSt11char_traitsIcESaIcEEESaIS5_EEC1IPKPKcvEET_SD_RKS6_+0x83>
    6418:	e8 63 d3 ff ff       	call   3780 <_init+0x780>
    641d:	48 89 c7             	mov    %rax,%rdi
    6420:	e8 eb d4 ff ff       	call   3910 <_init+0x910>
    6425:	48 8b 45 e8          	mov    -0x18(%rbp),%rax
    6429:	64 48 2b 04 25 28 00 	sub    %fs:0x28,%rax
    6430:	00 00 
    6432:	74 05                	je     6439 <_ZNSt6vectorINSt7__cxx1112basic_stringIcSt11char_traitsIcESaIcEEESaIS5_EEC1IPKPKcvEET_SD_RKS6_+0x9f>
    6434:	e8 47 d3 ff ff       	call   3780 <_init+0x780>
    6439:	48 8b 5d f8          	mov    -0x8(%rbp),%rbx
    643d:	c9                   	leave  
    643e:	c3                   	ret    
    643f:	90                   	nop

0000000000006440 <_ZNSt6vectorINSt7__cxx1112basic_stringIcSt11char_traitsIcESaIcEEESaIS5_EED1Ev>:
    6440:	f3 0f 1e fa          	endbr64 
    6444:	55                   	push   %rbp
    6445:	48 89 e5             	mov    %rsp,%rbp
    6448:	48 83 ec 30          	sub    $0x30,%rsp
    644c:	48 89 7d d8          	mov    %rdi,-0x28(%rbp)
    6450:	48 8b 45 d8          	mov    -0x28(%rbp),%rax
    6454:	48 89 c7             	mov    %rax,%rdi
    6457:	e8 ec 14 00 00       	call   7948 <_ZNSt12_Vector_baseINSt7__cxx1112basic_stringIcSt11char_traitsIcESaIcEEESaIS5_EE19_M_get_Tp_allocatorEv>
    645c:	48 8b 55 d8          	mov    -0x28(%rbp),%rdx
    6460:	48 8b 52 08          	mov    0x8(%rdx),%rdx
    6464:	48 8b 4d d8          	mov    -0x28(%rbp),%rcx
    6468:	48 8b 09             	mov    (%rcx),%rcx
    646b:	48 89 4d e8          	mov    %rcx,-0x18(%rbp)
    646f:	48 89 55 f0          	mov    %rdx,-0x10(%rbp)
    6473:	48 89 45 f8          	mov    %rax,-0x8(%rbp)
    6477:	48 8b 55 f0          	mov    -0x10(%rbp),%rdx
    647b:	48 8b 45 e8          	mov    -0x18(%rbp),%rax
    647f:	48 89 d6             	mov    %rdx,%rsi
    6482:	48 89 c7             	mov    %rax,%rdi
    6485:	e8 c8 2a 00 00       	call   8f52 <_ZSt8_DestroyIPNSt7__cxx1112basic_stringIcSt11char_traitsIcESaIcEEEEvT_S7_>
    648a:	90                   	nop
    648b:	48 8b 45 d8          	mov    -0x28(%rbp),%rax
    648f:	48 89 c7             	mov    %rax,%rdi
    6492:	e8 21 01 00 00       	call   65b8 <_ZNSt12_Vector_baseINSt7__cxx1112basic_stringIcSt11char_traitsIcESaIcEEESaIS5_EED1Ev>
    6497:	90                   	nop
    6498:	c9                   	leave  
    6499:	c3                   	ret    

000000000000649a <_ZStplIcSt11char_traitsIcESaIcEENSt7__cxx1112basic_stringIT_T0_T1_EEPKS5_RKS8_>:
    649a:	f3 0f 1e fa          	endbr64 
    649e:	55                   	push   %rbp
    649f:	48 89 e5             	mov    %rsp,%rbp
    64a2:	41 54                	push   %r12
    64a4:	53                   	push   %rbx
    64a5:	48 83 ec 30          	sub    $0x30,%rsp
    64a9:	48 89 7d d8          	mov    %rdi,-0x28(%rbp)
    64ad:	48 89 75 d0          	mov    %rsi,-0x30(%rbp)
    64b1:	48 89 55 c8          	mov    %rdx,-0x38(%rbp)
    64b5:	64 48 8b 04 25 28 00 	mov    %fs:0x28,%rax
    64bc:	00 00 
    64be:	48 89 45 e8          	mov    %rax,-0x18(%rbp)
    64c2:	31 c0                	xor    %eax,%eax
    64c4:	48 8d 45 e7          	lea    -0x19(%rbp),%rax
    64c8:	48 8b 55 c8          	mov    -0x38(%rbp),%rdx
    64cc:	48 89 d6             	mov    %rdx,%rsi
    64cf:	48 89 c7             	mov    %rax,%rdi
    64d2:	e8 99 d0 ff ff       	call   3570 <_init+0x570>
    64d7:	48 8b 45 c8          	mov    -0x38(%rbp),%rax
    64db:	48 89 c7             	mov    %rax,%rdi
    64de:	e8 5d d1 ff ff       	call   3640 <_init+0x640>
    64e3:	49 89 c4             	mov    %rax,%r12
    64e6:	48 8b 45 c8          	mov    -0x38(%rbp),%rax
    64ea:	48 89 c7             	mov    %rax,%rdi
    64ed:	e8 9e d0 ff ff       	call   3590 <_init+0x590>
    64f2:	48 89 c3             	mov    %rax,%rbx
    64f5:	48 8b 45 d0          	mov    -0x30(%rbp),%rax
    64f9:	48 89 c7             	mov    %rax,%rdi
    64fc:	e8 fe f2 ff ff       	call   57ff <_ZNSt11char_traitsIcE6lengthEPKc>
    6501:	48 89 c2             	mov    %rax,%rdx
    6504:	48 8b 45 d8          	mov    -0x28(%rbp),%rax
    6508:	48 8d 4d e7          	lea    -0x19(%rbp),%rcx
    650c:	48 8b 75 d0          	mov    -0x30(%rbp),%rsi
    6510:	49 89 c9             	mov    %rcx,%r9
    6513:	4d 89 e0             	mov    %r12,%r8
    6516:	48 89 d9             	mov    %rbx,%rcx
    6519:	48 89 c7             	mov    %rax,%rdi
    651c:	e8 39 14 00 00       	call   795a <_ZSt12__str_concatINSt7__cxx1112basic_stringIcSt11char_traitsIcESaIcEEEET_PKNS6_10value_typeENS6_9size_typeES9_SA_RKNS6_14allocator_typeE>
    6521:	48 8d 45 e7          	lea    -0x19(%rbp),%rax
    6525:	48 89 c7             	mov    %rax,%rdi
    6528:	e8 ab 07 00 00       	call   6cd8 <_ZNSt15__new_allocatorIcED1Ev>
    652d:	90                   	nop
    652e:	90                   	nop
    652f:	48 8b 45 e8          	mov    -0x18(%rbp),%rax
    6533:	64 48 2b 04 25 28 00 	sub    %fs:0x28,%rax
    653a:	00 00 
    653c:	74 3a                	je     6578 <_ZStplIcSt11char_traitsIcESaIcEENSt7__cxx1112basic_stringIT_T0_T1_EEPKS5_RKS8_+0xde>
    653e:	eb 33                	jmp    6573 <_ZStplIcSt11char_traitsIcESaIcEENSt7__cxx1112basic_stringIT_T0_T1_EEPKS5_RKS8_+0xd9>
    6540:	f3 0f 1e fa          	endbr64 
    6544:	48 89 c3             	mov    %rax,%rbx
    6547:	48 8d 45 e7          	lea    -0x19(%rbp),%rax
    654b:	48 89 c7             	mov    %rax,%rdi
    654e:	e8 85 07 00 00       	call   6cd8 <_ZNSt15__new_allocatorIcED1Ev>
    6553:	90                   	nop
    6554:	48 89 d8             	mov    %rbx,%rax
    6557:	48 8b 55 e8          	mov    -0x18(%rbp),%rdx
    655b:	64 48 2b 14 25 28 00 	sub    %fs:0x28,%rdx
    6562:	00 00 
    6564:	74 05                	je     656b <_ZStplIcSt11char_traitsIcESaIcEENSt7__cxx1112basic_stringIT_T0_T1_EEPKS5_RKS8_+0xd1>
    6566:	e8 15 d2 ff ff       	call   3780 <_init+0x780>
    656b:	48 89 c7             	mov    %rax,%rdi
    656e:	e8 9d d3 ff ff       	call   3910 <_init+0x910>
    6573:	e8 08 d2 ff ff       	call   3780 <_init+0x780>
    6578:	48 8b 45 d8          	mov    -0x28(%rbp),%rax
    657c:	48 83 c4 30          	add    $0x30,%rsp
    6580:	5b                   	pop    %rbx
    6581:	41 5c                	pop    %r12
    6583:	5d                   	pop    %rbp
    6584:	c3                   	ret    
    6585:	90                   	nop

0000000000006586 <_ZNSt12_Vector_baseINSt7__cxx1112basic_stringIcSt11char_traitsIcESaIcEEESaIS5_EE12_Vector_implC1Ev>:
    6586:	f3 0f 1e fa          	endbr64 
    658a:	55                   	push   %rbp
    658b:	48 89 e5             	mov    %rsp,%rbp
    658e:	48 83 ec 20          	sub    $0x20,%rsp
    6592:	48 89 7d e8          	mov    %rdi,-0x18(%rbp)
    6596:	48 8b 45 e8          	mov    -0x18(%rbp),%rax
    659a:	48 89 45 f0          	mov    %rax,-0x10(%rbp)
    659e:	48 8b 45 f0          	mov    -0x10(%rbp),%rax
    65a2:	48 89 45 f8          	mov    %rax,-0x8(%rbp)
    65a6:	90                   	nop
    65a7:	90                   	nop
    65a8:	48 8b 45 e8          	mov    -0x18(%rbp),%rax
    65ac:	48 89 c7             	mov    %rax,%rdi
    65af:	e8 c8 14 00 00       	call   7a7c <_ZNSt12_Vector_baseINSt7__cxx1112basic_stringIcSt11char_traitsIcESaIcEEESaIS5_EE17_Vector_impl_dataC1Ev>
    65b4:	90                   	nop
    65b5:	c9                   	leave  
    65b6:	c3                   	ret    
    65b7:	90                   	nop

00000000000065b8 <_ZNSt12_Vector_baseINSt7__cxx1112basic_stringIcSt11char_traitsIcESaIcEEESaIS5_EED1Ev>:
    65b8:	f3 0f 1e fa          	endbr64 
    65bc:	55                   	push   %rbp
    65bd:	48 89 e5             	mov    %rsp,%rbp
    65c0:	48 83 ec 10          	sub    $0x10,%rsp
    65c4:	48 89 7d f8          	mov    %rdi,-0x8(%rbp)
    65c8:	48 8b 45 f8          	mov    -0x8(%rbp),%rax
    65cc:	48 8b 50 10          	mov    0x10(%rax),%rdx
    65d0:	48 8b 45 f8          	mov    -0x8(%rbp),%rax
    65d4:	48 8b 00             	mov    (%rax),%rax
    65d7:	48 29 c2             	sub    %rax,%rdx
    65da:	48 89 d0             	mov    %rdx,%rax
    65dd:	48 c1 f8 05          	sar    $0x5,%rax
    65e1:	48 89 c2             	mov    %rax,%rdx
    65e4:	48 8b 45 f8          	mov    -0x8(%rbp),%rax
    65e8:	48 8b 08             	mov    (%rax),%rcx
    65eb:	48 8b 45 f8          	mov    -0x8(%rbp),%rax
    65ef:	48 89 ce             	mov    %rcx,%rsi
    65f2:	48 89 c7             	mov    %rax,%rdi
    65f5:	e8 b4 14 00 00       	call   7aae <_ZNSt12_Vector_baseINSt7__cxx1112basic_stringIcSt11char_traitsIcESaIcEEESaIS5_EE13_M_deallocateEPS5_m>
    65fa:	48 8b 45 f8          	mov    -0x8(%rbp),%rax
    65fe:	48 89 c7             	mov    %rax,%rdi
    6601:	e8 b8 f5 ff ff       	call   5bbe <_ZNSt12_Vector_baseINSt7__cxx1112basic_stringIcSt11char_traitsIcESaIcEEESaIS5_EE12_Vector_implD1Ev>
    6606:	90                   	nop
    6607:	c9                   	leave  
    6608:	c3                   	ret    
    6609:	90                   	nop

000000000000660a <_ZNKSt3setINSt7__cxx1112basic_stringIcSt11char_traitsIcESaIcEEESt4lessIS5_ESaIS5_EE5beginEv>:
    660a:	f3 0f 1e fa          	endbr64 
    660e:	55                   	push   %rbp
    660f:	48 89 e5             	mov    %rsp,%rbp
    6612:	48 83 ec 10          	sub    $0x10,%rsp
    6616:	48 89 7d f8          	mov    %rdi,-0x8(%rbp)
    661a:	48 8b 45 f8          	mov    -0x8(%rbp),%rax
    661e:	48 89 c7             	mov    %rax,%rdi
    6621:	e8 da 14 00 00       	call   7b00 <_ZNKSt8_Rb_treeINSt7__cxx1112basic_stringIcSt11char_traitsIcESaIcEEES5_St9_IdentityIS5_ESt4lessIS5_ESaIS5_EE5beginEv>
    6626:	c9                   	leave  
    6627:	c3                   	ret    

0000000000006628 <_ZNKSt3setINSt7__cxx1112basic_stringIcSt11char_traitsIcESaIcEEESt4lessIS5_ESaIS5_EE3endEv>:
    6628:	f3 0f 1e fa          	endbr64 
    662c:	55                   	push   %rbp
    662d:	48 89 e5             	mov    %rsp,%rbp
    6630:	48 83 ec 10          	sub    $0x10,%rsp
    6634:	48 89 7d f8          	mov    %rdi,-0x8(%rbp)
    6638:	48 8b 45 f8          	mov    -0x8(%rbp),%rax
    663c:	48 89 c7             	mov    %rax,%rdi
    663f:	e8 0c 15 00 00       	call   7b50 <_ZNKSt8_Rb_treeINSt7__cxx1112basic_stringIcSt11char_traitsIcESaIcEEES5_St9_IdentityIS5_ESt4lessIS5_ESaIS5_EE3endEv>
    6644:	c9                   	leave  
    6645:	c3                   	ret    

0000000000006646 <_ZStneRKSt23_Rb_tree_const_iteratorINSt7__cxx1112basic_stringIcSt11char_traitsIcESaIcEEEES8_>:
    6646:	f3 0f 1e fa          	endbr64 
    664a:	55                   	push   %rbp
    664b:	48 89 e5             	mov    %rsp,%rbp
    664e:	48 89 7d f8          	mov    %rdi,-0x8(%rbp)
    6652:	48 89 75 f0          	mov    %rsi,-0x10(%rbp)
    6656:	48 8b 45 f8          	mov    -0x8(%rbp),%rax
    665a:	48 8b 10             	mov    (%rax),%rdx
    665d:	48 8b 45 f0          	mov    -0x10(%rbp),%rax
    6661:	48 8b 00             	mov    (%rax),%rax
    6664:	48 39 c2             	cmp    %rax,%rdx
    6667:	0f 95 c0             	setne  %al
    666a:	5d                   	pop    %rbp
    666b:	c3                   	ret    

000000000000666c <_ZNSt23_Rb_tree_const_iteratorINSt7__cxx1112basic_stringIcSt11char_traitsIcESaIcEEEEppEv>:
    666c:	f3 0f 1e fa          	endbr64 
    6670:	55                   	push   %rbp
    6671:	48 89 e5             	mov    %rsp,%rbp
    6674:	48 83 ec 10          	sub    $0x10,%rsp
    6678:	48 89 7d f8          	mov    %rdi,-0x8(%rbp)
    667c:	48 8b 45 f8          	mov    -0x8(%rbp),%rax
    6680:	48 8b 00             	mov    (%rax),%rax
    6683:	48 89 c7             	mov    %rax,%rdi
    6686:	e8 15 d1 ff ff       	call   37a0 <_init+0x7a0>
    668b:	48 8b 55 f8          	mov    -0x8(%rbp),%rdx
    668f:	48 89 02             	mov    %rax,(%rdx)
    6692:	48 8b 45 f8          	mov    -0x8(%rbp),%rax
    6696:	c9                   	leave  
    6697:	c3                   	ret    

0000000000006698 <_ZNKSt23_Rb_tree_const_iteratorINSt7__cxx1112basic_stringIcSt11char_traitsIcESaIcEEEEdeEv>:
    6698:	f3 0f 1e fa          	endbr64 
    669c:	55                   	push   %rbp
    669d:	48 89 e5             	mov    %rsp,%rbp
    66a0:	48 83 ec 10          	sub    $0x10,%rsp
    66a4:	48 89 7d f8          	mov    %rdi,-0x8(%rbp)
    66a8:	48 8b 45 f8          	mov    -0x8(%rbp),%rax
    66ac:	48 8b 00             	mov    (%rax),%rax
    66af:	48 89 c7             	mov    %rax,%rdi
    66b2:	e8 e9 14 00 00       	call   7ba0 <_ZNKSt13_Rb_tree_nodeINSt7__cxx1112basic_stringIcSt11char_traitsIcESaIcEEEE9_M_valptrEv>
    66b7:	c9                   	leave  
    66b8:	c3                   	ret    
    66b9:	90                   	nop

00000000000066ba <_ZNSt6vectorINSt7__cxx1112basic_stringIcSt11char_traitsIcESaIcEEESaIS5_EE9push_backERKS5_>:
    66ba:	f3 0f 1e fa          	endbr64 
    66be:	55                   	push   %rbp
    66bf:	48 89 e5             	mov    %rsp,%rbp
    66c2:	41 56                	push   %r14
    66c4:	41 55                	push   %r13
    66c6:	41 54                	push   %r12
    66c8:	53                   	push   %rbx
    66c9:	48 83 ec 40          	sub    $0x40,%rsp
    66cd:	48 89 7d a8          	mov    %rdi,-0x58(%rbp)
    66d1:	48 89 75 a0          	mov    %rsi,-0x60(%rbp)
    66d5:	48 8b 45 a8          	mov    -0x58(%rbp),%rax
    66d9:	48 8b 50 08          	mov    0x8(%rax),%rdx
    66dd:	48 8b 45 a8          	mov    -0x58(%rbp),%rax
    66e1:	48 8b 40 10          	mov    0x10(%rax),%rax
    66e5:	48 39 c2             	cmp    %rax,%rdx
    66e8:	0f 84 a7 00 00 00    	je     6795 <_ZNSt6vectorINSt7__cxx1112basic_stringIcSt11char_traitsIcESaIcEEESaIS5_EE9push_backERKS5_+0xdb>
    66ee:	48 8b 45 a8          	mov    -0x58(%rbp),%rax
    66f2:	48 8b 40 08          	mov    0x8(%rax),%rax
    66f6:	48 8b 55 a8          	mov    -0x58(%rbp),%rdx
    66fa:	48 89 55 b0          	mov    %rdx,-0x50(%rbp)
    66fe:	48 89 45 b8          	mov    %rax,-0x48(%rbp)
    6702:	48 8b 45 a0          	mov    -0x60(%rbp),%rax
    6706:	48 89 45 c0          	mov    %rax,-0x40(%rbp)
    670a:	48 8b 45 c0          	mov    -0x40(%rbp),%rax
    670e:	48 89 c7             	mov    %rax,%rdi
    6711:	e8 a2 28 00 00       	call   8fb8 <_ZSt7forwardIRKNSt7__cxx1112basic_stringIcSt11char_traitsIcESaIcEEEEOT_RNSt16remove_referenceIS8_E4typeE>
    6716:	48 8b 55 b0          	mov    -0x50(%rbp),%rdx
    671a:	48 89 55 c8          	mov    %rdx,-0x38(%rbp)
    671e:	48 8b 55 b8          	mov    -0x48(%rbp),%rdx
    6722:	48 89 55 d0          	mov    %rdx,-0x30(%rbp)
    6726:	48 89 45 d8          	mov    %rax,-0x28(%rbp)
    672a:	48 8b 5d d0          	mov    -0x30(%rbp),%rbx
    672e:	48 89 de             	mov    %rbx,%rsi
    6731:	bf 20 00 00 00       	mov    $0x20,%edi
    6736:	e8 9b f0 ff ff       	call   57d6 <_ZnwmPv>
    673b:	49 89 c4             	mov    %rax,%r12
    673e:	41 be 01 00 00 00    	mov    $0x1,%r14d
    6744:	48 8b 45 d8          	mov    -0x28(%rbp),%rax
    6748:	48 89 c7             	mov    %rax,%rdi
    674b:	e8 68 28 00 00       	call   8fb8 <_ZSt7forwardIRKNSt7__cxx1112basic_stringIcSt11char_traitsIcESaIcEEEEOT_RNSt16remove_referenceIS8_E4typeE>
    6750:	48 89 c6             	mov    %rax,%rsi
    6753:	4c 89 e7             	mov    %r12,%rdi
    6756:	e8 45 ce ff ff       	call   35a0 <_init+0x5a0>
    675b:	90                   	nop
    675c:	90                   	nop
    675d:	48 8b 45 a8          	mov    -0x58(%rbp),%rax
    6761:	48 8b 40 08          	mov    0x8(%rax),%rax
    6765:	48 8d 50 20          	lea    0x20(%rax),%rdx
    6769:	48 8b 45 a8          	mov    -0x58(%rbp),%rax
    676d:	48 89 50 08          	mov    %rdx,0x8(%rax)
    6771:	eb 44                	jmp    67b7 <_ZNSt6vectorINSt7__cxx1112basic_stringIcSt11char_traitsIcESaIcEEESaIS5_EE9push_backERKS5_+0xfd>
    6773:	f3 0f 1e fa          	endbr64 
    6777:	49 89 c5             	mov    %rax,%r13
    677a:	45 84 f6             	test   %r14b,%r14b
    677d:	74 0b                	je     678a <_ZNSt6vectorINSt7__cxx1112basic_stringIcSt11char_traitsIcESaIcEEESaIS5_EE9push_backERKS5_+0xd0>
    677f:	48 89 de             	mov    %rbx,%rsi
    6782:	4c 89 e7             	mov    %r12,%rdi
    6785:	e8 62 f0 ff ff       	call   57ec <_ZdlPvS_>
    678a:	4c 89 e8             	mov    %r13,%rax
    678d:	48 89 c7             	mov    %rax,%rdi
    6790:	e8 7b d1 ff ff       	call   3910 <_init+0x910>
    6795:	48 8b 45 a8          	mov    -0x58(%rbp),%rax
    6799:	48 89 c7             	mov    %rax,%rdi
    679c:	e8 21 14 00 00       	call   7bc2 <_ZNSt6vectorINSt7__cxx1112basic_stringIcSt11char_traitsIcESaIcEEESaIS5_EE3endEv>
    67a1:	48 89 c1             	mov    %rax,%rcx
    67a4:	48 8b 55 a0          	mov    -0x60(%rbp),%rdx
    67a8:	48 8b 45 a8          	mov    -0x58(%rbp),%rax
    67ac:	48 89 ce             	mov    %rcx,%rsi
    67af:	48 89 c7             	mov    %rax,%rdi
    67b2:	e8 5b 14 00 00       	call   7c12 <_ZNSt6vectorINSt7__cxx1112basic_stringIcSt11char_traitsIcESaIcEEESaIS5_EE17_M_realloc_insertIJRKS5_EEEvN9__gnu_cxx17__normal_iteratorIPS5_S7_EEDpOT_>
    67b7:	90                   	nop
    67b8:	48 83 c4 40          	add    $0x40,%rsp
    67bc:	5b                   	pop    %rbx
    67bd:	41 5c                	pop    %r12
    67bf:	41 5d                	pop    %r13
    67c1:	41 5e                	pop    %r14
    67c3:	5d                   	pop    %rbp
    67c4:	c3                   	ret    

00000000000067c5 <_ZStplIcSt11char_traitsIcESaIcEENSt7__cxx1112basic_stringIT_T0_T1_EEOS8_PKS5_>:
    67c5:	f3 0f 1e fa          	endbr64 
    67c9:	55                   	push   %rbp
    67ca:	48 89 e5             	mov    %rsp,%rbp
    67cd:	48 83 ec 20          	sub    $0x20,%rsp
    67d1:	48 89 7d f8          	mov    %rdi,-0x8(%rbp)
    67d5:	48 89 75 f0          	mov    %rsi,-0x10(%rbp)
    67d9:	48 89 55 e8          	mov    %rdx,-0x18(%rbp)
    67dd:	48 8b 55 e8          	mov    -0x18(%rbp),%rdx
    67e1:	48 8b 45 f0          	mov    -0x10(%rbp),%rax
    67e5:	48 89 d6             	mov    %rdx,%rsi
    67e8:	48 89 c7             	mov    %rax,%rdi
    67eb:	e8 50 d1 ff ff       	call   3940 <_init+0x940>
    67f0:	48 89 c7             	mov    %rax,%rdi
    67f3:	e8 55 06 00 00       	call   6e4d <_ZSt4moveIRNSt7__cxx1112basic_stringIcSt11char_traitsIcESaIcEEEEONSt16remove_referenceIT_E4typeEOS8_>
    67f8:	48 89 c2             	mov    %rax,%rdx
    67fb:	48 8b 45 f8          	mov    -0x8(%rbp),%rax
    67ff:	48 89 d6             	mov    %rdx,%rsi
    6802:	48 89 c7             	mov    %rax,%rdi
    6805:	e8 d6 cd ff ff       	call   35e0 <_init+0x5e0>
    680a:	48 8b 45 f8          	mov    -0x8(%rbp),%rax
    680e:	c9                   	leave  
    680f:	c3                   	ret    

0000000000006810 <_ZStplIcSt11char_traitsIcESaIcEENSt7__cxx1112basic_stringIT_T0_T1_EERKS8_PKS5_>:
    6810:	f3 0f 1e fa          	endbr64 
    6814:	55                   	push   %rbp
    6815:	48 89 e5             	mov    %rsp,%rbp
    6818:	41 54                	push   %r12
    681a:	53                   	push   %rbx
    681b:	48 83 ec 30          	sub    $0x30,%rsp
    681f:	48 89 7d d8          	mov    %rdi,-0x28(%rbp)
    6823:	48 89 75 d0          	mov    %rsi,-0x30(%rbp)
    6827:	48 89 55 c8          	mov    %rdx,-0x38(%rbp)
    682b:	64 48 8b 04 25 28 00 	mov    %fs:0x28,%rax
    6832:	00 00 
    6834:	48 89 45 e8          	mov    %rax,-0x18(%rbp)
    6838:	31 c0                	xor    %eax,%eax
    683a:	48 8d 45 e7          	lea    -0x19(%rbp),%rax
    683e:	48 8b 55 d0          	mov    -0x30(%rbp),%rdx
    6842:	48 89 d6             	mov    %rdx,%rsi
    6845:	48 89 c7             	mov    %rax,%rdi
    6848:	e8 23 cd ff ff       	call   3570 <_init+0x570>
    684d:	48 8b 45 c8          	mov    -0x38(%rbp),%rax
    6851:	48 89 c7             	mov    %rax,%rdi
    6854:	e8 a6 ef ff ff       	call   57ff <_ZNSt11char_traitsIcE6lengthEPKc>
    6859:	49 89 c4             	mov    %rax,%r12
    685c:	48 8b 45 d0          	mov    -0x30(%rbp),%rax
    6860:	48 89 c7             	mov    %rax,%rdi
    6863:	e8 d8 cd ff ff       	call   3640 <_init+0x640>
    6868:	48 89 c3             	mov    %rax,%rbx
    686b:	48 8b 45 d0          	mov    -0x30(%rbp),%rax
    686f:	48 89 c7             	mov    %rax,%rdi
    6872:	e8 19 cd ff ff       	call   3590 <_init+0x590>
    6877:	48 89 c6             	mov    %rax,%rsi
    687a:	48 8b 45 d8          	mov    -0x28(%rbp),%rax
    687e:	48 8d 4d e7          	lea    -0x19(%rbp),%rcx
    6882:	48 8b 55 c8          	mov    -0x38(%rbp),%rdx
    6886:	49 89 c9             	mov    %rcx,%r9
    6889:	4d 89 e0             	mov    %r12,%r8
    688c:	48 89 d1             	mov    %rdx,%rcx
    688f:	48 89 da             	mov    %rbx,%rdx
    6892:	48 89 c7             	mov    %rax,%rdi
    6895:	e8 c0 10 00 00       	call   795a <_ZSt12__str_concatINSt7__cxx1112basic_stringIcSt11char_traitsIcESaIcEEEET_PKNS6_10value_typeENS6_9size_typeES9_SA_RKNS6_14allocator_typeE>
    689a:	48 8d 45 e7          	lea    -0x19(%rbp),%rax
    689e:	48 89 c7             	mov    %rax,%rdi
    68a1:	e8 32 04 00 00       	call   6cd8 <_ZNSt15__new_allocatorIcED1Ev>
    68a6:	90                   	nop
    68a7:	90                   	nop
    68a8:	48 8b 45 e8          	mov    -0x18(%rbp),%rax
    68ac:	64 48 2b 04 25 28 00 	sub    %fs:0x28,%rax
    68b3:	00 00 
    68b5:	74 3a                	je     68f1 <_ZStplIcSt11char_traitsIcESaIcEENSt7__cxx1112basic_stringIT_T0_T1_EERKS8_PKS5_+0xe1>
    68b7:	eb 33                	jmp    68ec <_ZStplIcSt11char_traitsIcESaIcEENSt7__cxx1112basic_stringIT_T0_T1_EERKS8_PKS5_+0xdc>
    68b9:	f3 0f 1e fa          	endbr64 
    68bd:	48 89 c3             	mov    %rax,%rbx
    68c0:	48 8d 45 e7          	lea    -0x19(%rbp),%rax
    68c4:	48 89 c7             	mov    %rax,%rdi
    68c7:	e8 0c 04 00 00       	call   6cd8 <_ZNSt15__new_allocatorIcED1Ev>
    68cc:	90                   	nop
    68cd:	48 89 d8             	mov    %rbx,%rax
    68d0:	48 8b 55 e8          	mov    -0x18(%rbp),%rdx
    68d4:	64 48 2b 14 25 28 00 	sub    %fs:0x28,%rdx
    68db:	00 00 
    68dd:	74 05                	je     68e4 <_ZStplIcSt11char_traitsIcESaIcEENSt7__cxx1112basic_stringIT_T0_T1_EERKS8_PKS5_+0xd4>
    68df:	e8 9c ce ff ff       	call   3780 <_init+0x780>
    68e4:	48 89 c7             	mov    %rax,%rdi
    68e7:	e8 24 d0 ff ff       	call   3910 <_init+0x910>
    68ec:	e8 8f ce ff ff       	call   3780 <_init+0x780>
    68f1:	48 8b 45 d8          	mov    -0x28(%rbp),%rax
    68f5:	48 83 c4 30          	add    $0x30,%rsp
    68f9:	5b                   	pop    %rbx
    68fa:	41 5c                	pop    %r12
    68fc:	5d                   	pop    %rbp
    68fd:	c3                   	ret    

00000000000068fe <_ZNSt6vectorINSt7__cxx1112basic_stringIcSt11char_traitsIcESaIcEEESaIS5_EEC1ESt16initializer_listIS5_ERKS6_>:
    68fe:	f3 0f 1e fa          	endbr64 
    6902:	55                   	push   %rbp
    6903:	48 89 e5             	mov    %rsp,%rbp
    6906:	53                   	push   %rbx
    6907:	48 83 ec 38          	sub    $0x38,%rsp
    690b:	48 89 7d d8          	mov    %rdi,-0x28(%rbp)
    690f:	48 89 f0             	mov    %rsi,%rax
    6912:	48 89 d6             	mov    %rdx,%rsi
    6915:	48 89 f2             	mov    %rsi,%rdx
    6918:	48 89 45 c0          	mov    %rax,-0x40(%rbp)
    691c:	48 89 55 c8          	mov    %rdx,-0x38(%rbp)
    6920:	48 89 4d d0          	mov    %rcx,-0x30(%rbp)
    6924:	64 48 8b 04 25 28 00 	mov    %fs:0x28,%rax
    692b:	00 00 
    692d:	48 89 45 e8          	mov    %rax,-0x18(%rbp)
    6931:	31 c0                	xor    %eax,%eax
    6933:	48 8b 45 d8          	mov    -0x28(%rbp),%rax
    6937:	48 8b 55 d0          	mov    -0x30(%rbp),%rdx
    693b:	48 89 d6             	mov    %rdx,%rsi
    693e:	48 89 c7             	mov    %rax,%rdi
    6941:	e8 e6 0e 00 00       	call   782c <_ZNSt12_Vector_baseINSt7__cxx1112basic_stringIcSt11char_traitsIcESaIcEEESaIS5_EEC1ERKS6_>
    6946:	48 8d 45 c0          	lea    -0x40(%rbp),%rax
    694a:	48 89 c7             	mov    %rax,%rdi
    694d:	e8 a4 16 00 00       	call   7ff6 <_ZNKSt16initializer_listINSt7__cxx1112basic_stringIcSt11char_traitsIcESaIcEEEE3endEv>
    6952:	48 89 c3             	mov    %rax,%rbx
    6955:	48 8d 45 c0          	lea    -0x40(%rbp),%rax
    6959:	48 89 c7             	mov    %rax,%rdi
    695c:	e8 7f 16 00 00       	call   7fe0 <_ZNKSt16initializer_listINSt7__cxx1112basic_stringIcSt11char_traitsIcESaIcEEEE5beginEv>
    6961:	48 89 c1             	mov    %rax,%rcx
    6964:	48 8b 45 d8          	mov    -0x28(%rbp),%rax
    6968:	48 89 da             	mov    %rbx,%rdx
    696b:	48 89 ce             	mov    %rcx,%rsi
    696e:	48 89 c7             	mov    %rax,%rdi
    6971:	e8 ba 16 00 00       	call   8030 <_ZNSt6vectorINSt7__cxx1112basic_stringIcSt11char_traitsIcESaIcEEESaIS5_EE19_M_range_initializeIPKS5_EEvT_SB_St20forward_iterator_tag>
    6976:	eb 32                	jmp    69aa <_ZNSt6vectorINSt7__cxx1112basic_stringIcSt11char_traitsIcESaIcEEESaIS5_EEC1ESt16initializer_listIS5_ERKS6_+0xac>
    6978:	f3 0f 1e fa          	endbr64 
    697c:	48 89 c3             	mov    %rax,%rbx
    697f:	48 8b 45 d8          	mov    -0x28(%rbp),%rax
    6983:	48 89 c7             	mov    %rax,%rdi
    6986:	e8 2d fc ff ff       	call   65b8 <_ZNSt12_Vector_baseINSt7__cxx1112basic_stringIcSt11char_traitsIcESaIcEEESaIS5_EED1Ev>
    698b:	48 89 d8             	mov    %rbx,%rax
    698e:	48 8b 55 e8          	mov    -0x18(%rbp),%rdx
    6992:	64 48 2b 14 25 28 00 	sub    %fs:0x28,%rdx
    6999:	00 00 
    699b:	74 05                	je     69a2 <_ZNSt6vectorINSt7__cxx1112basic_stringIcSt11char_traitsIcESaIcEEESaIS5_EEC1ESt16initializer_listIS5_ERKS6_+0xa4>
    699d:	e8 de cd ff ff       	call   3780 <_init+0x780>
    69a2:	48 89 c7             	mov    %rax,%rdi
    69a5:	e8 66 cf ff ff       	call   3910 <_init+0x910>
    69aa:	48 8b 45 e8          	mov    -0x18(%rbp),%rax
    69ae:	64 48 2b 04 25 28 00 	sub    %fs:0x28,%rax
    69b5:	00 00 
    69b7:	74 05                	je     69be <_ZNSt6vectorINSt7__cxx1112basic_stringIcSt11char_traitsIcESaIcEEESaIS5_EEC1ESt16initializer_listIS5_ERKS6_+0xc0>
    69b9:	e8 c2 cd ff ff       	call   3780 <_init+0x780>
    69be:	48 8b 5d f8          	mov    -0x8(%rbp),%rbx
    69c2:	c9                   	leave  
    69c3:	c3                   	ret    

00000000000069c4 <_ZNSt8_Rb_treeINSt7__cxx1112basic_stringIcSt11char_traitsIcESaIcEEES5_St9_IdentityIS5_ESt4lessIS5_ESaIS5_EE13_Rb_tree_implIS9_Lb1EED1Ev>:
    69c4:	f3 0f 1e fa          	endbr64 
    69c8:	55                   	push   %rbp
    69c9:	48 89 e5             	mov    %rsp,%rbp
    69cc:	48 83 ec 20          	sub    $0x20,%rsp
    69d0:	48 89 7d e8          	mov    %rdi,-0x18(%rbp)
    69d4:	48 8b 45 e8          	mov    -0x18(%rbp),%rax
    69d8:	48 89 45 f8          	mov    %rax,-0x8(%rbp)
    69dc:	48 8b 45 f8          	mov    -0x8(%rbp),%rax
    69e0:	48 89 c7             	mov    %rax,%rdi
    69e3:	e8 2e 28 00 00       	call   9216 <_ZNSt15__new_allocatorISt13_Rb_tree_nodeINSt7__cxx1112basic_stringIcSt11char_traitsIcESaIcEEEEED1Ev>
    69e8:	90                   	nop
    69e9:	90                   	nop
    69ea:	c9                   	leave  
    69eb:	c3                   	ret    

00000000000069ec <_ZNSt8_Rb_treeINSt7__cxx1112basic_stringIcSt11char_traitsIcESaIcEEES5_St9_IdentityIS5_ESt4lessIS5_ESaIS5_EEC1Ev>:
    69ec:	f3 0f 1e fa          	endbr64 
    69f0:	55                   	push   %rbp
    69f1:	48 89 e5             	mov    %rsp,%rbp
    69f4:	48 83 ec 10          	sub    $0x10,%rsp
    69f8:	48 89 7d f8          	mov    %rdi,-0x8(%rbp)
    69fc:	48 8b 45 f8          	mov    -0x8(%rbp),%rax
    6a00:	48 89 c7             	mov    %rax,%rdi
    6a03:	e8 1a 17 00 00       	call   8122 <_ZNSt8_Rb_treeINSt7__cxx1112basic_stringIcSt11char_traitsIcESaIcEEES5_St9_IdentityIS5_ESt4lessIS5_ESaIS5_EE13_Rb_tree_implIS9_Lb1EEC1Ev>
    6a08:	90                   	nop
    6a09:	c9                   	leave  
    6a0a:	c3                   	ret    
    6a0b:	90                   	nop

0000000000006a0c <_ZNSt3setINSt7__cxx1112basic_stringIcSt11char_traitsIcESaIcEEESt4lessIS5_ESaIS5_EEC1IPKPKcEET_SF_>:
    6a0c:	f3 0f 1e fa          	endbr64 
    6a10:	55                   	push   %rbp
    6a11:	48 89 e5             	mov    %rsp,%rbp
    6a14:	53                   	push   %rbx
    6a15:	48 83 ec 28          	sub    $0x28,%rsp
    6a19:	48 89 7d e8          	mov    %rdi,-0x18(%rbp)
    6a1d:	48 89 75 e0          	mov    %rsi,-0x20(%rbp)
    6a21:	48 89 55 d8          	mov    %rdx,-0x28(%rbp)
    6a25:	48 8b 45 e8          	mov    -0x18(%rbp),%rax
    6a29:	66 0f ef c0          	pxor   %xmm0,%xmm0
    6a2d:	0f 11 00             	movups %xmm0,(%rax)
    6a30:	0f 11 40 10          	movups %xmm0,0x10(%rax)
    6a34:	0f 11 40 20          	movups %xmm0,0x20(%rax)
    6a38:	48 8b 45 e8          	mov    -0x18(%rbp),%rax
    6a3c:	48 89 c7             	mov    %rax,%rdi
    6a3f:	e8 a8 ff ff ff       	call   69ec <_ZNSt8_Rb_treeINSt7__cxx1112basic_stringIcSt11char_traitsIcESaIcEEES5_St9_IdentityIS5_ESt4lessIS5_ESaIS5_EEC1Ev>
    6a44:	48 8b 45 e8          	mov    -0x18(%rbp),%rax
    6a48:	48 8b 55 d8          	mov    -0x28(%rbp),%rdx
    6a4c:	48 8b 4d e0          	mov    -0x20(%rbp),%rcx
    6a50:	48 89 ce             	mov    %rcx,%rsi
    6a53:	48 89 c7             	mov    %rax,%rdi
    6a56:	e8 09 17 00 00       	call   8164 <_ZNSt8_Rb_treeINSt7__cxx1112basic_stringIcSt11char_traitsIcESaIcEEES5_St9_IdentityIS5_ESt4lessIS5_ESaIS5_EE22_M_insert_range_uniqueIPKPKcEENSt9enable_ifIXntsrSt7is_sameIS5_NSt15iterator_traitsIT_E10value_typeEE5valueEvE4typeESK_SK_>
    6a5b:	eb 1e                	jmp    6a7b <_ZNSt3setINSt7__cxx1112basic_stringIcSt11char_traitsIcESaIcEEESt4lessIS5_ESaIS5_EEC1IPKPKcEET_SF_+0x6f>
    6a5d:	f3 0f 1e fa          	endbr64 
    6a61:	48 89 c3             	mov    %rax,%rbx
    6a64:	48 8b 45 e8          	mov    -0x18(%rbp),%rax
    6a68:	48 89 c7             	mov    %rax,%rdi
    6a6b:	e8 12 00 00 00       	call   6a82 <_ZNSt8_Rb_treeINSt7__cxx1112basic_stringIcSt11char_traitsIcESaIcEEES5_St9_IdentityIS5_ESt4lessIS5_ESaIS5_EED1Ev>
    6a70:	48 89 d8             	mov    %rbx,%rax
    6a73:	48 89 c7             	mov    %rax,%rdi
    6a76:	e8 95 ce ff ff       	call   3910 <_init+0x910>
    6a7b:	48 8b 5d f8          	mov    -0x8(%rbp),%rbx
    6a7f:	c9                   	leave  
    6a80:	c3                   	ret    
    6a81:	90                   	nop

0000000000006a82 <_ZNSt8_Rb_treeINSt7__cxx1112basic_stringIcSt11char_traitsIcESaIcEEES5_St9_IdentityIS5_ESt4lessIS5_ESaIS5_EED1Ev>:
    6a82:	f3 0f 1e fa          	endbr64 
    6a86:	55                   	push   %rbp
    6a87:	48 89 e5             	mov    %rsp,%rbp
    6a8a:	48 83 ec 10          	sub    $0x10,%rsp
    6a8e:	48 89 7d f8          	mov    %rdi,-0x8(%rbp)
    6a92:	48 8b 45 f8          	mov    -0x8(%rbp),%rax
    6a96:	48 89 c7             	mov    %rax,%rdi
    6a99:	e8 70 17 00 00       	call   820e <_ZNSt8_Rb_treeINSt7__cxx1112basic_stringIcSt11char_traitsIcESaIcEEES5_St9_IdentityIS5_ESt4lessIS5_ESaIS5_EE8_M_beginEv>
    6a9e:	48 89 c2             	mov    %rax,%rdx
    6aa1:	48 8b 45 f8          	mov    -0x8(%rbp),%rax
    6aa5:	48 89 d6             	mov    %rdx,%rsi
    6aa8:	48 89 c7             	mov    %rax,%rdi
    6aab:	e8 f4 16 00 00       	call   81a4 <_ZNSt8_Rb_treeINSt7__cxx1112basic_stringIcSt11char_traitsIcESaIcEEES5_St9_IdentityIS5_ESt4lessIS5_ESaIS5_EE8_M_eraseEPSt13_Rb_tree_nodeIS5_E>
    6ab0:	48 8b 45 f8          	mov    -0x8(%rbp),%rax
    6ab4:	48 89 c7             	mov    %rax,%rdi
    6ab7:	e8 08 ff ff ff       	call   69c4 <_ZNSt8_Rb_treeINSt7__cxx1112basic_stringIcSt11char_traitsIcESaIcEEES5_St9_IdentityIS5_ESt4lessIS5_ESaIS5_EE13_Rb_tree_implIS9_Lb1EED1Ev>
    6abc:	90                   	nop
    6abd:	c9                   	leave  
    6abe:	c3                   	ret    
    6abf:	90                   	nop

0000000000006ac0 <_ZNKSt6vectorINSt7__cxx1112basic_stringIcSt11char_traitsIcESaIcEEESaIS5_EE4sizeEv>:
    6ac0:	f3 0f 1e fa          	endbr64 
    6ac4:	55                   	push   %rbp
    6ac5:	48 89 e5             	mov    %rsp,%rbp
    6ac8:	48 89 7d f8          	mov    %rdi,-0x8(%rbp)
    6acc:	48 8b 45 f8          	mov    -0x8(%rbp),%rax
    6ad0:	48 8b 50 08          	mov    0x8(%rax),%rdx
    6ad4:	48 8b 45 f8          	mov    -0x8(%rbp),%rax
    6ad8:	48 8b 00             	mov    (%rax),%rax
    6adb:	48 29 c2             	sub    %rax,%rdx
    6ade:	48 89 d0             	mov    %rdx,%rax
    6ae1:	48 c1 f8 05          	sar    $0x5,%rax
    6ae5:	5d                   	pop    %rbp
    6ae6:	c3                   	ret    
    6ae7:	90                   	nop

0000000000006ae8 <_ZNSt6vectorINSt7__cxx1112basic_stringIcSt11char_traitsIcESaIcEEESaIS5_EEixEm>:
    6ae8:	f3 0f 1e fa          	endbr64 
    6aec:	55                   	push   %rbp
    6aed:	48 89 e5             	mov    %rsp,%rbp
    6af0:	48 89 7d f8          	mov    %rdi,-0x8(%rbp)
    6af4:	48 89 75 f0          	mov    %rsi,-0x10(%rbp)
    6af8:	48 8b 45 f8          	mov    -0x8(%rbp),%rax
    6afc:	48 8b 00             	mov    (%rax),%rax
    6aff:	48 8b 55 f0          	mov    -0x10(%rbp),%rdx
    6b03:	48 c1 e2 05          	shl    $0x5,%rdx
    6b07:	48 01 d0             	add    %rdx,%rax
    6b0a:	5d                   	pop    %rbp
    6b0b:	c3                   	ret    

0000000000006b0c <_ZNSt6vectorISt3mapINSt7__cxx1112basic_stringIcSt11char_traitsIcESaIcEEES6_St4lessIS6_ESaISt4pairIKS6_S6_EEESaISD_EEaSEOSF_>:
    6b0c:	f3 0f 1e fa          	endbr64 
    6b10:	55                   	push   %rbp
    6b11:	48 89 e5             	mov    %rsp,%rbp
    6b14:	48 83 ec 20          	sub    $0x20,%rsp
    6b18:	48 89 7d e8          	mov    %rdi,-0x18(%rbp)
    6b1c:	48 89 75 e0          	mov    %rsi,-0x20(%rbp)
    6b20:	c6 45 ff 01          	movb   $0x1,-0x1(%rbp)
    6b24:	48 8b 45 e0          	mov    -0x20(%rbp),%rax
    6b28:	48 89 c7             	mov    %rax,%rdi
    6b2b:	e8 fc 16 00 00       	call   822c <_ZSt4moveIRSt6vectorISt3mapINSt7__cxx1112basic_stringIcSt11char_traitsIcESaIcEEES7_St4lessIS7_ESaISt4pairIKS7_S7_EEESaISE_EEEONSt16remove_referenceIT_E4typeEOSJ_>
    6b30:	48 89 c2             	mov    %rax,%rdx
    6b33:	48 8b 45 e8          	mov    -0x18(%rbp),%rax
    6b37:	48 89 d6             	mov    %rdx,%rsi
    6b3a:	48 89 c7             	mov    %rax,%rdi
    6b3d:	e8 fc 16 00 00       	call   823e <_ZNSt6vectorISt3mapINSt7__cxx1112basic_stringIcSt11char_traitsIcESaIcEEES6_St4lessIS6_ESaISt4pairIKS6_S6_EEESaISD_EE14_M_move_assignEOSF_St17integral_constantIbLb1EE>
    6b42:	48 8b 45 e8          	mov    -0x18(%rbp),%rax
    6b46:	c9                   	leave  
    6b47:	c3                   	ret    

0000000000006b48 <_ZNSt6vectorISt3mapINSt7__cxx1112basic_stringIcSt11char_traitsIcESaIcEEES6_St4lessIS6_ESaISt4pairIKS6_S6_EEESaISD_EE5beginEv>:
    6b48:	f3 0f 1e fa          	endbr64 
    6b4c:	55                   	push   %rbp
    6b4d:	48 89 e5             	mov    %rsp,%rbp
    6b50:	48 83 ec 20          	sub    $0x20,%rsp
    6b54:	48 89 7d e8          	mov    %rdi,-0x18(%rbp)
    6b58:	64 48 8b 04 25 28 00 	mov    %fs:0x28,%rax
    6b5f:	00 00 
    6b61:	48 89 45 f8          	mov    %rax,-0x8(%rbp)
    6b65:	31 c0                	xor    %eax,%eax
    6b67:	48 8b 55 e8          	mov    -0x18(%rbp),%rdx
    6b6b:	48 8d 45 f0          	lea    -0x10(%rbp),%rax
    6b6f:	48 89 d6             	mov    %rdx,%rsi
    6b72:	48 89 c7             	mov    %rax,%rdi
    6b75:	e8 98 17 00 00       	call   8312 <_ZN9__gnu_cxx17__normal_iteratorIPSt3mapINSt7__cxx1112basic_stringIcSt11char_traitsIcESaIcEEES7_St4lessIS7_ESaISt4pairIKS7_S7_EEESt6vectorISE_SaISE_EEEC1ERKSF_>
    6b7a:	48 8b 45 f0          	mov    -0x10(%rbp),%rax
    6b7e:	48 8b 55 f8          	mov    -0x8(%rbp),%rdx
    6b82:	64 48 2b 14 25 28 00 	sub    %fs:0x28,%rdx
    6b89:	00 00 
    6b8b:	74 05                	je     6b92 <_ZNSt6vectorISt3mapINSt7__cxx1112basic_stringIcSt11char_traitsIcESaIcEEES6_St4lessIS6_ESaISt4pairIKS6_S6_EEESaISD_EE5beginEv+0x4a>
    6b8d:	e8 ee cb ff ff       	call   3780 <_init+0x780>
    6b92:	c9                   	leave  
    6b93:	c3                   	ret    

0000000000006b94 <_ZNSt6vectorISt3mapINSt7__cxx1112basic_stringIcSt11char_traitsIcESaIcEEES6_St4lessIS6_ESaISt4pairIKS6_S6_EEESaISD_EE3endEv>:
    6b94:	f3 0f 1e fa          	endbr64 
    6b98:	55                   	push   %rbp
    6b99:	48 89 e5             	mov    %rsp,%rbp
    6b9c:	48 83 ec 20          	sub    $0x20,%rsp
    6ba0:	48 89 7d e8          	mov    %rdi,-0x18(%rbp)
    6ba4:	64 48 8b 04 25 28 00 	mov    %fs:0x28,%rax
    6bab:	00 00 
    6bad:	48 89 45 f8          	mov    %rax,-0x8(%rbp)
    6bb1:	31 c0                	xor    %eax,%eax
    6bb3:	48 8b 45 e8          	mov    -0x18(%rbp),%rax
    6bb7:	48 8d 50 08          	lea    0x8(%rax),%rdx
    6bbb:	48 8d 45 f0          	lea    -0x10(%rbp),%rax
    6bbf:	48 89 d6             	mov    %rdx,%rsi
    6bc2:	48 89 c7             	mov    %rax,%rdi
    6bc5:	e8 48 17 00 00       	call   8312 <_ZN9__gnu_cxx17__normal_iteratorIPSt3mapINSt7__cxx1112basic_stringIcSt11char_traitsIcESaIcEEES7_St4lessIS7_ESaISt4pairIKS7_S7_EEESt6vectorISE_SaISE_EEEC1ERKSF_>
    6bca:	48 8b 45 f0          	mov    -0x10(%rbp),%rax
    6bce:	48 8b 55 f8          	mov    -0x8(%rbp),%rdx
    6bd2:	64 48 2b 14 25 28 00 	sub    %fs:0x28,%rdx
    6bd9:	00 00 
    6bdb:	74 05                	je     6be2 <_ZNSt6vectorISt3mapINSt7__cxx1112basic_stringIcSt11char_traitsIcESaIcEEES6_St4lessIS6_ESaISt4pairIKS6_S6_EEESaISD_EE3endEv+0x4e>
    6bdd:	e8 9e cb ff ff       	call   3780 <_init+0x780>
    6be2:	c9                   	leave  
    6be3:	c3                   	ret    

0000000000006be4 <_ZN9__gnu_cxxneIPSt3mapINSt7__cxx1112basic_stringIcSt11char_traitsIcESaIcEEES7_St4lessIS7_ESaISt4pairIKS7_S7_EEESt6vectorISE_SaISE_EEEEbRKNS_17__normal_iteratorIT_T0_EESO_>:
    6be4:	f3 0f 1e fa          	endbr64 
    6be8:	55                   	push   %rbp
    6be9:	48 89 e5             	mov    %rsp,%rbp
    6bec:	53                   	push   %rbx
    6bed:	48 83 ec 18          	sub    $0x18,%rsp
    6bf1:	48 89 7d e8          	mov    %rdi,-0x18(%rbp)
    6bf5:	48 89 75 e0          	mov    %rsi,-0x20(%rbp)
    6bf9:	48 8b 45 e8          	mov    -0x18(%rbp),%rax
    6bfd:	48 89 c7             	mov    %rax,%rdi
    6c00:	e8 2f 17 00 00       	call   8334 <_ZNK9__gnu_cxx17__normal_iteratorIPSt3mapINSt7__cxx1112basic_stringIcSt11char_traitsIcESaIcEEES7_St4lessIS7_ESaISt4pairIKS7_S7_EEESt6vectorISE_SaISE_EEE4baseEv>
    6c05:	48 8b 18             	mov    (%rax),%rbx
    6c08:	48 8b 45 e0          	mov    -0x20(%rbp),%rax
    6c0c:	48 89 c7             	mov    %rax,%rdi
    6c0f:	e8 20 17 00 00       	call   8334 <_ZNK9__gnu_cxx17__normal_iteratorIPSt3mapINSt7__cxx1112basic_stringIcSt11char_traitsIcESaIcEEES7_St4lessIS7_ESaISt4pairIKS7_S7_EEESt6vectorISE_SaISE_EEE4baseEv>
    6c14:	48 8b 00             	mov    (%rax),%rax
    6c17:	48 39 c3             	cmp    %rax,%rbx
    6c1a:	0f 95 c0             	setne  %al
    6c1d:	48 8b 5d f8          	mov    -0x8(%rbp),%rbx
    6c21:	c9                   	leave  
    6c22:	c3                   	ret    
    6c23:	90                   	nop

0000000000006c24 <_ZN9__gnu_cxx17__normal_iteratorIPSt3mapINSt7__cxx1112basic_stringIcSt11char_traitsIcESaIcEEES7_St4lessIS7_ESaISt4pairIKS7_S7_EEESt6vectorISE_SaISE_EEEppEv>:
    6c24:	f3 0f 1e fa          	endbr64 
    6c28:	55                   	push   %rbp
    6c29:	48 89 e5             	mov    %rsp,%rbp
    6c2c:	48 89 7d f8          	mov    %rdi,-0x8(%rbp)
    6c30:	48 8b 45 f8          	mov    -0x8(%rbp),%rax
    6c34:	48 8b 00             	mov    (%rax),%rax
    6c37:	48 8d 50 30          	lea    0x30(%rax),%rdx
    6c3b:	48 8b 45 f8          	mov    -0x8(%rbp),%rax
    6c3f:	48 89 10             	mov    %rdx,(%rax)
    6c42:	48 8b 45 f8          	mov    -0x8(%rbp),%rax
    6c46:	5d                   	pop    %rbp
    6c47:	c3                   	ret    

0000000000006c48 <_ZNK9__gnu_cxx17__normal_iteratorIPSt3mapINSt7__cxx1112basic_stringIcSt11char_traitsIcESaIcEEES7_St4lessIS7_ESaISt4pairIKS7_S7_EEESt6vectorISE_SaISE_EEEdeEv>:
    6c48:	f3 0f 1e fa          	endbr64 
    6c4c:	55                   	push   %rbp
    6c4d:	48 89 e5             	mov    %rsp,%rbp
    6c50:	48 89 7d f8          	mov    %rdi,-0x8(%rbp)
    6c54:	48 8b 45 f8          	mov    -0x8(%rbp),%rax
    6c58:	48 8b 00             	mov    (%rax),%rax
    6c5b:	5d                   	pop    %rbp
    6c5c:	c3                   	ret    
    6c5d:	90                   	nop

0000000000006c5e <_ZNSt10lock_guardISt5mutexEC1ERS0_>:
    6c5e:	f3 0f 1e fa          	endbr64 
    6c62:	55                   	push   %rbp
    6c63:	48 89 e5             	mov    %rsp,%rbp
    6c66:	48 83 ec 10          	sub    $0x10,%rsp
    6c6a:	48 89 7d f8          	mov    %rdi,-0x8(%rbp)
    6c6e:	48 89 75 f0          	mov    %rsi,-0x10(%rbp)
    6c72:	48 8b 45 f8          	mov    -0x8(%rbp),%rax
    6c76:	48 8b 55 f0          	mov    -0x10(%rbp),%rdx
    6c7a:	48 89 10             	mov    %rdx,(%rax)
    6c7d:	48 8b 45 f8          	mov    -0x8(%rbp),%rax
    6c81:	48 8b 00             	mov    (%rax),%rax
    6c84:	48 89 c7             	mov    %rax,%rdi
    6c87:	e8 08 ec ff ff       	call   5894 <_ZNSt5mutex4lockEv>
    6c8c:	90                   	nop
    6c8d:	c9                   	leave  
    6c8e:	c3                   	ret    
    6c8f:	90                   	nop

0000000000006c90 <_ZNSt10lock_guardISt5mutexED1Ev>:
    6c90:	f3 0f 1e fa          	endbr64 
    6c94:	55                   	push   %rbp
    6c95:	48 89 e5             	mov    %rsp,%rbp
    6c98:	48 83 ec 10          	sub    $0x10,%rsp
    6c9c:	48 89 7d f8          	mov    %rdi,-0x8(%rbp)
    6ca0:	48 8b 45 f8          	mov    -0x8(%rbp),%rax
    6ca4:	48 8b 00             	mov    (%rax),%rax
    6ca7:	48 89 c7             	mov    %rax,%rdi
    6caa:	e8 17 ec ff ff       	call   58c6 <_ZNSt5mutex6unlockEv>
    6caf:	90                   	nop
    6cb0:	c9                   	leave  
    6cb1:	c3                   	ret    

0000000000006cb2 <_ZN9__gnu_cxx11char_traitsIcE2eqERKcS3_>:
    6cb2:	f3 0f 1e fa          	endbr64 
    6cb6:	55                   	push   %rbp
    6cb7:	48 89 e5             	mov    %rsp,%rbp
    6cba:	48 89 7d f8          	mov    %rdi,-0x8(%rbp)
    6cbe:	48 89 75 f0          	mov    %rsi,-0x10(%rbp)
    6cc2:	48 8b 45 f8          	mov    -0x8(%rbp),%rax
    6cc6:	0f b6 10             	movzbl (%rax),%edx
    6cc9:	48 8b 45 f0          	mov    -0x10(%rbp),%rax
    6ccd:	0f b6 00             	movzbl (%rax),%eax
    6cd0:	38 c2                	cmp    %al,%dl
    6cd2:	0f 94 c0             	sete   %al
    6cd5:	5d                   	pop    %rbp
    6cd6:	c3                   	ret    
    6cd7:	90                   	nop

0000000000006cd8 <_ZNSt15__new_allocatorIcED1Ev>:
    6cd8:	f3 0f 1e fa          	endbr64 
    6cdc:	55                   	push   %rbp
    6cdd:	48 89 e5             	mov    %rsp,%rbp
    6ce0:	48 89 7d f8          	mov    %rdi,-0x8(%rbp)
    6ce4:	90                   	nop
    6ce5:	5d                   	pop    %rbp
    6ce6:	c3                   	ret    
    6ce7:	90                   	nop

0000000000006ce8 <_ZZNSt7__cxx1112basic_stringIcSt11char_traitsIcESaIcEE12_M_constructIPKcEEvT_S8_St20forward_iterator_tagEN6_GuardC1EPS4_>:
    6ce8:	f3 0f 1e fa          	endbr64 
    6cec:	55                   	push   %rbp
    6ced:	48 89 e5             	mov    %rsp,%rbp
    6cf0:	48 89 7d f8          	mov    %rdi,-0x8(%rbp)
    6cf4:	48 89 75 f0          	mov    %rsi,-0x10(%rbp)
    6cf8:	48 8b 45 f8          	mov    -0x8(%rbp),%rax
    6cfc:	48 8b 55 f0          	mov    -0x10(%rbp),%rdx
    6d00:	48 89 10             	mov    %rdx,(%rax)
    6d03:	90                   	nop
    6d04:	5d                   	pop    %rbp
    6d05:	c3                   	ret    

0000000000006d06 <_ZZNSt7__cxx1112basic_stringIcSt11char_traitsIcESaIcEE12_M_constructIPKcEEvT_S8_St20forward_iterator_tagEN6_GuardD1Ev>:
    6d06:	f3 0f 1e fa          	endbr64 
    6d0a:	55                   	push   %rbp
    6d0b:	48 89 e5             	mov    %rsp,%rbp
    6d0e:	48 83 ec 10          	sub    $0x10,%rsp
    6d12:	48 89 7d f8          	mov    %rdi,-0x8(%rbp)
    6d16:	48 8b 45 f8          	mov    -0x8(%rbp),%rax
    6d1a:	48 8b 00             	mov    (%rax),%rax
    6d1d:	48 85 c0             	test   %rax,%rax
    6d20:	74 0f                	je     6d31 <_ZZNSt7__cxx1112basic_stringIcSt11char_traitsIcESaIcEE12_M_constructIPKcEEvT_S8_St20forward_iterator_tagEN6_GuardD1Ev+0x2b>
    6d22:	48 8b 45 f8          	mov    -0x8(%rbp),%rax
    6d26:	48 8b 00             	mov    (%rax),%rax
    6d29:	48 89 c7             	mov    %rax,%rdi
    6d2c:	e8 7f ca ff ff       	call   37b0 <_init+0x7b0>
    6d31:	90                   	nop
    6d32:	c9                   	leave  
    6d33:	c3                   	ret    

0000000000006d34 <_ZNSt7__cxx1112basic_stringIcSt11char_traitsIcESaIcEE12_M_constructIPKcEEvT_S8_St20forward_iterator_tag>:
    6d34:	f3 0f 1e fa          	endbr64 
    6d38:	55                   	push   %rbp
    6d39:	48 89 e5             	mov    %rsp,%rbp
    6d3c:	48 83 ec 60          	sub    $0x60,%rsp
    6d40:	48 89 7d b8          	mov    %rdi,-0x48(%rbp)
    6d44:	48 89 75 b0          	mov    %rsi,-0x50(%rbp)
    6d48:	48 89 55 a8          	mov    %rdx,-0x58(%rbp)
    6d4c:	64 48 8b 04 25 28 00 	mov    %fs:0x28,%rax
    6d53:	00 00 
    6d55:	48 89 45 f8          	mov    %rax,-0x8(%rbp)
    6d59:	31 c0                	xor    %eax,%eax
    6d5b:	48 8b 45 b0          	mov    -0x50(%rbp),%rax
    6d5f:	48 89 45 d0          	mov    %rax,-0x30(%rbp)
    6d63:	48 8b 45 a8          	mov    -0x58(%rbp),%rax
    6d67:	48 89 45 d8          	mov    %rax,-0x28(%rbp)
    6d6b:	90                   	nop
    6d6c:	48 8b 45 d0          	mov    -0x30(%rbp),%rax
    6d70:	48 89 45 e0          	mov    %rax,-0x20(%rbp)
    6d74:	48 8b 45 d8          	mov    -0x28(%rbp),%rax
    6d78:	48 89 45 e8          	mov    %rax,-0x18(%rbp)
    6d7c:	48 8b 45 e8          	mov    -0x18(%rbp),%rax
    6d80:	48 2b 45 e0          	sub    -0x20(%rbp),%rax
    6d84:	90                   	nop
    6d85:	48 89 45 c8          	mov    %rax,-0x38(%rbp)
    6d89:	48 8b 45 c8          	mov    -0x38(%rbp),%rax
    6d8d:	48 83 f8 0f          	cmp    $0xf,%rax
    6d91:	76 3f                	jbe    6dd2 <_ZNSt7__cxx1112basic_stringIcSt11char_traitsIcESaIcEE12_M_constructIPKcEEvT_S8_St20forward_iterator_tag+0x9e>
    6d93:	48 8d 4d c8          	lea    -0x38(%rbp),%rcx
    6d97:	48 8b 45 b8          	mov    -0x48(%rbp),%rax
    6d9b:	ba 00 00 00 00       	mov    $0x0,%edx
    6da0:	48 89 ce             	mov    %rcx,%rsi
    6da3:	48 89 c7             	mov    %rax,%rdi
    6da6:	e8 75 cb ff ff       	call   3920 <_init+0x920>
    6dab:	48 89 c2             	mov    %rax,%rdx
    6dae:	48 8b 45 b8          	mov    -0x48(%rbp),%rax
    6db2:	48 89 d6             	mov    %rdx,%rsi
    6db5:	48 89 c7             	mov    %rax,%rdi
    6db8:	e8 d3 c8 ff ff       	call   3690 <_init+0x690>
    6dbd:	48 8b 55 c8          	mov    -0x38(%rbp),%rdx
    6dc1:	48 8b 45 b8          	mov    -0x48(%rbp),%rax
    6dc5:	48 89 d6             	mov    %rdx,%rsi
    6dc8:	48 89 c7             	mov    %rax,%rdi
    6dcb:	e8 80 cb ff ff       	call   3950 <_init+0x950>
    6dd0:	eb 09                	jmp    6ddb <_ZNSt7__cxx1112basic_stringIcSt11char_traitsIcESaIcEE12_M_constructIPKcEEvT_S8_St20forward_iterator_tag+0xa7>
    6dd2:	48 8b 45 b8          	mov    -0x48(%rbp),%rax
    6dd6:	48 89 45 f0          	mov    %rax,-0x10(%rbp)
    6dda:	90                   	nop
    6ddb:	48 8b 55 b8          	mov    -0x48(%rbp),%rdx
    6ddf:	48 8d 45 d0          	lea    -0x30(%rbp),%rax
    6de3:	48 89 d6             	mov    %rdx,%rsi
    6de6:	48 89 c7             	mov    %rax,%rdi
    6de9:	e8 fa fe ff ff       	call   6ce8 <_ZZNSt7__cxx1112basic_stringIcSt11char_traitsIcESaIcEE12_M_constructIPKcEEvT_S8_St20forward_iterator_tagEN6_GuardC1EPS4_>
    6dee:	48 8b 45 b8          	mov    -0x48(%rbp),%rax
    6df2:	48 89 c7             	mov    %rax,%rdi
    6df5:	e8 66 c9 ff ff       	call   3760 <_init+0x760>
    6dfa:	48 89 c1             	mov    %rax,%rcx
    6dfd:	48 8b 55 a8          	mov    -0x58(%rbp),%rdx
    6e01:	48 8b 45 b0          	mov    -0x50(%rbp),%rax
    6e05:	48 89 c6             	mov    %rax,%rsi
    6e08:	48 89 cf             	mov    %rcx,%rdi
    6e0b:	e8 60 c9 ff ff       	call   3770 <_init+0x770>
    6e10:	48 c7 45 d0 00 00 00 	movq   $0x0,-0x30(%rbp)
    6e17:	00 
    6e18:	48 8b 55 c8          	mov    -0x38(%rbp),%rdx
    6e1c:	48 8b 45 b8          	mov    -0x48(%rbp),%rax
    6e20:	48 89 d6             	mov    %rdx,%rsi
    6e23:	48 89 c7             	mov    %rax,%rdi
    6e26:	e8 f5 c7 ff ff       	call   3620 <_init+0x620>
    6e2b:	48 8d 45 d0          	lea    -0x30(%rbp),%rax
    6e2f:	48 89 c7             	mov    %rax,%rdi
    6e32:	e8 cf fe ff ff       	call   6d06 <_ZZNSt7__cxx1112basic_stringIcSt11char_traitsIcESaIcEE12_M_constructIPKcEEvT_S8_St20forward_iterator_tagEN6_GuardD1Ev>
    6e37:	48 8b 45 f8          	mov    -0x8(%rbp),%rax
    6e3b:	64 48 2b 04 25 28 00 	sub    %fs:0x28,%rax
    6e42:	00 00 
    6e44:	74 05                	je     6e4b <_ZNSt7__cxx1112basic_stringIcSt11char_traitsIcESaIcEE12_M_constructIPKcEEvT_S8_St20forward_iterator_tag+0x117>
    6e46:	e8 35 c9 ff ff       	call   3780 <_init+0x780>
    6e4b:	c9                   	leave  
    6e4c:	c3                   	ret    

0000000000006e4d <_ZSt4moveIRNSt7__cxx1112basic_stringIcSt11char_traitsIcESaIcEEEEONSt16remove_referenceIT_E4typeEOS8_>:
    6e4d:	f3 0f 1e fa          	endbr64 
    6e51:	55                   	push   %rbp
    6e52:	48 89 e5             	mov    %rsp,%rbp
    6e55:	48 89 7d f8          	mov    %rdi,-0x8(%rbp)
    6e59:	48 8b 45 f8          	mov    -0x8(%rbp),%rax
    6e5d:	5d                   	pop    %rbp
    6e5e:	c3                   	ret    
    6e5f:	90                   	nop

0000000000006e60 <_ZNK9__gnu_cxx17__normal_iteratorIPKcNSt7__cxx1112basic_stringIcSt11char_traitsIcESaIcEEEE4baseEv>:
    6e60:	f3 0f 1e fa          	endbr64 
    6e64:	55                   	push   %rbp
    6e65:	48 89 e5             	mov    %rsp,%rbp
    6e68:	48 89 7d f8          	mov    %rdi,-0x8(%rbp)
    6e6c:	48 8b 45 f8          	mov    -0x8(%rbp),%rax
    6e70:	5d                   	pop    %rbp
    6e71:	c3                   	ret    

0000000000006e72 <_ZNSt12_Vector_baseISt3mapINSt7__cxx1112basic_stringIcSt11char_traitsIcESaIcEEES6_St4lessIS6_ESaISt4pairIKS6_S6_EEESaISD_EE17_Vector_impl_dataC1Ev>:
    6e72:	f3 0f 1e fa          	endbr64 
    6e76:	55                   	push   %rbp
    6e77:	48 89 e5             	mov    %rsp,%rbp
    6e7a:	48 89 7d f8          	mov    %rdi,-0x8(%rbp)
    6e7e:	48 8b 45 f8          	mov    -0x8(%rbp),%rax
    6e82:	48 c7 00 00 00 00 00 	movq   $0x0,(%rax)
    6e89:	48 8b 45 f8          	mov    -0x8(%rbp),%rax
    6e8d:	48 c7 40 08 00 00 00 	movq   $0x0,0x8(%rax)
    6e94:	00 
    6e95:	48 8b 45 f8          	mov    -0x8(%rbp),%rax
    6e99:	48 c7 40 10 00 00 00 	movq   $0x0,0x10(%rax)
    6ea0:	00 
    6ea1:	90                   	nop
    6ea2:	5d                   	pop    %rbp
    6ea3:	c3                   	ret    

0000000000006ea4 <_ZNSt15__new_allocatorISt3mapINSt7__cxx1112basic_stringIcSt11char_traitsIcESaIcEEES6_St4lessIS6_ESaISt4pairIKS6_S6_EEEED1Ev>:
    6ea4:	f3 0f 1e fa          	endbr64 
    6ea8:	55                   	push   %rbp
    6ea9:	48 89 e5             	mov    %rsp,%rbp
    6eac:	48 89 7d f8          	mov    %rdi,-0x8(%rbp)
    6eb0:	90                   	nop
    6eb1:	5d                   	pop    %rbp
    6eb2:	c3                   	ret    
    6eb3:	90                   	nop

0000000000006eb4 <_ZNSt12_Vector_baseISt3mapINSt7__cxx1112basic_stringIcSt11char_traitsIcESaIcEEES6_St4lessIS6_ESaISt4pairIKS6_S6_EEESaISD_EE13_M_deallocateEPSD_m>:
    6eb4:	f3 0f 1e fa          	endbr64 
    6eb8:	55                   	push   %rbp
    6eb9:	48 89 e5             	mov    %rsp,%rbp
    6ebc:	48 83 ec 40          	sub    $0x40,%rsp
    6ec0:	48 89 7d d8          	mov    %rdi,-0x28(%rbp)
    6ec4:	48 89 75 d0          	mov    %rsi,-0x30(%rbp)
    6ec8:	48 89 55 c8          	mov    %rdx,-0x38(%rbp)
    6ecc:	48 83 7d d0 00       	cmpq   $0x0,-0x30(%rbp)
    6ed1:	74 30                	je     6f03 <_ZNSt12_Vector_baseISt3mapINSt7__cxx1112basic_stringIcSt11char_traitsIcESaIcEEES6_St4lessIS6_ESaISt4pairIKS6_S6_EEESaISD_EE13_M_deallocateEPSD_m+0x4f>
    6ed3:	48 8b 45 d8          	mov    -0x28(%rbp),%rax
    6ed7:	48 89 45 e8          	mov    %rax,-0x18(%rbp)
    6edb:	48 8b 45 d0          	mov    -0x30(%rbp),%rax
    6edf:	48 89 45 f0          	mov    %rax,-0x10(%rbp)
    6ee3:	48 8b 45 c8          	mov    -0x38(%rbp),%rax
    6ee7:	48 89 45 f8          	mov    %rax,-0x8(%rbp)
    6eeb:	48 8b 55 f8          	mov    -0x8(%rbp),%rdx
    6eef:	48 8b 4d f0          	mov    -0x10(%rbp),%rcx
    6ef3:	48 8b 45 e8          	mov    -0x18(%rbp),%rax
    6ef7:	48 89 ce             	mov    %rcx,%rsi
    6efa:	48 89 c7             	mov    %rax,%rdi
    6efd:	e8 e8 25 00 00       	call   94ea <_ZNSt15__new_allocatorISt3mapINSt7__cxx1112basic_stringIcSt11char_traitsIcESaIcEEES6_St4lessIS6_ESaISt4pairIKS6_S6_EEEE10deallocateEPSD_m>
    6f02:	90                   	nop
    6f03:	90                   	nop
    6f04:	c9                   	leave  
    6f05:	c3                   	ret    

0000000000006f06 <_ZNSt12_Vector_baseISt3mapINSt7__cxx1112basic_stringIcSt11char_traitsIcESaIcEEES6_St4lessIS6_ESaISt4pairIKS6_S6_EEESaISD_EE19_M_get_Tp_allocatorEv>:
    6f06:	f3 0f 1e fa          	endbr64 
    6f0a:	55                   	push   %rbp
    6f0b:	48 89 e5             	mov    %rsp,%rbp
    6f0e:	48 89 7d f8          	mov    %rdi,-0x8(%rbp)
    6f12:	48 8b 45 f8          	mov    -0x8(%rbp),%rax
    6f16:	5d                   	pop    %rbp
    6f17:	c3                   	ret    

0000000000006f18 <_ZNSt20_Rb_tree_key_compareISt4lessINSt7__cxx1112basic_stringIcSt11char_traitsIcESaIcEEEEEC1Ev>:
    6f18:	f3 0f 1e fa          	endbr64 
    6f1c:	55                   	push   %rbp
    6f1d:	48 89 e5             	mov    %rsp,%rbp
    6f20:	48 89 7d f8          	mov    %rdi,-0x8(%rbp)
    6f24:	90                   	nop
    6f25:	5d                   	pop    %rbp
    6f26:	c3                   	ret    
    6f27:	90                   	nop

0000000000006f28 <_ZNSt15__new_allocatorISt13_Rb_tree_nodeISt4pairIKNSt7__cxx1112basic_stringIcSt11char_traitsIcESaIcEEES7_EEED1Ev>:
    6f28:	f3 0f 1e fa          	endbr64 
    6f2c:	55                   	push   %rbp
    6f2d:	48 89 e5             	mov    %rsp,%rbp
    6f30:	48 89 7d f8          	mov    %rdi,-0x8(%rbp)
    6f34:	90                   	nop
    6f35:	5d                   	pop    %rbp
    6f36:	c3                   	ret    
    6f37:	90                   	nop

0000000000006f38 <_ZNSt8_Rb_treeINSt7__cxx1112basic_stringIcSt11char_traitsIcESaIcEEESt4pairIKS5_S5_ESt10_Select1stIS8_ESt4lessIS5_ESaIS8_EE8_M_eraseEPSt13_Rb_tree_nodeIS8_E>:
    6f38:	f3 0f 1e fa          	endbr64 
    6f3c:	55                   	push   %rbp
    6f3d:	48 89 e5             	mov    %rsp,%rbp
    6f40:	48 83 ec 20          	sub    $0x20,%rsp
    6f44:	48 89 7d e8          	mov    %rdi,-0x18(%rbp)
    6f48:	48 89 75 e0          	mov    %rsi,-0x20(%rbp)
    6f4c:	eb 49                	jmp    6f97 <_ZNSt8_Rb_treeINSt7__cxx1112basic_stringIcSt11char_traitsIcESaIcEEESt4pairIKS5_S5_ESt10_Select1stIS8_ESt4lessIS5_ESaIS8_EE8_M_eraseEPSt13_Rb_tree_nodeIS8_E+0x5f>
    6f4e:	48 8b 45 e0          	mov    -0x20(%rbp),%rax
    6f52:	48 89 c7             	mov    %rax,%rdi
    6f55:	e8 16 14 00 00       	call   8370 <_ZNSt8_Rb_treeINSt7__cxx1112basic_stringIcSt11char_traitsIcESaIcEEESt4pairIKS5_S5_ESt10_Select1stIS8_ESt4lessIS5_ESaIS8_EE8_S_rightEPSt18_Rb_tree_node_base>
    6f5a:	48 89 c2             	mov    %rax,%rdx
    6f5d:	48 8b 45 e8          	mov    -0x18(%rbp),%rax
    6f61:	48 89 d6             	mov    %rdx,%rsi
    6f64:	48 89 c7             	mov    %rax,%rdi
    6f67:	e8 cc ff ff ff       	call   6f38 <_ZNSt8_Rb_treeINSt7__cxx1112basic_stringIcSt11char_traitsIcESaIcEEESt4pairIKS5_S5_ESt10_Select1stIS8_ESt4lessIS5_ESaIS8_EE8_M_eraseEPSt13_Rb_tree_nodeIS8_E>
    6f6c:	48 8b 45 e0          	mov    -0x20(%rbp),%rax
    6f70:	48 89 c7             	mov    %rax,%rdi
    6f73:	e8 0e 14 00 00       	call   8386 <_ZNSt8_Rb_treeINSt7__cxx1112basic_stringIcSt11char_traitsIcESaIcEEESt4pairIKS5_S5_ESt10_Select1stIS8_ESt4lessIS5_ESaIS8_EE7_S_leftEPSt18_Rb_tree_node_base>
    6f78:	48 89 45 f8          	mov    %rax,-0x8(%rbp)
    6f7c:	48 8b 55 e0          	mov    -0x20(%rbp),%rdx
    6f80:	48 8b 45 e8          	mov    -0x18(%rbp),%rax
    6f84:	48 89 d6             	mov    %rdx,%rsi
    6f87:	48 89 c7             	mov    %rax,%rdi
    6f8a:	e8 0d 14 00 00       	call   839c <_ZNSt8_Rb_treeINSt7__cxx1112basic_stringIcSt11char_traitsIcESaIcEEESt4pairIKS5_S5_ESt10_Select1stIS8_ESt4lessIS5_ESaIS8_EE12_M_drop_nodeEPSt13_Rb_tree_nodeIS8_E>
    6f8f:	48 8b 45 f8          	mov    -0x8(%rbp),%rax
    6f93:	48 89 45 e0          	mov    %rax,-0x20(%rbp)
    6f97:	48 83 7d e0 00       	cmpq   $0x0,-0x20(%rbp)
    6f9c:	75 b0                	jne    6f4e <_ZNSt8_Rb_treeINSt7__cxx1112basic_stringIcSt11char_traitsIcESaIcEEESt4pairIKS5_S5_ESt10_Select1stIS8_ESt4lessIS5_ESaIS8_EE8_M_eraseEPSt13_Rb_tree_nodeIS8_E+0x16>
    6f9e:	90                   	nop
    6f9f:	90                   	nop
    6fa0:	c9                   	leave  
    6fa1:	c3                   	ret    

0000000000006fa2 <_ZNSt8_Rb_treeINSt7__cxx1112basic_stringIcSt11char_traitsIcESaIcEEESt4pairIKS5_S5_ESt10_Select1stIS8_ESt4lessIS5_ESaIS8_EE8_M_beginEv>:
    6fa2:	f3 0f 1e fa          	endbr64 
    6fa6:	55                   	push   %rbp
    6fa7:	48 89 e5             	mov    %rsp,%rbp
    6faa:	48 83 ec 10          	sub    $0x10,%rsp
    6fae:	48 89 7d f8          	mov    %rdi,-0x8(%rbp)
    6fb2:	48 8b 45 f8          	mov    -0x8(%rbp),%rax
    6fb6:	48 89 c7             	mov    %rax,%rdi
    6fb9:	e8 1c 14 00 00       	call   83da <_ZNKSt8_Rb_treeINSt7__cxx1112basic_stringIcSt11char_traitsIcESaIcEEESt4pairIKS5_S5_ESt10_Select1stIS8_ESt4lessIS5_ESaIS8_EE9_M_mbeginEv>
    6fbe:	c9                   	leave  
    6fbf:	c3                   	ret    

0000000000006fc0 <_ZNSt3mapINSt7__cxx1112basic_stringIcSt11char_traitsIcESaIcEEES5_St4lessIS5_ESaISt4pairIKS5_S5_EEE11lower_boundERS9_>:
    6fc0:	f3 0f 1e fa          	endbr64 
    6fc4:	55                   	push   %rbp
    6fc5:	48 89 e5             	mov    %rsp,%rbp
    6fc8:	48 83 ec 10          	sub    $0x10,%rsp
    6fcc:	48 89 7d f8          	mov    %rdi,-0x8(%rbp)
    6fd0:	48 89 75 f0          	mov    %rsi,-0x10(%rbp)
    6fd4:	48 8b 45 f8          	mov    -0x8(%rbp),%rax
    6fd8:	48 8b 55 f0          	mov    -0x10(%rbp),%rdx
    6fdc:	48 89 d6             	mov    %rdx,%rsi
    6fdf:	48 89 c7             	mov    %rax,%rdi
    6fe2:	e8 09 14 00 00       	call   83f0 <_ZNSt8_Rb_treeINSt7__cxx1112basic_stringIcSt11char_traitsIcESaIcEEESt4pairIKS5_S5_ESt10_Select1stIS8_ESt4lessIS5_ESaIS8_EE11lower_boundERS7_>
    6fe7:	c9                   	leave  
    6fe8:	c3                   	ret    
    6fe9:	90                   	nop

0000000000006fea <_ZNSt3mapINSt7__cxx1112basic_stringIcSt11char_traitsIcESaIcEEES5_St4lessIS5_ESaISt4pairIKS5_S5_EEE3endEv>:
    6fea:	f3 0f 1e fa          	endbr64 
    6fee:	55                   	push   %rbp
    6fef:	48 89 e5             	mov    %rsp,%rbp
    6ff2:	48 83 ec 10          	sub    $0x10,%rsp
    6ff6:	48 89 7d f8          	mov    %rdi,-0x8(%rbp)
    6ffa:	48 8b 45 f8          	mov    -0x8(%rbp),%rax
    6ffe:	48 89 c7             	mov    %rax,%rdi
    7001:	e8 3a 14 00 00       	call   8440 <_ZNSt8_Rb_treeINSt7__cxx1112basic_stringIcSt11char_traitsIcESaIcEEESt4pairIKS5_S5_ESt10_Select1stIS8_ESt4lessIS5_ESaIS8_EE3endEv>
    7006:	c9                   	leave  
    7007:	c3                   	ret    

0000000000007008 <_ZSteqRKSt17_Rb_tree_iteratorISt4pairIKNSt7__cxx1112basic_stringIcSt11char_traitsIcESaIcEEES6_EESB_>:
    7008:	f3 0f 1e fa          	endbr64 
    700c:	55                   	push   %rbp
    700d:	48 89 e5             	mov    %rsp,%rbp
    7010:	48 89 7d f8          	mov    %rdi,-0x8(%rbp)
    7014:	48 89 75 f0          	mov    %rsi,-0x10(%rbp)
    7018:	48 8b 45 f8          	mov    -0x8(%rbp),%rax
    701c:	48 8b 10             	mov    (%rax),%rdx
    701f:	48 8b 45 f0          	mov    -0x10(%rbp),%rax
    7023:	48 8b 00             	mov    (%rax),%rax
    7026:	48 39 c2             	cmp    %rax,%rdx
    7029:	0f 94 c0             	sete   %al
    702c:	5d                   	pop    %rbp
    702d:	c3                   	ret    

000000000000702e <_ZNKSt3mapINSt7__cxx1112basic_stringIcSt11char_traitsIcESaIcEEES5_St4lessIS5_ESaISt4pairIKS5_S5_EEE8key_compEv>:
    702e:	f3 0f 1e fa          	endbr64 
    7032:	55                   	push   %rbp
    7033:	48 89 e5             	mov    %rsp,%rbp
    7036:	48 83 ec 10          	sub    $0x10,%rsp
    703a:	48 89 7d f8          	mov    %rdi,-0x8(%rbp)
    703e:	48 8b 45 f8          	mov    -0x8(%rbp),%rax
    7042:	48 89 c7             	mov    %rax,%rdi
    7045:	e8 46 14 00 00       	call   8490 <_ZNKSt8_Rb_treeINSt7__cxx1112basic_stringIcSt11char_traitsIcESaIcEEESt4pairIKS5_S5_ESt10_Select1stIS8_ESt4lessIS5_ESaIS8_EE8key_compEv>
    704a:	90                   	nop
    704b:	c9                   	leave  
    704c:	c3                   	ret    
    704d:	90                   	nop

000000000000704e <_ZNKSt17_Rb_tree_iteratorISt4pairIKNSt7__cxx1112basic_stringIcSt11char_traitsIcESaIcEEES6_EEdeEv>:
    704e:	f3 0f 1e fa          	endbr64 
    7052:	55                   	push   %rbp
    7053:	48 89 e5             	mov    %rsp,%rbp
    7056:	48 83 ec 10          	sub    $0x10,%rsp
    705a:	48 89 7d f8          	mov    %rdi,-0x8(%rbp)
    705e:	48 8b 45 f8          	mov    -0x8(%rbp),%rax
    7062:	48 8b 00             	mov    (%rax),%rax
    7065:	48 89 c7             	mov    %rax,%rdi
    7068:	e8 33 14 00 00       	call   84a0 <_ZNSt13_Rb_tree_nodeISt4pairIKNSt7__cxx1112basic_stringIcSt11char_traitsIcESaIcEEES6_EE9_M_valptrEv>
    706d:	c9                   	leave  
    706e:	c3                   	ret    
    706f:	90                   	nop

0000000000007070 <_ZNKSt4lessINSt7__cxx1112basic_stringIcSt11char_traitsIcESaIcEEEEclERKS5_S8_>:
    7070:	f3 0f 1e fa          	endbr64 
    7074:	55                   	push   %rbp
    7075:	48 89 e5             	mov    %rsp,%rbp
    7078:	48 83 ec 20          	sub    $0x20,%rsp
    707c:	48 89 7d f8          	mov    %rdi,-0x8(%rbp)
    7080:	48 89 75 f0          	mov    %rsi,-0x10(%rbp)
    7084:	48 89 55 e8          	mov    %rdx,-0x18(%rbp)
    7088:	48 8b 55 e8          	mov    -0x18(%rbp),%rdx
    708c:	48 8b 45 f0          	mov    -0x10(%rbp),%rax
    7090:	48 89 d6             	mov    %rdx,%rsi
    7093:	48 89 c7             	mov    %rax,%rdi
    7096:	e8 27 14 00 00       	call   84c2 <_ZStltIcSt11char_traitsIcESaIcEEbRKNSt7__cxx1112basic_stringIT_T0_T1_EESA_>
    709b:	c9                   	leave  
    709c:	c3                   	ret    
    709d:	90                   	nop

000000000000709e <_ZNSt5tupleIJRKNSt7__cxx1112basic_stringIcSt11char_traitsIcESaIcEEEEEC1ILb1ELb1EEES7_>:
    709e:	f3 0f 1e fa          	endbr64 
    70a2:	55                   	push   %rbp
    70a3:	48 89 e5             	mov    %rsp,%rbp
    70a6:	48 83 ec 10          	sub    $0x10,%rsp
    70aa:	48 89 7d f8          	mov    %rdi,-0x8(%rbp)
    70ae:	48 89 75 f0          	mov    %rsi,-0x10(%rbp)
    70b2:	48 8b 45 f8          	mov    -0x8(%rbp),%rax
    70b6:	48 8b 55 f0          	mov    -0x10(%rbp),%rdx
    70ba:	48 89 d6             	mov    %rdx,%rsi
    70bd:	48 89 c7             	mov    %rax,%rdi
    70c0:	e8 29 14 00 00       	call   84ee <_ZNSt11_Tuple_implILm0EJRKNSt7__cxx1112basic_stringIcSt11char_traitsIcESaIcEEEEEC1ES7_>
    70c5:	90                   	nop
    70c6:	c9                   	leave  
    70c7:	c3                   	ret    

00000000000070c8 <_ZNSt23_Rb_tree_const_iteratorISt4pairIKNSt7__cxx1112basic_stringIcSt11char_traitsIcESaIcEEES6_EEC1ERKSt17_Rb_tree_iteratorIS8_E>:
    70c8:	f3 0f 1e fa          	endbr64 
    70cc:	55                   	push   %rbp
    70cd:	48 89 e5             	mov    %rsp,%rbp
    70d0:	48 89 7d f8          	mov    %rdi,-0x8(%rbp)
    70d4:	48 89 75 f0          	mov    %rsi,-0x10(%rbp)
    70d8:	48 8b 45 f0          	mov    -0x10(%rbp),%rax
    70dc:	48 8b 10             	mov    (%rax),%rdx
    70df:	48 8b 45 f8          	mov    -0x8(%rbp),%rax
    70e3:	48 89 10             	mov    %rdx,(%rax)
    70e6:	90                   	nop
    70e7:	5d                   	pop    %rbp
    70e8:	c3                   	ret    
    70e9:	90                   	nop

00000000000070ea <_ZNSt8_Rb_treeINSt7__cxx1112basic_stringIcSt11char_traitsIcESaIcEEESt4pairIKS5_S5_ESt10_Select1stIS8_ESt4lessIS5_ESaIS8_EE22_M_emplace_hint_uniqueIJRKSt21piecewise_construct_tSt5tupleIJRS7_EESJ_IJEEEEESt17_Rb_tree_iteratorIS8_ESt23_Rb_tree_const_iteratorIS8_EDpOT_>:
    70ea:	f3 0f 1e fa          	endbr64 
    70ee:	55                   	push   %rbp
    70ef:	48 89 e5             	mov    %rsp,%rbp
    70f2:	41 54                	push   %r12
    70f4:	53                   	push   %rbx
    70f5:	48 83 ec 70          	sub    $0x70,%rsp
    70f9:	48 89 7d a8          	mov    %rdi,-0x58(%rbp)
    70fd:	48 89 75 a0          	mov    %rsi,-0x60(%rbp)
    7101:	48 89 55 98          	mov    %rdx,-0x68(%rbp)
    7105:	48 89 4d 90          	mov    %rcx,-0x70(%rbp)
    7109:	4c 89 45 88          	mov    %r8,-0x78(%rbp)
    710d:	64 48 8b 04 25 28 00 	mov    %fs:0x28,%rax
    7114:	00 00 
    7116:	48 89 45 e8          	mov    %rax,-0x18(%rbp)
    711a:	31 c0                	xor    %eax,%eax
    711c:	48 8b 45 88          	mov    -0x78(%rbp),%rax
    7120:	48 89 c7             	mov    %rax,%rdi
    7123:	e8 14 14 00 00       	call   853c <_ZSt7forwardISt5tupleIJEEEOT_RNSt16remove_referenceIS2_E4typeE>
    7128:	49 89 c4             	mov    %rax,%r12
    712b:	48 8b 45 90          	mov    -0x70(%rbp),%rax
    712f:	48 89 c7             	mov    %rax,%rdi
    7132:	e8 f3 13 00 00       	call   852a <_ZSt7forwardISt5tupleIJRKNSt7__cxx1112basic_stringIcSt11char_traitsIcESaIcEEEEEEOT_RNSt16remove_referenceISA_E4typeE>
    7137:	48 89 c3             	mov    %rax,%rbx
    713a:	48 8b 45 98          	mov    -0x68(%rbp),%rax
    713e:	48 89 c7             	mov    %rax,%rdi
    7141:	e8 d2 13 00 00       	call   8518 <_ZSt7forwardIRKSt21piecewise_construct_tEOT_RNSt16remove_referenceIS3_E4typeE>
    7146:	48 89 c2             	mov    %rax,%rdx
    7149:	48 8b 75 a8          	mov    -0x58(%rbp),%rsi
    714d:	48 8d 45 c0          	lea    -0x40(%rbp),%rax
    7151:	4d 89 e0             	mov    %r12,%r8
    7154:	48 89 d9             	mov    %rbx,%rcx
    7157:	48 89 c7             	mov    %rax,%rdi
    715a:	e8 ef 13 00 00       	call   854e <_ZNSt8_Rb_treeINSt7__cxx1112basic_stringIcSt11char_traitsIcESaIcEEESt4pairIKS5_S5_ESt10_Select1stIS8_ESt4lessIS5_ESaIS8_EE10_Auto_nodeC1IJRKSt21piecewise_construct_tSt5tupleIJRS7_EESK_IJEEEEERSE_DpOT_>
    715f:	48 8d 45 c0          	lea    -0x40(%rbp),%rax
    7163:	48 89 c7             	mov    %rax,%rdi
    7166:	e8 45 18 00 00       	call   89b0 <_ZNKSt8_Rb_treeINSt7__cxx1112basic_stringIcSt11char_traitsIcESaIcEEESt4pairIKS5_S5_ESt10_Select1stIS8_ESt4lessIS5_ESaIS8_EE10_Auto_node6_M_keyEv>
    716b:	48 89 c2             	mov    %rax,%rdx
    716e:	48 8b 4d a0          	mov    -0x60(%rbp),%rcx
    7172:	48 8b 45 a8          	mov    -0x58(%rbp),%rax
    7176:	48 89 ce             	mov    %rcx,%rsi
    7179:	48 89 c7             	mov    %rax,%rdi
    717c:	e8 87 14 00 00       	call   8608 <_ZNSt8_Rb_treeINSt7__cxx1112basic_stringIcSt11char_traitsIcESaIcEEESt4pairIKS5_S5_ESt10_Select1stIS8_ESt4lessIS5_ESaIS8_EE29_M_get_insert_hint_unique_posESt23_Rb_tree_const_iteratorIS8_ERS7_>
    7181:	48 89 45 d0          	mov    %rax,-0x30(%rbp)
    7185:	48 89 55 d8          	mov    %rdx,-0x28(%rbp)
    7189:	48 8b 45 d8          	mov    -0x28(%rbp),%rax
    718d:	48 85 c0             	test   %rax,%rax
    7190:	74 1c                	je     71ae <_ZNSt8_Rb_treeINSt7__cxx1112basic_stringIcSt11char_traitsIcESaIcEEESt4pairIKS5_S5_ESt10_Select1stIS8_ESt4lessIS5_ESaIS8_EE22_M_emplace_hint_uniqueIJRKSt21piecewise_construct_tSt5tupleIJRS7_EESJ_IJEEEEESt17_Rb_tree_iteratorIS8_ESt23_Rb_tree_const_iteratorIS8_EDpOT_+0xc4>
    7192:	48 8b 4d d0          	mov    -0x30(%rbp),%rcx
    7196:	48 8b 55 d8          	mov    -0x28(%rbp),%rdx
    719a:	48 8d 45 c0          	lea    -0x40(%rbp),%rax
    719e:	48 89 ce             	mov    %rcx,%rsi
    71a1:	48 89 c7             	mov    %rax,%rdi
    71a4:	e8 29 18 00 00       	call   89d2 <_ZNSt8_Rb_treeINSt7__cxx1112basic_stringIcSt11char_traitsIcESaIcEEESt4pairIKS5_S5_ESt10_Select1stIS8_ESt4lessIS5_ESaIS8_EE10_Auto_node9_M_insertES6_IPSt18_Rb_tree_node_baseSH_E>
    71a9:	48 89 c3             	mov    %rax,%rbx
    71ac:	eb 17                	jmp    71c5 <_ZNSt8_Rb_treeINSt7__cxx1112basic_stringIcSt11char_traitsIcESaIcEEESt4pairIKS5_S5_ESt10_Select1stIS8_ESt4lessIS5_ESaIS8_EE22_M_emplace_hint_uniqueIJRKSt21piecewise_construct_tSt5tupleIJRS7_EESJ_IJEEEEESt17_Rb_tree_iteratorIS8_ESt23_Rb_tree_const_iteratorIS8_EDpOT_+0xdb>
    71ae:	48 8b 55 d0          	mov    -0x30(%rbp),%rdx
    71b2:	48 8d 45 b8          	lea    -0x48(%rbp),%rax
    71b6:	48 89 d6             	mov    %rdx,%rsi
    71b9:	48 89 c7             	mov    %rax,%rdi
    71bc:	e8 8d 18 00 00       	call   8a4e <_ZNSt17_Rb_tree_iteratorISt4pairIKNSt7__cxx1112basic_stringIcSt11char_traitsIcESaIcEEES6_EEC1EPSt18_Rb_tree_node_base>
    71c1:	48 8b 5d b8          	mov    -0x48(%rbp),%rbx
    71c5:	48 8d 45 c0          	lea    -0x40(%rbp),%rax
    71c9:	48 89 c7             	mov    %rax,%rdi
    71cc:	e8 fd 13 00 00       	call   85ce <_ZNSt8_Rb_treeINSt7__cxx1112basic_stringIcSt11char_traitsIcESaIcEEESt4pairIKS5_S5_ESt10_Select1stIS8_ESt4lessIS5_ESaIS8_EE10_Auto_nodeD1Ev>
    71d1:	48 89 d8             	mov    %rbx,%rax
    71d4:	48 8b 55 e8          	mov    -0x18(%rbp),%rdx
    71d8:	64 48 2b 14 25 28 00 	sub    %fs:0x28,%rdx
    71df:	00 00 
    71e1:	74 39                	je     721c <_ZNSt8_Rb_treeINSt7__cxx1112basic_stringIcSt11char_traitsIcESaIcEEESt4pairIKS5_S5_ESt10_Select1stIS8_ESt4lessIS5_ESaIS8_EE22_M_emplace_hint_uniqueIJRKSt21piecewise_construct_tSt5tupleIJRS7_EESJ_IJEEEEESt17_Rb_tree_iteratorIS8_ESt23_Rb_tree_const_iteratorIS8_EDpOT_+0x132>
    71e3:	eb 32                	jmp    7217 <_ZNSt8_Rb_treeINSt7__cxx1112basic_stringIcSt11char_traitsIcESaIcEEESt4pairIKS5_S5_ESt10_Select1stIS8_ESt4lessIS5_ESaIS8_EE22_M_emplace_hint_uniqueIJRKSt21piecewise_construct_tSt5tupleIJRS7_EESJ_IJEEEEESt17_Rb_tree_iteratorIS8_ESt23_Rb_tree_const_iteratorIS8_EDpOT_+0x12d>
    71e5:	f3 0f 1e fa          	endbr64 
    71e9:	48 89 c3             	mov    %rax,%rbx
    71ec:	48 8d 45 c0          	lea    -0x40(%rbp),%rax
    71f0:	48 89 c7             	mov    %rax,%rdi
    71f3:	e8 d6 13 00 00       	call   85ce <_ZNSt8_Rb_treeINSt7__cxx1112basic_stringIcSt11char_traitsIcESaIcEEESt4pairIKS5_S5_ESt10_Select1stIS8_ESt4lessIS5_ESaIS8_EE10_Auto_nodeD1Ev>
    71f8:	48 89 d8             	mov    %rbx,%rax
    71fb:	48 8b 55 e8          	mov    -0x18(%rbp),%rdx
    71ff:	64 48 2b 14 25 28 00 	sub    %fs:0x28,%rdx
    7206:	00 00 
    7208:	74 05                	je     720f <_ZNSt8_Rb_treeINSt7__cxx1112basic_stringIcSt11char_traitsIcESaIcEEESt4pairIKS5_S5_ESt10_Select1stIS8_ESt4lessIS5_ESaIS8_EE22_M_emplace_hint_uniqueIJRKSt21piecewise_construct_tSt5tupleIJRS7_EESJ_IJEEEEESt17_Rb_tree_iteratorIS8_ESt23_Rb_tree_const_iteratorIS8_EDpOT_+0x125>
    720a:	e8 71 c5 ff ff       	call   3780 <_init+0x780>
    720f:	48 89 c7             	mov    %rax,%rdi
    7212:	e8 f9 c6 ff ff       	call   3910 <_init+0x910>
    7217:	e8 64 c5 ff ff       	call   3780 <_init+0x780>
    721c:	48 83 c4 70          	add    $0x70,%rsp
    7220:	5b                   	pop    %rbx
    7221:	41 5c                	pop    %r12
    7223:	5d                   	pop    %rbp
    7224:	c3                   	ret    
    7225:	90                   	nop

0000000000007226 <_ZNSt6vectorISt3mapINSt7__cxx1112basic_stringIcSt11char_traitsIcESaIcEEES6_St4lessIS6_ESaISt4pairIKS6_S6_EEESaISD_EE17_M_realloc_insertIJRKSD_EEEvN9__gnu_cxx17__normal_iteratorIPSD_SF_EEDpOT_>:
    7226:	f3 0f 1e fa          	endbr64 
    722a:	55                   	push   %rbp
    722b:	48 89 e5             	mov    %rsp,%rbp
    722e:	41 56                	push   %r14
    7230:	41 55                	push   %r13
    7232:	41 54                	push   %r12
    7234:	53                   	push   %rbx
    7235:	48 81 ec d0 00 00 00 	sub    $0xd0,%rsp
    723c:	48 89 bd 28 ff ff ff 	mov    %rdi,-0xd8(%rbp)
    7243:	48 89 b5 20 ff ff ff 	mov    %rsi,-0xe0(%rbp)
    724a:	48 89 95 18 ff ff ff 	mov    %rdx,-0xe8(%rbp)
    7251:	64 48 8b 04 25 28 00 	mov    %fs:0x28,%rax
    7258:	00 00 
    725a:	48 89 45 d8          	mov    %rax,-0x28(%rbp)
    725e:	31 c0                	xor    %eax,%eax
    7260:	48 8b 85 28 ff ff ff 	mov    -0xd8(%rbp),%rax
    7267:	48 8d 15 d4 4f 00 00 	lea    0x4fd4(%rip),%rdx        # c242 <_ZSt19piecewise_construct+0x23e>
    726e:	be 01 00 00 00       	mov    $0x1,%esi
    7273:	48 89 c7             	mov    %rax,%rdi
    7276:	e8 2d 18 00 00       	call   8aa8 <_ZNKSt6vectorISt3mapINSt7__cxx1112basic_stringIcSt11char_traitsIcESaIcEEES6_St4lessIS6_ESaISt4pairIKS6_S6_EEESaISD_EE12_M_check_lenEmPKc>
    727b:	48 89 85 40 ff ff ff 	mov    %rax,-0xc0(%rbp)
    7282:	48 8b 85 28 ff ff ff 	mov    -0xd8(%rbp),%rax
    7289:	48 8b 00             	mov    (%rax),%rax
    728c:	48 89 85 48 ff ff ff 	mov    %rax,-0xb8(%rbp)
    7293:	48 8b 85 28 ff ff ff 	mov    -0xd8(%rbp),%rax
    729a:	48 8b 40 08          	mov    0x8(%rax),%rax
    729e:	48 89 85 50 ff ff ff 	mov    %rax,-0xb0(%rbp)
    72a5:	48 8b 85 28 ff ff ff 	mov    -0xd8(%rbp),%rax
    72ac:	48 89 c7             	mov    %rax,%rdi
    72af:	e8 94 f8 ff ff       	call   6b48 <_ZNSt6vectorISt3mapINSt7__cxx1112basic_stringIcSt11char_traitsIcESaIcEEES6_St4lessIS6_ESaISt4pairIKS6_S6_EEESaISD_EE5beginEv>
    72b4:	48 89 85 38 ff ff ff 	mov    %rax,-0xc8(%rbp)
    72bb:	48 8d 95 38 ff ff ff 	lea    -0xc8(%rbp),%rdx
    72c2:	48 8d 85 20 ff ff ff 	lea    -0xe0(%rbp),%rax
    72c9:	48 89 d6             	mov    %rdx,%rsi
    72cc:	48 89 c7             	mov    %rax,%rdi
    72cf:	e8 d7 18 00 00       	call   8bab <_ZN9__gnu_cxxmiIPSt3mapINSt7__cxx1112basic_stringIcSt11char_traitsIcESaIcEEES7_St4lessIS7_ESaISt4pairIKS7_S7_EEESt6vectorISE_SaISE_EEEENS_17__normal_iteratorIT_T0_E15difference_typeERKSM_SP_>
    72d4:	48 89 85 58 ff ff ff 	mov    %rax,-0xa8(%rbp)
    72db:	48 8b 85 28 ff ff ff 	mov    -0xd8(%rbp),%rax
    72e2:	48 8b 95 40 ff ff ff 	mov    -0xc0(%rbp),%rdx
    72e9:	48 89 d6             	mov    %rdx,%rsi
    72ec:	48 89 c7             	mov    %rax,%rdi
    72ef:	e8 08 19 00 00       	call   8bfc <_ZNSt12_Vector_baseISt3mapINSt7__cxx1112basic_stringIcSt11char_traitsIcESaIcEEES6_St4lessIS6_ESaISt4pairIKS6_S6_EEESaISD_EE11_M_allocateEm>
    72f4:	48 89 85 60 ff ff ff 	mov    %rax,-0xa0(%rbp)
    72fb:	48 8b 85 60 ff ff ff 	mov    -0xa0(%rbp),%rax
    7302:	48 89 85 68 ff ff ff 	mov    %rax,-0x98(%rbp)
    7309:	48 8b 85 18 ff ff ff 	mov    -0xe8(%rbp),%rax
    7310:	48 89 c7             	mov    %rax,%rdi
    7313:	e8 54 17 00 00       	call   8a6c <_ZSt7forwardIRKSt3mapINSt7__cxx1112basic_stringIcSt11char_traitsIcESaIcEEES6_St4lessIS6_ESaISt4pairIKS6_S6_EEEEOT_RNSt16remove_referenceISG_E4typeE>
    7318:	48 89 c1             	mov    %rax,%rcx
    731b:	48 8b 95 58 ff ff ff 	mov    -0xa8(%rbp),%rdx
    7322:	48 89 d0             	mov    %rdx,%rax
    7325:	48 01 c0             	add    %rax,%rax
    7328:	48 01 d0             	add    %rdx,%rax
    732b:	48 c1 e0 04          	shl    $0x4,%rax
    732f:	48 89 c2             	mov    %rax,%rdx
    7332:	48 8b 85 60 ff ff ff 	mov    -0xa0(%rbp),%rax
    7339:	48 01 c2             	add    %rax,%rdx
    733c:	48 8b 85 28 ff ff ff 	mov    -0xd8(%rbp),%rax
    7343:	48 89 85 70 ff ff ff 	mov    %rax,-0x90(%rbp)
    734a:	48 89 95 78 ff ff ff 	mov    %rdx,-0x88(%rbp)
    7351:	48 89 4d 80          	mov    %rcx,-0x80(%rbp)
    7355:	48 8b 45 80          	mov    -0x80(%rbp),%rax
    7359:	48 89 c7             	mov    %rax,%rdi
    735c:	e8 0b 17 00 00       	call   8a6c <_ZSt7forwardIRKSt3mapINSt7__cxx1112basic_stringIcSt11char_traitsIcESaIcEEES6_St4lessIS6_ESaISt4pairIKS6_S6_EEEEOT_RNSt16remove_referenceISG_E4typeE>
    7361:	48 8b 95 70 ff ff ff 	mov    -0x90(%rbp),%rdx
    7368:	48 89 55 88          	mov    %rdx,-0x78(%rbp)
    736c:	48 8b 95 78 ff ff ff 	mov    -0x88(%rbp),%rdx
    7373:	48 89 55 90          	mov    %rdx,-0x70(%rbp)
    7377:	48 89 45 98          	mov    %rax,-0x68(%rbp)
    737b:	48 8b 5d 90          	mov    -0x70(%rbp),%rbx
    737f:	48 89 de             	mov    %rbx,%rsi
    7382:	bf 30 00 00 00       	mov    $0x30,%edi
    7387:	e8 4a e4 ff ff       	call   57d6 <_ZnwmPv>
    738c:	49 89 c4             	mov    %rax,%r12
    738f:	41 be 01 00 00 00    	mov    $0x1,%r14d
    7395:	48 8b 45 98          	mov    -0x68(%rbp),%rax
    7399:	48 89 c7             	mov    %rax,%rdi
    739c:	e8 cb 16 00 00       	call   8a6c <_ZSt7forwardIRKSt3mapINSt7__cxx1112basic_stringIcSt11char_traitsIcESaIcEEES6_St4lessIS6_ESaISt4pairIKS6_S6_EEEEOT_RNSt16remove_referenceISG_E4typeE>
    73a1:	48 89 c6             	mov    %rax,%rsi
    73a4:	4c 89 e7             	mov    %r12,%rdi
    73a7:	e8 d2 16 00 00       	call   8a7e <_ZNSt3mapINSt7__cxx1112basic_stringIcSt11char_traitsIcESaIcEEES5_St4lessIS5_ESaISt4pairIKS5_S5_EEEC1ERKSC_>
    73ac:	90                   	nop
    73ad:	90                   	nop
    73ae:	48 c7 85 68 ff ff ff 	movq   $0x0,-0x98(%rbp)
    73b5:	00 00 00 00 
    73b9:	48 8b 85 28 ff ff ff 	mov    -0xd8(%rbp),%rax
    73c0:	48 89 c7             	mov    %rax,%rdi
    73c3:	e8 3e fb ff ff       	call   6f06 <_ZNSt12_Vector_baseISt3mapINSt7__cxx1112basic_stringIcSt11char_traitsIcESaIcEEES6_St4lessIS6_ESaISt4pairIKS6_S6_EEESaISD_EE19_M_get_Tp_allocatorEv>
    73c8:	48 89 c3             	mov    %rax,%rbx
    73cb:	48 8d 85 20 ff ff ff 	lea    -0xe0(%rbp),%rax
    73d2:	48 89 c7             	mov    %rax,%rdi
    73d5:	e8 5a 0f 00 00       	call   8334 <_ZNK9__gnu_cxx17__normal_iteratorIPSt3mapINSt7__cxx1112basic_stringIcSt11char_traitsIcESaIcEEES7_St4lessIS7_ESaISt4pairIKS7_S7_EEESt6vectorISE_SaISE_EEE4baseEv>
    73da:	48 8b 30             	mov    (%rax),%rsi
    73dd:	48 8b 95 60 ff ff ff 	mov    -0xa0(%rbp),%rdx
    73e4:	48 8b 85 48 ff ff ff 	mov    -0xb8(%rbp),%rax
    73eb:	48 89 d9             	mov    %rbx,%rcx
    73ee:	48 89 c7             	mov    %rax,%rdi
    73f1:	e8 53 18 00 00       	call   8c49 <_ZNSt6vectorISt3mapINSt7__cxx1112basic_stringIcSt11char_traitsIcESaIcEEES6_St4lessIS6_ESaISt4pairIKS6_S6_EEESaISD_EE11_S_relocateEPSD_SG_SG_RSE_>
    73f6:	48 89 85 68 ff ff ff 	mov    %rax,-0x98(%rbp)
    73fd:	48 83 85 68 ff ff ff 	addq   $0x30,-0x98(%rbp)
    7404:	30 
    7405:	48 8b 85 28 ff ff ff 	mov    -0xd8(%rbp),%rax
    740c:	48 89 c7             	mov    %rax,%rdi
    740f:	e8 f2 fa ff ff       	call   6f06 <_ZNSt12_Vector_baseISt3mapINSt7__cxx1112basic_stringIcSt11char_traitsIcESaIcEEES6_St4lessIS6_ESaISt4pairIKS6_S6_EEESaISD_EE19_M_get_Tp_allocatorEv>
    7414:	48 89 c3             	mov    %rax,%rbx
    7417:	48 8d 85 20 ff ff ff 	lea    -0xe0(%rbp),%rax
    741e:	48 89 c7             	mov    %rax,%rdi
    7421:	e8 0e 0f 00 00       	call   8334 <_ZNK9__gnu_cxx17__normal_iteratorIPSt3mapINSt7__cxx1112basic_stringIcSt11char_traitsIcESaIcEEES7_St4lessIS7_ESaISt4pairIKS7_S7_EEESt6vectorISE_SaISE_EEE4baseEv>
    7426:	48 8b 00             	mov    (%rax),%rax
    7429:	48 8b 95 68 ff ff ff 	mov    -0x98(%rbp),%rdx
    7430:	48 8b b5 50 ff ff ff 	mov    -0xb0(%rbp),%rsi
    7437:	48 89 d9             	mov    %rbx,%rcx
    743a:	48 89 c7             	mov    %rax,%rdi
    743d:	e8 07 18 00 00       	call   8c49 <_ZNSt6vectorISt3mapINSt7__cxx1112basic_stringIcSt11char_traitsIcESaIcEEES6_St4lessIS6_ESaISt4pairIKS6_S6_EEESaISD_EE11_S_relocateEPSD_SG_SG_RSE_>
    7442:	48 89 85 68 ff ff ff 	mov    %rax,-0x98(%rbp)
    7449:	48 8b 85 28 ff ff ff 	mov    -0xd8(%rbp),%rax
    7450:	48 8b 95 28 ff ff ff 	mov    -0xd8(%rbp),%rdx
    7457:	48 8b 52 10          	mov    0x10(%rdx),%rdx
    745b:	48 2b 95 48 ff ff ff 	sub    -0xb8(%rbp),%rdx
    7462:	48 89 d1             	mov    %rdx,%rcx
    7465:	48 c1 f9 04          	sar    $0x4,%rcx
    7469:	48 ba ab aa aa aa aa 	movabs $0xaaaaaaaaaaaaaaab,%rdx
    7470:	aa aa aa 
    7473:	48 0f af d1          	imul   %rcx,%rdx
    7477:	48 8b 8d 48 ff ff ff 	mov    -0xb8(%rbp),%rcx
    747e:	48 89 ce             	mov    %rcx,%rsi
    7481:	48 89 c7             	mov    %rax,%rdi
    7484:	e8 2b fa ff ff       	call   6eb4 <_ZNSt12_Vector_baseISt3mapINSt7__cxx1112basic_stringIcSt11char_traitsIcESaIcEEES6_St4lessIS6_ESaISt4pairIKS6_S6_EEESaISD_EE13_M_deallocateEPSD_m>
    7489:	48 8b 85 28 ff ff ff 	mov    -0xd8(%rbp),%rax
    7490:	48 8b 95 60 ff ff ff 	mov    -0xa0(%rbp),%rdx
    7497:	48 89 10             	mov    %rdx,(%rax)
    749a:	48 8b 85 28 ff ff ff 	mov    -0xd8(%rbp),%rax
    74a1:	48 8b 95 68 ff ff ff 	mov    -0x98(%rbp),%rdx
    74a8:	48 89 50 08          	mov    %rdx,0x8(%rax)
    74ac:	48 8b 95 40 ff ff ff 	mov    -0xc0(%rbp),%rdx
    74b3:	48 89 d0             	mov    %rdx,%rax
    74b6:	48 01 c0             	add    %rax,%rax
    74b9:	48 01 d0             	add    %rdx,%rax
    74bc:	48 c1 e0 04          	shl    $0x4,%rax
    74c0:	48 89 c2             	mov    %rax,%rdx
    74c3:	48 8b 85 60 ff ff ff 	mov    -0xa0(%rbp),%rax
    74ca:	48 01 c2             	add    %rax,%rdx
    74cd:	48 8b 85 28 ff ff ff 	mov    -0xd8(%rbp),%rax
    74d4:	48 89 50 10          	mov    %rdx,0x10(%rax)
    74d8:	90                   	nop
    74d9:	48 8b 45 d8          	mov    -0x28(%rbp),%rax
    74dd:	64 48 2b 04 25 28 00 	sub    %fs:0x28,%rax
    74e4:	00 00 
    74e6:	0f 84 26 01 00 00    	je     7612 <_ZNSt6vectorISt3mapINSt7__cxx1112basic_stringIcSt11char_traitsIcESaIcEEES6_St4lessIS6_ESaISt4pairIKS6_S6_EEESaISD_EE17_M_realloc_insertIJRKSD_EEEvN9__gnu_cxx17__normal_iteratorIPSD_SF_EEDpOT_+0x3ec>
    74ec:	e9 1c 01 00 00       	jmp    760d <_ZNSt6vectorISt3mapINSt7__cxx1112basic_stringIcSt11char_traitsIcESaIcEEES6_St4lessIS6_ESaISt4pairIKS6_S6_EEESaISD_EE17_M_realloc_insertIJRKSD_EEEvN9__gnu_cxx17__normal_iteratorIPSD_SF_EEDpOT_+0x3e7>
    74f1:	f3 0f 1e fa          	endbr64 
    74f5:	49 89 c5             	mov    %rax,%r13
    74f8:	45 84 f6             	test   %r14b,%r14b
    74fb:	74 0b                	je     7508 <_ZNSt6vectorISt3mapINSt7__cxx1112basic_stringIcSt11char_traitsIcESaIcEEES6_St4lessIS6_ESaISt4pairIKS6_S6_EEESaISD_EE17_M_realloc_insertIJRKSD_EEEvN9__gnu_cxx17__normal_iteratorIPSD_SF_EEDpOT_+0x2e2>
    74fd:	48 89 de             	mov    %rbx,%rsi
    7500:	4c 89 e7             	mov    %r12,%rdi
    7503:	e8 e4 e2 ff ff       	call   57ec <_ZdlPvS_>
    7508:	4c 89 e8             	mov    %r13,%rax
    750b:	48 89 c7             	mov    %rax,%rdi
    750e:	e8 6d c0 ff ff       	call   3580 <_init+0x580>
    7513:	48 83 bd 68 ff ff ff 	cmpq   $0x0,-0x98(%rbp)
    751a:	00 
    751b:	75 4f                	jne    756c <_ZNSt6vectorISt3mapINSt7__cxx1112basic_stringIcSt11char_traitsIcESaIcEEES6_St4lessIS6_ESaISt4pairIKS6_S6_EEESaISD_EE17_M_realloc_insertIJRKSD_EEEvN9__gnu_cxx17__normal_iteratorIPSD_SF_EEDpOT_+0x346>
    751d:	48 8b 95 58 ff ff ff 	mov    -0xa8(%rbp),%rdx
    7524:	48 89 d0             	mov    %rdx,%rax
    7527:	48 01 c0             	add    %rax,%rax
    752a:	48 01 d0             	add    %rdx,%rax
    752d:	48 c1 e0 04          	shl    $0x4,%rax
    7531:	48 89 c2             	mov    %rax,%rdx
    7534:	48 8b 85 60 ff ff ff 	mov    -0xa0(%rbp),%rax
    753b:	48 01 c2             	add    %rax,%rdx
    753e:	48 8b 85 28 ff ff ff 	mov    -0xd8(%rbp),%rax
    7545:	48 89 45 a0          	mov    %rax,-0x60(%rbp)
    7549:	48 89 55 a8          	mov    %rdx,-0x58(%rbp)
    754d:	48 8b 45 a0          	mov    -0x60(%rbp),%rax
    7551:	48 89 45 b0          	mov    %rax,-0x50(%rbp)
    7555:	48 8b 45 a8          	mov    -0x58(%rbp),%rax
    7559:	48 89 45 b8          	mov    %rax,-0x48(%rbp)
    755d:	48 8b 45 b8          	mov    -0x48(%rbp),%rax
    7561:	48 89 c7             	mov    %rax,%rdi
    7564:	e8 e1 e5 ff ff       	call   5b4a <_ZNSt3mapINSt7__cxx1112basic_stringIcSt11char_traitsIcESaIcEEES5_St4lessIS5_ESaISt4pairIKS5_S5_EEED1Ev>
    7569:	90                   	nop
    756a:	eb 3d                	jmp    75a9 <_ZNSt6vectorISt3mapINSt7__cxx1112basic_stringIcSt11char_traitsIcESaIcEEES6_St4lessIS6_ESaISt4pairIKS6_S6_EEESaISD_EE17_M_realloc_insertIJRKSD_EEEvN9__gnu_cxx17__normal_iteratorIPSD_SF_EEDpOT_+0x383>
    756c:	48 8b 85 28 ff ff ff 	mov    -0xd8(%rbp),%rax
    7573:	48 89 c7             	mov    %rax,%rdi
    7576:	e8 8b f9 ff ff       	call   6f06 <_ZNSt12_Vector_baseISt3mapINSt7__cxx1112basic_stringIcSt11char_traitsIcESaIcEEES6_St4lessIS6_ESaISt4pairIKS6_S6_EEESaISD_EE19_M_get_Tp_allocatorEv>
    757b:	48 8b 95 60 ff ff ff 	mov    -0xa0(%rbp),%rdx
    7582:	48 89 55 c0          	mov    %rdx,-0x40(%rbp)
    7586:	48 8b 95 68 ff ff ff 	mov    -0x98(%rbp),%rdx
    758d:	48 89 55 c8          	mov    %rdx,-0x38(%rbp)
    7591:	48 89 45 d0          	mov    %rax,-0x30(%rbp)
    7595:	48 8b 55 c8          	mov    -0x38(%rbp),%rdx
    7599:	48 8b 45 c0          	mov    -0x40(%rbp),%rax
    759d:	48 89 d6             	mov    %rdx,%rsi
    75a0:	48 89 c7             	mov    %rax,%rdi
    75a3:	e8 9e 0d 00 00       	call   8346 <_ZSt8_DestroyIPSt3mapINSt7__cxx1112basic_stringIcSt11char_traitsIcESaIcEEES6_St4lessIS6_ESaISt4pairIKS6_S6_EEEEvT_SF_>
    75a8:	90                   	nop
    75a9:	48 8b 85 28 ff ff ff 	mov    -0xd8(%rbp),%rax
    75b0:	48 8b 95 40 ff ff ff 	mov    -0xc0(%rbp),%rdx
    75b7:	48 8b 8d 60 ff ff ff 	mov    -0xa0(%rbp),%rcx
    75be:	48 89 ce             	mov    %rcx,%rsi
    75c1:	48 89 c7             	mov    %rax,%rdi
    75c4:	e8 eb f8 ff ff       	call   6eb4 <_ZNSt12_Vector_baseISt3mapINSt7__cxx1112basic_stringIcSt11char_traitsIcESaIcEEES6_St4lessIS6_ESaISt4pairIKS6_S6_EEESaISD_EE13_M_deallocateEPSD_m>
    75c9:	48 8b 45 d8          	mov    -0x28(%rbp),%rax
    75cd:	64 48 2b 04 25 28 00 	sub    %fs:0x28,%rax
    75d4:	00 00 
    75d6:	74 05                	je     75dd <_ZNSt6vectorISt3mapINSt7__cxx1112basic_stringIcSt11char_traitsIcESaIcEEES6_St4lessIS6_ESaISt4pairIKS6_S6_EEESaISD_EE17_M_realloc_insertIJRKSD_EEEvN9__gnu_cxx17__normal_iteratorIPSD_SF_EEDpOT_+0x3b7>
    75d8:	e8 a3 c1 ff ff       	call   3780 <_init+0x780>
    75dd:	e8 5e c2 ff ff       	call   3840 <_init+0x840>
    75e2:	f3 0f 1e fa          	endbr64 
    75e6:	48 89 c3             	mov    %rax,%rbx
    75e9:	e8 d2 c2 ff ff       	call   38c0 <_init+0x8c0>
    75ee:	48 89 d8             	mov    %rbx,%rax
    75f1:	48 8b 55 d8          	mov    -0x28(%rbp),%rdx
    75f5:	64 48 2b 14 25 28 00 	sub    %fs:0x28,%rdx
    75fc:	00 00 
    75fe:	74 05                	je     7605 <_ZNSt6vectorISt3mapINSt7__cxx1112basic_stringIcSt11char_traitsIcESaIcEEES6_St4lessIS6_ESaISt4pairIKS6_S6_EEESaISD_EE17_M_realloc_insertIJRKSD_EEEvN9__gnu_cxx17__normal_iteratorIPSD_SF_EEDpOT_+0x3df>
    7600:	e8 7b c1 ff ff       	call   3780 <_init+0x780>
    7605:	48 89 c7             	mov    %rax,%rdi
    7608:	e8 03 c3 ff ff       	call   3910 <_init+0x910>
    760d:	e8 6e c1 ff ff       	call   3780 <_init+0x780>
    7612:	48 81 c4 d0 00 00 00 	add    $0xd0,%rsp
    7619:	5b                   	pop    %rbx
    761a:	41 5c                	pop    %r12
    761c:	41 5d                	pop    %r13
    761e:	41 5e                	pop    %r14
    7620:	5d                   	pop    %rbp
    7621:	c3                   	ret    

0000000000007622 <_ZSt4moveIRNSt12_Vector_baseISt3mapINSt7__cxx1112basic_stringIcSt11char_traitsIcESaIcEEES7_St4lessIS7_ESaISt4pairIKS7_S7_EEESaISE_EE12_Vector_implEEONSt16remove_referenceIT_E4typeEOSK_>:
    7622:	f3 0f 1e fa          	endbr64 
    7626:	55                   	push   %rbp
    7627:	48 89 e5             	mov    %rsp,%rbp
    762a:	48 89 7d f8          	mov    %rdi,-0x8(%rbp)
    762e:	48 8b 45 f8          	mov    -0x8(%rbp),%rax
    7632:	5d                   	pop    %rbp
    7633:	c3                   	ret    

0000000000007634 <_ZNSt12_Vector_baseISt3mapINSt7__cxx1112basic_stringIcSt11char_traitsIcESaIcEEES6_St4lessIS6_ESaISt4pairIKS6_S6_EEESaISD_EE17_Vector_impl_dataC1EOSG_>:
    7634:	f3 0f 1e fa          	endbr64 
    7638:	55                   	push   %rbp
    7639:	48 89 e5             	mov    %rsp,%rbp
    763c:	48 89 7d f8          	mov    %rdi,-0x8(%rbp)
    7640:	48 89 75 f0          	mov    %rsi,-0x10(%rbp)
    7644:	48 8b 45 f0          	mov    -0x10(%rbp),%rax
    7648:	48 8b 10             	mov    (%rax),%rdx
    764b:	48 8b 45 f8          	mov    -0x8(%rbp),%rax
    764f:	48 89 10             	mov    %rdx,(%rax)
    7652:	48 8b 45 f0          	mov    -0x10(%rbp),%rax
    7656:	48 8b 50 08          	mov    0x8(%rax),%rdx
    765a:	48 8b 45 f8          	mov    -0x8(%rbp),%rax
    765e:	48 89 50 08          	mov    %rdx,0x8(%rax)
    7662:	48 8b 45 f0          	mov    -0x10(%rbp),%rax
    7666:	48 8b 50 10          	mov    0x10(%rax),%rdx
    766a:	48 8b 45 f8          	mov    -0x8(%rbp),%rax
    766e:	48 89 50 10          	mov    %rdx,0x10(%rax)
    7672:	48 8b 45 f0          	mov    -0x10(%rbp),%rax
    7676:	48 c7 40 10 00 00 00 	movq   $0x0,0x10(%rax)
    767d:	00 
    767e:	48 8b 45 f0          	mov    -0x10(%rbp),%rax
    7682:	48 8b 50 10          	mov    0x10(%rax),%rdx
    7686:	48 8b 45 f0          	mov    -0x10(%rbp),%rax
    768a:	48 89 50 08          	mov    %rdx,0x8(%rax)
    768e:	48 8b 45 f0          	mov    -0x10(%rbp),%rax
    7692:	48 8b 50 08          	mov    0x8(%rax),%rdx
    7696:	48 8b 45 f0          	mov    -0x10(%rbp),%rax
    769a:	48 89 10             	mov    %rdx,(%rax)
    769d:	90                   	nop
    769e:	5d                   	pop    %rbp
    769f:	c3                   	ret    

00000000000076a0 <_ZN9__gnu_cxx17__normal_iteratorIPKNSt7__cxx1112basic_stringIcSt11char_traitsIcESaIcEEESt6vectorIS6_SaIS6_EEEC1ERKS8_>:
    76a0:	f3 0f 1e fa          	endbr64 
    76a4:	55                   	push   %rbp
    76a5:	48 89 e5             	mov    %rsp,%rbp
    76a8:	48 89 7d f8          	mov    %rdi,-0x8(%rbp)
    76ac:	48 89 75 f0          	mov    %rsi,-0x10(%rbp)
    76b0:	48 8b 45 f0          	mov    -0x10(%rbp),%rax
    76b4:	48 8b 10             	mov    (%rax),%rdx
    76b7:	48 8b 45 f8          	mov    -0x8(%rbp),%rax
    76bb:	48 89 10             	mov    %rdx,(%rax)
    76be:	90                   	nop
    76bf:	5d                   	pop    %rbp
    76c0:	c3                   	ret    
    76c1:	90                   	nop

00000000000076c2 <_ZNK9__gnu_cxx17__normal_iteratorIPKNSt7__cxx1112basic_stringIcSt11char_traitsIcESaIcEEESt6vectorIS6_SaIS6_EEE4baseEv>:
    76c2:	f3 0f 1e fa          	endbr64 
    76c6:	55                   	push   %rbp
    76c7:	48 89 e5             	mov    %rsp,%rbp
    76ca:	48 89 7d f8          	mov    %rdi,-0x8(%rbp)
    76ce:	48 8b 45 f8          	mov    -0x8(%rbp),%rax
    76d2:	5d                   	pop    %rbp
    76d3:	c3                   	ret    

00000000000076d4 <_ZNKSt8_Rb_treeINSt7__cxx1112basic_stringIcSt11char_traitsIcESaIcEEESt4pairIKS5_S5_ESt10_Select1stIS8_ESt4lessIS5_ESaIS8_EE4findERS7_>:
    76d4:	f3 0f 1e fa          	endbr64 
    76d8:	55                   	push   %rbp
    76d9:	48 89 e5             	mov    %rsp,%rbp
    76dc:	53                   	push   %rbx
    76dd:	48 83 ec 38          	sub    $0x38,%rsp
    76e1:	48 89 7d c8          	mov    %rdi,-0x38(%rbp)
    76e5:	48 89 75 c0          	mov    %rsi,-0x40(%rbp)
    76e9:	64 48 8b 04 25 28 00 	mov    %fs:0x28,%rax
    76f0:	00 00 
    76f2:	48 89 45 e8          	mov    %rax,-0x18(%rbp)
    76f6:	31 c0                	xor    %eax,%eax
    76f8:	48 8b 45 c8          	mov    -0x38(%rbp),%rax
    76fc:	48 89 c7             	mov    %rax,%rdi
    76ff:	e8 92 15 00 00       	call   8c96 <_ZNKSt8_Rb_treeINSt7__cxx1112basic_stringIcSt11char_traitsIcESaIcEEESt4pairIKS5_S5_ESt10_Select1stIS8_ESt4lessIS5_ESaIS8_EE6_M_endEv>
    7704:	48 89 c3             	mov    %rax,%rbx
    7707:	48 8b 45 c8          	mov    -0x38(%rbp),%rax
    770b:	48 89 c7             	mov    %rax,%rdi
    770e:	e8 6d 15 00 00       	call   8c80 <_ZNKSt8_Rb_treeINSt7__cxx1112basic_stringIcSt11char_traitsIcESaIcEEESt4pairIKS5_S5_ESt10_Select1stIS8_ESt4lessIS5_ESaIS8_EE8_M_beginEv>
    7713:	48 89 c6             	mov    %rax,%rsi
    7716:	48 8b 55 c0          	mov    -0x40(%rbp),%rdx
    771a:	48 8b 45 c8          	mov    -0x38(%rbp),%rax
    771e:	48 89 d1             	mov    %rdx,%rcx
    7721:	48 89 da             	mov    %rbx,%rdx
    7724:	48 89 c7             	mov    %rax,%rdi
    7727:	e8 80 15 00 00       	call   8cac <_ZNKSt8_Rb_treeINSt7__cxx1112basic_stringIcSt11char_traitsIcESaIcEEESt4pairIKS5_S5_ESt10_Select1stIS8_ESt4lessIS5_ESaIS8_EE14_M_lower_boundEPKSt13_Rb_tree_nodeIS8_EPKSt18_Rb_tree_node_baseRS7_>
    772c:	48 89 45 d8          	mov    %rax,-0x28(%rbp)
    7730:	48 8b 45 c8          	mov    -0x38(%rbp),%rax
    7734:	48 89 c7             	mov    %rax,%rdi
    7737:	e8 6e 00 00 00       	call   77aa <_ZNKSt8_Rb_treeINSt7__cxx1112basic_stringIcSt11char_traitsIcESaIcEEESt4pairIKS5_S5_ESt10_Select1stIS8_ESt4lessIS5_ESaIS8_EE3endEv>
    773c:	48 89 45 e0          	mov    %rax,-0x20(%rbp)
    7740:	48 8d 55 e0          	lea    -0x20(%rbp),%rdx
    7744:	48 8d 45 d8          	lea    -0x28(%rbp),%rax
    7748:	48 89 d6             	mov    %rdx,%rsi
    774b:	48 89 c7             	mov    %rax,%rdi
    774e:	e8 15 16 00 00       	call   8d68 <_ZSteqRKSt23_Rb_tree_const_iteratorISt4pairIKNSt7__cxx1112basic_stringIcSt11char_traitsIcESaIcEEES6_EESB_>
    7753:	84 c0                	test   %al,%al
    7755:	75 26                	jne    777d <_ZNKSt8_Rb_treeINSt7__cxx1112basic_stringIcSt11char_traitsIcESaIcEEESt4pairIKS5_S5_ESt10_Select1stIS8_ESt4lessIS5_ESaIS8_EE4findERS7_+0xa9>
    7757:	48 8b 5d c8          	mov    -0x38(%rbp),%rbx
    775b:	48 8b 45 d8          	mov    -0x28(%rbp),%rax
    775f:	48 89 c7             	mov    %rax,%rdi
    7762:	e8 27 16 00 00       	call   8d8e <_ZNSt8_Rb_treeINSt7__cxx1112basic_stringIcSt11char_traitsIcESaIcEEESt4pairIKS5_S5_ESt10_Select1stIS8_ESt4lessIS5_ESaIS8_EE6_S_keyEPKSt18_Rb_tree_node_base>
    7767:	48 89 c2             	mov    %rax,%rdx
    776a:	48 8b 45 c0          	mov    -0x40(%rbp),%rax
    776e:	48 89 c6             	mov    %rax,%rsi
    7771:	48 89 df             	mov    %rbx,%rdi
    7774:	e8 f7 f8 ff ff       	call   7070 <_ZNKSt4lessINSt7__cxx1112basic_stringIcSt11char_traitsIcESaIcEEEEclERKS5_S8_>
    7779:	84 c0                	test   %al,%al
    777b:	74 0e                	je     778b <_ZNKSt8_Rb_treeINSt7__cxx1112basic_stringIcSt11char_traitsIcESaIcEEESt4pairIKS5_S5_ESt10_Select1stIS8_ESt4lessIS5_ESaIS8_EE4findERS7_+0xb7>
    777d:	48 8b 45 c8          	mov    -0x38(%rbp),%rax
    7781:	48 89 c7             	mov    %rax,%rdi
    7784:	e8 21 00 00 00       	call   77aa <_ZNKSt8_Rb_treeINSt7__cxx1112basic_stringIcSt11char_traitsIcESaIcEEESt4pairIKS5_S5_ESt10_Select1stIS8_ESt4lessIS5_ESaIS8_EE3endEv>
    7789:	eb 04                	jmp    778f <_ZNKSt8_Rb_treeINSt7__cxx1112basic_stringIcSt11char_traitsIcESaIcEEESt4pairIKS5_S5_ESt10_Select1stIS8_ESt4lessIS5_ESaIS8_EE4findERS7_+0xbb>
    778b:	48 8b 45 d8          	mov    -0x28(%rbp),%rax
    778f:	48 8b 55 e8          	mov    -0x18(%rbp),%rdx
    7793:	64 48 2b 14 25 28 00 	sub    %fs:0x28,%rdx
    779a:	00 00 
    779c:	74 05                	je     77a3 <_ZNKSt8_Rb_treeINSt7__cxx1112basic_stringIcSt11char_traitsIcESaIcEEESt4pairIKS5_S5_ESt10_Select1stIS8_ESt4lessIS5_ESaIS8_EE4findERS7_+0xcf>
    779e:	e8 dd bf ff ff       	call   3780 <_init+0x780>
    77a3:	48 8b 5d f8          	mov    -0x8(%rbp),%rbx
    77a7:	c9                   	leave  
    77a8:	c3                   	ret    
    77a9:	90                   	nop

00000000000077aa <_ZNKSt8_Rb_treeINSt7__cxx1112basic_stringIcSt11char_traitsIcESaIcEEESt4pairIKS5_S5_ESt10_Select1stIS8_ESt4lessIS5_ESaIS8_EE3endEv>:
    77aa:	f3 0f 1e fa          	endbr64 
    77ae:	55                   	push   %rbp
    77af:	48 89 e5             	mov    %rsp,%rbp
    77b2:	48 83 ec 20          	sub    $0x20,%rsp
    77b6:	48 89 7d e8          	mov    %rdi,-0x18(%rbp)
    77ba:	64 48 8b 04 25 28 00 	mov    %fs:0x28,%rax
    77c1:	00 00 
    77c3:	48 89 45 f8          	mov    %rax,-0x8(%rbp)
    77c7:	31 c0                	xor    %eax,%eax
    77c9:	48 8b 45 e8          	mov    -0x18(%rbp),%rax
    77cd:	48 8d 50 08          	lea    0x8(%rax),%rdx
    77d1:	48 8d 45 f0          	lea    -0x10(%rbp),%rax
    77d5:	48 89 d6             	mov    %rdx,%rsi
    77d8:	48 89 c7             	mov    %rax,%rdi
    77db:	e8 cc 15 00 00       	call   8dac <_ZNSt23_Rb_tree_const_iteratorISt4pairIKNSt7__cxx1112basic_stringIcSt11char_traitsIcESaIcEEES6_EEC1EPKSt18_Rb_tree_node_base>
    77e0:	48 8b 45 f0          	mov    -0x10(%rbp),%rax
    77e4:	48 8b 55 f8          	mov    -0x8(%rbp),%rdx
    77e8:	64 48 2b 14 25 28 00 	sub    %fs:0x28,%rdx
    77ef:	00 00 
    77f1:	74 05                	je     77f8 <_ZNKSt8_Rb_treeINSt7__cxx1112basic_stringIcSt11char_traitsIcESaIcEEESt4pairIKS5_S5_ESt10_Select1stIS8_ESt4lessIS5_ESaIS8_EE3endEv+0x4e>
    77f3:	e8 88 bf ff ff       	call   3780 <_init+0x780>
    77f8:	c9                   	leave  
    77f9:	c3                   	ret    

00000000000077fa <_ZNKSt13_Rb_tree_nodeISt4pairIKNSt7__cxx1112basic_stringIcSt11char_traitsIcESaIcEEES6_EE9_M_valptrEv>:
    77fa:	f3 0f 1e fa          	endbr64 
    77fe:	55                   	push   %rbp
    77ff:	48 89 e5             	mov    %rsp,%rbp
    7802:	48 83 ec 10          	sub    $0x10,%rsp
    7806:	48 89 7d f8          	mov    %rdi,-0x8(%rbp)
    780a:	48 8b 45 f8          	mov    -0x8(%rbp),%rax
    780e:	48 83 c0 20          	add    $0x20,%rax
    7812:	48 89 c7             	mov    %rax,%rdi
    7815:	e8 b0 15 00 00       	call   8dca <_ZNK9__gnu_cxx16__aligned_membufISt4pairIKNSt7__cxx1112basic_stringIcSt11char_traitsIcESaIcEEES7_EE6_M_ptrEv>
    781a:	c9                   	leave  
    781b:	c3                   	ret    

000000000000781c <_ZNSt15__new_allocatorINSt7__cxx1112basic_stringIcSt11char_traitsIcESaIcEEEED1Ev>:
    781c:	f3 0f 1e fa          	endbr64 
    7820:	55                   	push   %rbp
    7821:	48 89 e5             	mov    %rsp,%rbp
    7824:	48 89 7d f8          	mov    %rdi,-0x8(%rbp)
    7828:	90                   	nop
    7829:	5d                   	pop    %rbp
    782a:	c3                   	ret    
    782b:	90                   	nop

000000000000782c <_ZNSt12_Vector_baseINSt7__cxx1112basic_stringIcSt11char_traitsIcESaIcEEESaIS5_EEC1ERKS6_>:
    782c:	f3 0f 1e fa          	endbr64 
    7830:	55                   	push   %rbp
    7831:	48 89 e5             	mov    %rsp,%rbp
    7834:	48 83 ec 10          	sub    $0x10,%rsp
    7838:	48 89 7d f8          	mov    %rdi,-0x8(%rbp)
    783c:	48 89 75 f0          	mov    %rsi,-0x10(%rbp)
    7840:	48 8b 45 f8          	mov    -0x8(%rbp),%rax
    7844:	48 8b 55 f0          	mov    -0x10(%rbp),%rdx
    7848:	48 89 d6             	mov    %rdx,%rsi
    784b:	48 89 c7             	mov    %rax,%rdi
    784e:	e8 95 15 00 00       	call   8de8 <_ZNSt12_Vector_baseINSt7__cxx1112basic_stringIcSt11char_traitsIcESaIcEEESaIS5_EE12_Vector_implC1ERKS6_>
    7853:	90                   	nop
    7854:	c9                   	leave  
    7855:	c3                   	ret    

0000000000007856 <_ZNSt6vectorINSt7__cxx1112basic_stringIcSt11char_traitsIcESaIcEEESaIS5_EE19_M_range_initializeIPKPKcEEvT_SD_St20forward_iterator_tag>:
    7856:	f3 0f 1e fa          	endbr64 
    785a:	55                   	push   %rbp
    785b:	48 89 e5             	mov    %rsp,%rbp
    785e:	53                   	push   %rbx
    785f:	48 83 ec 58          	sub    $0x58,%rsp
    7863:	48 89 7d b8          	mov    %rdi,-0x48(%rbp)
    7867:	48 89 75 b0          	mov    %rsi,-0x50(%rbp)
    786b:	48 89 55 a8          	mov    %rdx,-0x58(%rbp)
    786f:	64 48 8b 04 25 28 00 	mov    %fs:0x28,%rax
    7876:	00 00 
    7878:	48 89 45 e8          	mov    %rax,-0x18(%rbp)
    787c:	31 c0                	xor    %eax,%eax
    787e:	48 8b 45 b0          	mov    -0x50(%rbp),%rax
    7882:	48 89 45 c0          	mov    %rax,-0x40(%rbp)
    7886:	48 8b 45 a8          	mov    -0x58(%rbp),%rax
    788a:	48 89 45 d0          	mov    %rax,-0x30(%rbp)
    788e:	90                   	nop
    788f:	48 8b 45 c0          	mov    -0x40(%rbp),%rax
    7893:	48 89 45 d8          	mov    %rax,-0x28(%rbp)
    7897:	48 8b 45 d0          	mov    -0x30(%rbp),%rax
    789b:	48 89 45 e0          	mov    %rax,-0x20(%rbp)
    789f:	48 8b 45 e0          	mov    -0x20(%rbp),%rax
    78a3:	48 2b 45 d8          	sub    -0x28(%rbp),%rax
    78a7:	48 c1 f8 03          	sar    $0x3,%rax
    78ab:	90                   	nop
    78ac:	48 89 45 c8          	mov    %rax,-0x38(%rbp)
    78b0:	48 8b 5d b8          	mov    -0x48(%rbp),%rbx
    78b4:	48 8b 45 b8          	mov    -0x48(%rbp),%rax
    78b8:	48 89 c7             	mov    %rax,%rdi
    78bb:	e8 88 00 00 00       	call   7948 <_ZNSt12_Vector_baseINSt7__cxx1112basic_stringIcSt11char_traitsIcESaIcEEESaIS5_EE19_M_get_Tp_allocatorEv>
    78c0:	48 89 c2             	mov    %rax,%rdx
    78c3:	48 8b 45 c8          	mov    -0x38(%rbp),%rax
    78c7:	48 89 d6             	mov    %rdx,%rsi
    78ca:	48 89 c7             	mov    %rax,%rdi
    78cd:	e8 5b 15 00 00       	call   8e2d <_ZNSt6vectorINSt7__cxx1112basic_stringIcSt11char_traitsIcESaIcEEESaIS5_EE17_S_check_init_lenEmRKS6_>
    78d2:	48 89 c6             	mov    %rax,%rsi
    78d5:	48 89 df             	mov    %rbx,%rdi
    78d8:	e8 f3 15 00 00       	call   8ed0 <_ZNSt12_Vector_baseINSt7__cxx1112basic_stringIcSt11char_traitsIcESaIcEEESaIS5_EE11_M_allocateEm>
    78dd:	48 8b 55 b8          	mov    -0x48(%rbp),%rdx
    78e1:	48 89 02             	mov    %rax,(%rdx)
    78e4:	48 8b 45 b8          	mov    -0x48(%rbp),%rax
    78e8:	48 8b 00             	mov    (%rax),%rax
    78eb:	48 8b 55 c8          	mov    -0x38(%rbp),%rdx
    78ef:	48 c1 e2 05          	shl    $0x5,%rdx
    78f3:	48 01 c2             	add    %rax,%rdx
    78f6:	48 8b 45 b8          	mov    -0x48(%rbp),%rax
    78fa:	48 89 50 10          	mov    %rdx,0x10(%rax)
    78fe:	48 8b 45 b8          	mov    -0x48(%rbp),%rax
    7902:	48 89 c7             	mov    %rax,%rdi
    7905:	e8 3e 00 00 00       	call   7948 <_ZNSt12_Vector_baseINSt7__cxx1112basic_stringIcSt11char_traitsIcESaIcEEESaIS5_EE19_M_get_Tp_allocatorEv>
    790a:	48 89 c1             	mov    %rax,%rcx
    790d:	48 8b 45 b8          	mov    -0x48(%rbp),%rax
    7911:	48 8b 10             	mov    (%rax),%rdx
    7914:	48 8b 75 a8          	mov    -0x58(%rbp),%rsi
    7918:	48 8b 45 b0          	mov    -0x50(%rbp),%rax
    791c:	48 89 c7             	mov    %rax,%rdi
    791f:	e8 f9 15 00 00       	call   8f1d <_ZSt22__uninitialized_copy_aIPKPKcPNSt7__cxx1112basic_stringIcSt11char_traitsIcESaIcEEES9_ET0_T_SC_SB_RSaIT1_E>
    7924:	48 8b 55 b8          	mov    -0x48(%rbp),%rdx
    7928:	48 89 42 08          	mov    %rax,0x8(%rdx)
    792c:	90                   	nop
    792d:	48 8b 45 e8          	mov    -0x18(%rbp),%rax
    7931:	64 48 2b 04 25 28 00 	sub    %fs:0x28,%rax
    7938:	00 00 
    793a:	74 05                	je     7941 <_ZNSt6vectorINSt7__cxx1112basic_stringIcSt11char_traitsIcESaIcEEESaIS5_EE19_M_range_initializeIPKPKcEEvT_SD_St20forward_iterator_tag+0xeb>
    793c:	e8 3f be ff ff       	call   3780 <_init+0x780>
    7941:	48 8b 5d f8          	mov    -0x8(%rbp),%rbx
    7945:	c9                   	leave  
    7946:	c3                   	ret    
    7947:	90                   	nop

0000000000007948 <_ZNSt12_Vector_baseINSt7__cxx1112basic_stringIcSt11char_traitsIcESaIcEEESaIS5_EE19_M_get_Tp_allocatorEv>:
    7948:	f3 0f 1e fa          	endbr64 
    794c:	55                   	push   %rbp
    794d:	48 89 e5             	mov    %rsp,%rbp
    7950:	48 89 7d f8          	mov    %rdi,-0x8(%rbp)
    7954:	48 8b 45 f8          	mov    -0x8(%rbp),%rax
    7958:	5d                   	pop    %rbp
    7959:	c3                   	ret    

000000000000795a <_ZSt12__str_concatINSt7__cxx1112basic_stringIcSt11char_traitsIcESaIcEEEET_PKNS6_10value_typeENS6_9size_typeES9_SA_RKNS6_14allocator_typeE>:
    795a:	f3 0f 1e fa          	endbr64 
    795e:	55                   	push   %rbp
    795f:	48 89 e5             	mov    %rsp,%rbp
    7962:	53                   	push   %rbx
    7963:	48 83 ec 78          	sub    $0x78,%rsp
    7967:	48 89 7d a8          	mov    %rdi,-0x58(%rbp)
    796b:	48 89 75 a0          	mov    %rsi,-0x60(%rbp)
    796f:	48 89 55 98          	mov    %rdx,-0x68(%rbp)
    7973:	48 89 4d 90          	mov    %rcx,-0x70(%rbp)
    7977:	4c 89 45 88          	mov    %r8,-0x78(%rbp)
    797b:	4c 89 4d 80          	mov    %r9,-0x80(%rbp)
    797f:	64 48 8b 04 25 28 00 	mov    %fs:0x28,%rax
    7986:	00 00 
    7988:	48 89 45 e8          	mov    %rax,-0x18(%rbp)
    798c:	31 c0                	xor    %eax,%eax
    798e:	48 8b 45 80          	mov    -0x80(%rbp),%rax
    7992:	48 89 45 b8          	mov    %rax,-0x48(%rbp)
    7996:	48 8d 45 b7          	lea    -0x49(%rbp),%rax
    799a:	48 8b 55 b8          	mov    -0x48(%rbp),%rdx
    799e:	48 89 55 c0          	mov    %rdx,-0x40(%rbp)
    79a2:	48 89 45 c8          	mov    %rax,-0x38(%rbp)
    79a6:	48 8b 45 c0          	mov    -0x40(%rbp),%rax
    79aa:	48 89 45 d0          	mov    %rax,-0x30(%rbp)
    79ae:	48 8b 45 c8          	mov    -0x38(%rbp),%rax
    79b2:	48 89 45 d8          	mov    %rax,-0x28(%rbp)
    79b6:	48 8b 45 d0          	mov    -0x30(%rbp),%rax
    79ba:	48 89 45 e0          	mov    %rax,-0x20(%rbp)
    79be:	90                   	nop
    79bf:	90                   	nop
    79c0:	90                   	nop
    79c1:	90                   	nop
    79c2:	48 8d 55 b7          	lea    -0x49(%rbp),%rdx
    79c6:	48 8b 45 a8          	mov    -0x58(%rbp),%rax
    79ca:	48 89 d6             	mov    %rdx,%rsi
    79cd:	48 89 c7             	mov    %rax,%rdi
    79d0:	e8 1b bf ff ff       	call   38f0 <_init+0x8f0>
    79d5:	48 8d 45 b7          	lea    -0x49(%rbp),%rax
    79d9:	48 89 c7             	mov    %rax,%rdi
    79dc:	e8 f7 f2 ff ff       	call   6cd8 <_ZNSt15__new_allocatorIcED1Ev>
    79e1:	90                   	nop
    79e2:	48 8b 55 98          	mov    -0x68(%rbp),%rdx
    79e6:	48 8b 45 88          	mov    -0x78(%rbp),%rax
    79ea:	48 01 c2             	add    %rax,%rdx
    79ed:	48 8b 45 a8          	mov    -0x58(%rbp),%rax
    79f1:	48 89 d6             	mov    %rdx,%rsi
    79f4:	48 89 c7             	mov    %rax,%rdi
    79f7:	e8 84 be ff ff       	call   3880 <_init+0x880>
    79fc:	48 8b 55 98          	mov    -0x68(%rbp),%rdx
    7a00:	48 8b 4d a0          	mov    -0x60(%rbp),%rcx
    7a04:	48 8b 45 a8          	mov    -0x58(%rbp),%rax
    7a08:	48 89 ce             	mov    %rcx,%rsi
    7a0b:	48 89 c7             	mov    %rax,%rdi
    7a0e:	e8 ed ba ff ff       	call   3500 <_init+0x500>
    7a13:	48 8b 55 88          	mov    -0x78(%rbp),%rdx
    7a17:	48 8b 4d 90          	mov    -0x70(%rbp),%rcx
    7a1b:	48 8b 45 a8          	mov    -0x58(%rbp),%rax
    7a1f:	48 89 ce             	mov    %rcx,%rsi
    7a22:	48 89 c7             	mov    %rax,%rdi
    7a25:	e8 d6 ba ff ff       	call   3500 <_init+0x500>
    7a2a:	eb 32                	jmp    7a5e <_ZSt12__str_concatINSt7__cxx1112basic_stringIcSt11char_traitsIcESaIcEEEET_PKNS6_10value_typeENS6_9size_typeES9_SA_RKNS6_14allocator_typeE+0x104>
    7a2c:	f3 0f 1e fa          	endbr64 
    7a30:	48 89 c3             	mov    %rax,%rbx
    7a33:	48 8b 45 a8          	mov    -0x58(%rbp),%rax
    7a37:	48 89 c7             	mov    %rax,%rdi
    7a3a:	e8 b1 bb ff ff       	call   35f0 <_init+0x5f0>
    7a3f:	48 89 d8             	mov    %rbx,%rax
    7a42:	48 8b 55 e8          	mov    -0x18(%rbp),%rdx
    7a46:	64 48 2b 14 25 28 00 	sub    %fs:0x28,%rdx
    7a4d:	00 00 
    7a4f:	74 05                	je     7a56 <_ZSt12__str_concatINSt7__cxx1112basic_stringIcSt11char_traitsIcESaIcEEEET_PKNS6_10value_typeENS6_9size_typeES9_SA_RKNS6_14allocator_typeE+0xfc>
    7a51:	e8 2a bd ff ff       	call   3780 <_init+0x780>
    7a56:	48 89 c7             	mov    %rax,%rdi
    7a59:	e8 b2 be ff ff       	call   3910 <_init+0x910>
    7a5e:	48 8b 45 e8          	mov    -0x18(%rbp),%rax
    7a62:	64 48 2b 04 25 28 00 	sub    %fs:0x28,%rax
    7a69:	00 00 
    7a6b:	74 05                	je     7a72 <_ZSt12__str_concatINSt7__cxx1112basic_stringIcSt11char_traitsIcESaIcEEEET_PKNS6_10value_typeENS6_9size_typeES9_SA_RKNS6_14allocator_typeE+0x118>
    7a6d:	e8 0e bd ff ff       	call   3780 <_init+0x780>
    7a72:	48 8b 45 a8          	mov    -0x58(%rbp),%rax
    7a76:	48 8b 5d f8          	mov    -0x8(%rbp),%rbx
    7a7a:	c9                   	leave  
    7a7b:	c3                   	ret    

0000000000007a7c <_ZNSt12_Vector_baseINSt7__cxx1112basic_stringIcSt11char_traitsIcESaIcEEESaIS5_EE17_Vector_impl_dataC1Ev>:
    7a7c:	f3 0f 1e fa          	endbr64 
    7a80:	55                   	push   %rbp
    7a81:	48 89 e5             	mov    %rsp,%rbp
    7a84:	48 89 7d f8          	mov    %rdi,-0x8(%rbp)
    7a88:	48 8b 45 f8          	mov    -0x8(%rbp),%rax
    7a8c:	48 c7 00 00 00 00 00 	movq   $0x0,(%rax)
    7a93:	48 8b 45 f8          	mov    -0x8(%rbp),%rax
    7a97:	48 c7 40 08 00 00 00 	movq   $0x0,0x8(%rax)
    7a9e:	00 
    7a9f:	48 8b 45 f8          	mov    -0x8(%rbp),%rax
    7aa3:	48 c7 40 10 00 00 00 	movq   $0x0,0x10(%rax)
    7aaa:	00 
    7aab:	90                   	nop
    7aac:	5d                   	pop    %rbp
    7aad:	c3                   	ret    

0000000000007aae <_ZNSt12_Vector_baseINSt7__cxx1112basic_stringIcSt11char_traitsIcESaIcEEESaIS5_EE13_M_deallocateEPS5_m>:
    7aae:	f3 0f 1e fa          	endbr64 
    7ab2:	55                   	push   %rbp
    7ab3:	48 89 e5             	mov    %rsp,%rbp
    7ab6:	48 83 ec 40          	sub    $0x40,%rsp
    7aba:	48 89 7d d8          	mov    %rdi,-0x28(%rbp)
    7abe:	48 89 75 d0          	mov    %rsi,-0x30(%rbp)
    7ac2:	48 89 55 c8          	mov    %rdx,-0x38(%rbp)
    7ac6:	48 83 7d d0 00       	cmpq   $0x0,-0x30(%rbp)
    7acb:	74 30                	je     7afd <_ZNSt12_Vector_baseINSt7__cxx1112basic_stringIcSt11char_traitsIcESaIcEEESaIS5_EE13_M_deallocateEPS5_m+0x4f>
    7acd:	48 8b 45 d8          	mov    -0x28(%rbp),%rax
    7ad1:	48 89 45 e8          	mov    %rax,-0x18(%rbp)
    7ad5:	48 8b 45 d0          	mov    -0x30(%rbp),%rax
    7ad9:	48 89 45 f0          	mov    %rax,-0x10(%rbp)
    7add:	48 8b 45 c8          	mov    -0x38(%rbp),%rax
    7ae1:	48 89 45 f8          	mov    %rax,-0x8(%rbp)
    7ae5:	48 8b 55 f8          	mov    -0x8(%rbp),%rdx
    7ae9:	48 8b 4d f0          	mov    -0x10(%rbp),%rcx
    7aed:	48 8b 45 e8          	mov    -0x18(%rbp),%rax
    7af1:	48 89 ce             	mov    %rcx,%rsi
    7af4:	48 89 c7             	mov    %rax,%rdi
    7af7:	e8 c2 23 00 00       	call   9ebe <_ZNSt15__new_allocatorINSt7__cxx1112basic_stringIcSt11char_traitsIcESaIcEEEE10deallocateEPS5_m>
    7afc:	90                   	nop
    7afd:	90                   	nop
    7afe:	c9                   	leave  
    7aff:	c3                   	ret    

0000000000007b00 <_ZNKSt8_Rb_treeINSt7__cxx1112basic_stringIcSt11char_traitsIcESaIcEEES5_St9_IdentityIS5_ESt4lessIS5_ESaIS5_EE5beginEv>:
    7b00:	f3 0f 1e fa          	endbr64 
    7b04:	55                   	push   %rbp
    7b05:	48 89 e5             	mov    %rsp,%rbp
    7b08:	48 83 ec 20          	sub    $0x20,%rsp
    7b0c:	48 89 7d e8          	mov    %rdi,-0x18(%rbp)
    7b10:	64 48 8b 04 25 28 00 	mov    %fs:0x28,%rax
    7b17:	00 00 
    7b19:	48 89 45 f8          	mov    %rax,-0x8(%rbp)
    7b1d:	31 c0                	xor    %eax,%eax
    7b1f:	48 8b 45 e8          	mov    -0x18(%rbp),%rax
    7b23:	48 8b 50 18          	mov    0x18(%rax),%rdx
    7b27:	48 8d 45 f0          	lea    -0x10(%rbp),%rax
    7b2b:	48 89 d6             	mov    %rdx,%rsi
    7b2e:	48 89 c7             	mov    %rax,%rdi
    7b31:	e8 46 14 00 00       	call   8f7c <_ZNSt23_Rb_tree_const_iteratorINSt7__cxx1112basic_stringIcSt11char_traitsIcESaIcEEEEC1EPKSt18_Rb_tree_node_base>
    7b36:	48 8b 45 f0          	mov    -0x10(%rbp),%rax
    7b3a:	48 8b 55 f8          	mov    -0x8(%rbp),%rdx
    7b3e:	64 48 2b 14 25 28 00 	sub    %fs:0x28,%rdx
    7b45:	00 00 
    7b47:	74 05                	je     7b4e <_ZNKSt8_Rb_treeINSt7__cxx1112basic_stringIcSt11char_traitsIcESaIcEEES5_St9_IdentityIS5_ESt4lessIS5_ESaIS5_EE5beginEv+0x4e>
    7b49:	e8 32 bc ff ff       	call   3780 <_init+0x780>
    7b4e:	c9                   	leave  
    7b4f:	c3                   	ret    

0000000000007b50 <_ZNKSt8_Rb_treeINSt7__cxx1112basic_stringIcSt11char_traitsIcESaIcEEES5_St9_IdentityIS5_ESt4lessIS5_ESaIS5_EE3endEv>:
    7b50:	f3 0f 1e fa          	endbr64 
    7b54:	55                   	push   %rbp
    7b55:	48 89 e5             	mov    %rsp,%rbp
    7b58:	48 83 ec 20          	sub    $0x20,%rsp
    7b5c:	48 89 7d e8          	mov    %rdi,-0x18(%rbp)
    7b60:	64 48 8b 04 25 28 00 	mov    %fs:0x28,%rax
    7b67:	00 00 
    7b69:	48 89 45 f8          	mov    %rax,-0x8(%rbp)
    7b6d:	31 c0                	xor    %eax,%eax
    7b6f:	48 8b 45 e8          	mov    -0x18(%rbp),%rax
    7b73:	48 8d 50 08          	lea    0x8(%rax),%rdx
    7b77:	48 8d 45 f0          	lea    -0x10(%rbp),%rax
    7b7b:	48 89 d6             	mov    %rdx,%rsi
    7b7e:	48 89 c7             	mov    %rax,%rdi
    7b81:	e8 f6 13 00 00       	call   8f7c <_ZNSt23_Rb_tree_const_iteratorINSt7__cxx1112basic_stringIcSt11char_traitsIcESaIcEEEEC1EPKSt18_Rb_tree_node_base>
    7b86:	48 8b 45 f0          	mov    -0x10(%rbp),%rax
    7b8a:	48 8b 55 f8          	mov    -0x8(%rbp),%rdx
    7b8e:	64 48 2b 14 25 28 00 	sub    %fs:0x28,%rdx
    7b95:	00 00 
    7b97:	74 05                	je     7b9e <_ZNKSt8_Rb_treeINSt7__cxx1112basic_stringIcSt11char_traitsIcESaIcEEES5_St9_IdentityIS5_ESt4lessIS5_ESaIS5_EE3endEv+0x4e>
    7b99:	e8 e2 bb ff ff       	call   3780 <_init+0x780>
    7b9e:	c9                   	leave  
    7b9f:	c3                   	ret    

0000000000007ba0 <_ZNKSt13_Rb_tree_nodeINSt7__cxx1112basic_stringIcSt11char_traitsIcESaIcEEEE9_M_valptrEv>:
    7ba0:	f3 0f 1e fa          	endbr64 
    7ba4:	55                   	push   %rbp
    7ba5:	48 89 e5             	mov    %rsp,%rbp
    7ba8:	48 83 ec 10          	sub    $0x10,%rsp
    7bac:	48 89 7d f8          	mov    %rdi,-0x8(%rbp)
    7bb0:	48 8b 45 f8          	mov    -0x8(%rbp),%rax
    7bb4:	48 83 c0 20          	add    $0x20,%rax
    7bb8:	48 89 c7             	mov    %rax,%rdi
    7bbb:	e8 da 13 00 00       	call   8f9a <_ZNK9__gnu_cxx16__aligned_membufINSt7__cxx1112basic_stringIcSt11char_traitsIcESaIcEEEE6_M_ptrEv>
    7bc0:	c9                   	leave  
    7bc1:	c3                   	ret    

0000000000007bc2 <_ZNSt6vectorINSt7__cxx1112basic_stringIcSt11char_traitsIcESaIcEEESaIS5_EE3endEv>:
    7bc2:	f3 0f 1e fa          	endbr64 
    7bc6:	55                   	push   %rbp
    7bc7:	48 89 e5             	mov    %rsp,%rbp
    7bca:	48 83 ec 20          	sub    $0x20,%rsp
    7bce:	48 89 7d e8          	mov    %rdi,-0x18(%rbp)
    7bd2:	64 48 8b 04 25 28 00 	mov    %fs:0x28,%rax
    7bd9:	00 00 
    7bdb:	48 89 45 f8          	mov    %rax,-0x8(%rbp)
    7bdf:	31 c0                	xor    %eax,%eax
    7be1:	48 8b 45 e8          	mov    -0x18(%rbp),%rax
    7be5:	48 8d 50 08          	lea    0x8(%rax),%rdx
    7be9:	48 8d 45 f0          	lea    -0x10(%rbp),%rax
    7bed:	48 89 d6             	mov    %rdx,%rsi
    7bf0:	48 89 c7             	mov    %rax,%rdi
    7bf3:	e8 d2 13 00 00       	call   8fca <_ZN9__gnu_cxx17__normal_iteratorIPNSt7__cxx1112basic_stringIcSt11char_traitsIcESaIcEEESt6vectorIS6_SaIS6_EEEC1ERKS7_>
    7bf8:	48 8b 45 f0          	mov    -0x10(%rbp),%rax
    7bfc:	48 8b 55 f8          	mov    -0x8(%rbp),%rdx
    7c00:	64 48 2b 14 25 28 00 	sub    %fs:0x28,%rdx
    7c07:	00 00 
    7c09:	74 05                	je     7c10 <_ZNSt6vectorINSt7__cxx1112basic_stringIcSt11char_traitsIcESaIcEEESaIS5_EE3endEv+0x4e>
    7c0b:	e8 70 bb ff ff       	call   3780 <_init+0x780>
    7c10:	c9                   	leave  
    7c11:	c3                   	ret    

0000000000007c12 <_ZNSt6vectorINSt7__cxx1112basic_stringIcSt11char_traitsIcESaIcEEESaIS5_EE17_M_realloc_insertIJRKS5_EEEvN9__gnu_cxx17__normal_iteratorIPS5_S7_EEDpOT_>:
    7c12:	f3 0f 1e fa          	endbr64 
    7c16:	55                   	push   %rbp
    7c17:	48 89 e5             	mov    %rsp,%rbp
    7c1a:	41 56                	push   %r14
    7c1c:	41 55                	push   %r13
    7c1e:	41 54                	push   %r12
    7c20:	53                   	push   %rbx
    7c21:	48 81 ec d0 00 00 00 	sub    $0xd0,%rsp
    7c28:	48 89 bd 28 ff ff ff 	mov    %rdi,-0xd8(%rbp)
    7c2f:	48 89 b5 20 ff ff ff 	mov    %rsi,-0xe0(%rbp)
    7c36:	48 89 95 18 ff ff ff 	mov    %rdx,-0xe8(%rbp)
    7c3d:	64 48 8b 04 25 28 00 	mov    %fs:0x28,%rax
    7c44:	00 00 
    7c46:	48 89 45 d8          	mov    %rax,-0x28(%rbp)
    7c4a:	31 c0                	xor    %eax,%eax
    7c4c:	48 8b 85 28 ff ff ff 	mov    -0xd8(%rbp),%rax
    7c53:	48 8d 15 e8 45 00 00 	lea    0x45e8(%rip),%rdx        # c242 <_ZSt19piecewise_construct+0x23e>
    7c5a:	be 01 00 00 00       	mov    $0x1,%esi
    7c5f:	48 89 c7             	mov    %rax,%rdi
    7c62:	e8 85 13 00 00       	call   8fec <_ZNKSt6vectorINSt7__cxx1112basic_stringIcSt11char_traitsIcESaIcEEESaIS5_EE12_M_check_lenEmPKc>
    7c67:	48 89 85 40 ff ff ff 	mov    %rax,-0xc0(%rbp)
    7c6e:	48 8b 85 28 ff ff ff 	mov    -0xd8(%rbp),%rax
    7c75:	48 8b 00             	mov    (%rax),%rax
    7c78:	48 89 85 48 ff ff ff 	mov    %rax,-0xb8(%rbp)
    7c7f:	48 8b 85 28 ff ff ff 	mov    -0xd8(%rbp),%rax
    7c86:	48 8b 40 08          	mov    0x8(%rax),%rax
    7c8a:	48 89 85 50 ff ff ff 	mov    %rax,-0xb0(%rbp)
    7c91:	48 8b 85 28 ff ff ff 	mov    -0xd8(%rbp),%rax
    7c98:	48 89 c7             	mov    %rax,%rdi
    7c9b:	e8 50 14 00 00       	call   90f0 <_ZNSt6vectorINSt7__cxx1112basic_stringIcSt11char_traitsIcESaIcEEESaIS5_EE5beginEv>
    7ca0:	48 89 85 38 ff ff ff 	mov    %rax,-0xc8(%rbp)
    7ca7:	48 8d 95 38 ff ff ff 	lea    -0xc8(%rbp),%rdx
    7cae:	48 8d 85 20 ff ff ff 	lea    -0xe0(%rbp),%rax
    7cb5:	48 89 d6             	mov    %rdx,%rsi
    7cb8:	48 89 c7             	mov    %rax,%rdi
    7cbb:	e8 7c 14 00 00       	call   913c <_ZN9__gnu_cxxmiIPNSt7__cxx1112basic_stringIcSt11char_traitsIcESaIcEEESt6vectorIS6_SaIS6_EEEENS_17__normal_iteratorIT_T0_E15difference_typeERKSE_SH_>
    7cc0:	48 89 85 58 ff ff ff 	mov    %rax,-0xa8(%rbp)
    7cc7:	48 8b 85 28 ff ff ff 	mov    -0xd8(%rbp),%rax
    7cce:	48 8b 95 40 ff ff ff 	mov    -0xc0(%rbp),%rdx
    7cd5:	48 89 d6             	mov    %rdx,%rsi
    7cd8:	48 89 c7             	mov    %rax,%rdi
    7cdb:	e8 f0 11 00 00       	call   8ed0 <_ZNSt12_Vector_baseINSt7__cxx1112basic_stringIcSt11char_traitsIcESaIcEEESaIS5_EE11_M_allocateEm>
    7ce0:	48 89 85 60 ff ff ff 	mov    %rax,-0xa0(%rbp)
    7ce7:	48 8b 85 60 ff ff ff 	mov    -0xa0(%rbp),%rax
    7cee:	48 89 85 68 ff ff ff 	mov    %rax,-0x98(%rbp)
    7cf5:	48 8b 85 18 ff ff ff 	mov    -0xe8(%rbp),%rax
    7cfc:	48 89 c7             	mov    %rax,%rdi
    7cff:	e8 b4 12 00 00       	call   8fb8 <_ZSt7forwardIRKNSt7__cxx1112basic_stringIcSt11char_traitsIcESaIcEEEEOT_RNSt16remove_referenceIS8_E4typeE>
    7d04:	48 8b 95 58 ff ff ff 	mov    -0xa8(%rbp),%rdx
    7d0b:	48 89 d1             	mov    %rdx,%rcx
    7d0e:	48 c1 e1 05          	shl    $0x5,%rcx
    7d12:	48 8b 95 60 ff ff ff 	mov    -0xa0(%rbp),%rdx
    7d19:	48 01 d1             	add    %rdx,%rcx
    7d1c:	48 8b 95 28 ff ff ff 	mov    -0xd8(%rbp),%rdx
    7d23:	48 89 95 70 ff ff ff 	mov    %rdx,-0x90(%rbp)
    7d2a:	48 89 8d 78 ff ff ff 	mov    %rcx,-0x88(%rbp)
    7d31:	48 89 45 80          	mov    %rax,-0x80(%rbp)
    7d35:	48 8b 45 80          	mov    -0x80(%rbp),%rax
    7d39:	48 89 c7             	mov    %rax,%rdi
    7d3c:	e8 77 12 00 00       	call   8fb8 <_ZSt7forwardIRKNSt7__cxx1112basic_stringIcSt11char_traitsIcESaIcEEEEOT_RNSt16remove_referenceIS8_E4typeE>
    7d41:	48 8b 95 70 ff ff ff 	mov    -0x90(%rbp),%rdx
    7d48:	48 89 55 88          	mov    %rdx,-0x78(%rbp)
    7d4c:	48 8b 95 78 ff ff ff 	mov    -0x88(%rbp),%rdx
    7d53:	48 89 55 90          	mov    %rdx,-0x70(%rbp)
    7d57:	48 89 45 98          	mov    %rax,-0x68(%rbp)
    7d5b:	48 8b 5d 90          	mov    -0x70(%rbp),%rbx
    7d5f:	48 89 de             	mov    %rbx,%rsi
    7d62:	bf 20 00 00 00       	mov    $0x20,%edi
    7d67:	e8 6a da ff ff       	call   57d6 <_ZnwmPv>
    7d6c:	49 89 c4             	mov    %rax,%r12
    7d6f:	41 be 01 00 00 00    	mov    $0x1,%r14d
    7d75:	48 8b 45 98          	mov    -0x68(%rbp),%rax
    7d79:	48 89 c7             	mov    %rax,%rdi
    7d7c:	e8 37 12 00 00       	call   8fb8 <_ZSt7forwardIRKNSt7__cxx1112basic_stringIcSt11char_traitsIcESaIcEEEEOT_RNSt16remove_referenceIS8_E4typeE>
    7d81:	48 89 c6             	mov    %rax,%rsi
    7d84:	4c 89 e7             	mov    %r12,%rdi
    7d87:	e8 14 b8 ff ff       	call   35a0 <_init+0x5a0>
    7d8c:	90                   	nop
    7d8d:	90                   	nop
    7d8e:	48 c7 85 68 ff ff ff 	movq   $0x0,-0x98(%rbp)
    7d95:	00 00 00 00 
    7d99:	48 8b 85 28 ff ff ff 	mov    -0xd8(%rbp),%rax
    7da0:	48 89 c7             	mov    %rax,%rdi
    7da3:	e8 a0 fb ff ff       	call   7948 <_ZNSt12_Vector_baseINSt7__cxx1112basic_stringIcSt11char_traitsIcESaIcEEESaIS5_EE19_M_get_Tp_allocatorEv>
    7da8:	48 89 c3             	mov    %rax,%rbx
    7dab:	48 8d 85 20 ff ff ff 	lea    -0xe0(%rbp),%rax
    7db2:	48 89 c7             	mov    %rax,%rdi
    7db5:	e8 fe 13 00 00       	call   91b8 <_ZNK9__gnu_cxx17__normal_iteratorIPNSt7__cxx1112basic_stringIcSt11char_traitsIcESaIcEEESt6vectorIS6_SaIS6_EEE4baseEv>
    7dba:	48 8b 30             	mov    (%rax),%rsi
    7dbd:	48 8b 95 60 ff ff ff 	mov    -0xa0(%rbp),%rdx
    7dc4:	48 8b 85 48 ff ff ff 	mov    -0xb8(%rbp),%rax
    7dcb:	48 89 d9             	mov    %rbx,%rcx
    7dce:	48 89 c7             	mov    %rax,%rdi
    7dd1:	e8 ac 13 00 00       	call   9182 <_ZNSt6vectorINSt7__cxx1112basic_stringIcSt11char_traitsIcESaIcEEESaIS5_EE11_S_relocateEPS5_S8_S8_RS6_>
    7dd6:	48 89 85 68 ff ff ff 	mov    %rax,-0x98(%rbp)
    7ddd:	48 83 85 68 ff ff ff 	addq   $0x20,-0x98(%rbp)
    7de4:	20 
    7de5:	48 8b 85 28 ff ff ff 	mov    -0xd8(%rbp),%rax
    7dec:	48 89 c7             	mov    %rax,%rdi
    7def:	e8 54 fb ff ff       	call   7948 <_ZNSt12_Vector_baseINSt7__cxx1112basic_stringIcSt11char_traitsIcESaIcEEESaIS5_EE19_M_get_Tp_allocatorEv>
    7df4:	48 89 c3             	mov    %rax,%rbx
    7df7:	48 8d 85 20 ff ff ff 	lea    -0xe0(%rbp),%rax
    7dfe:	48 89 c7             	mov    %rax,%rdi
    7e01:	e8 b2 13 00 00       	call   91b8 <_ZNK9__gnu_cxx17__normal_iteratorIPNSt7__cxx1112basic_stringIcSt11char_traitsIcESaIcEEESt6vectorIS6_SaIS6_EEE4baseEv>
    7e06:	48 8b 00             	mov    (%rax),%rax
    7e09:	48 8b 95 68 ff ff ff 	mov    -0x98(%rbp),%rdx
    7e10:	48 8b b5 50 ff ff ff 	mov    -0xb0(%rbp),%rsi
    7e17:	48 89 d9             	mov    %rbx,%rcx
    7e1a:	48 89 c7             	mov    %rax,%rdi
    7e1d:	e8 60 13 00 00       	call   9182 <_ZNSt6vectorINSt7__cxx1112basic_stringIcSt11char_traitsIcESaIcEEESaIS5_EE11_S_relocateEPS5_S8_S8_RS6_>
    7e22:	48 89 85 68 ff ff ff 	mov    %rax,-0x98(%rbp)
    7e29:	48 8b 85 28 ff ff ff 	mov    -0xd8(%rbp),%rax
    7e30:	48 8b 95 28 ff ff ff 	mov    -0xd8(%rbp),%rdx
    7e37:	48 8b 52 10          	mov    0x10(%rdx),%rdx
    7e3b:	48 2b 95 48 ff ff ff 	sub    -0xb8(%rbp),%rdx
    7e42:	48 c1 fa 05          	sar    $0x5,%rdx
    7e46:	48 8b 8d 48 ff ff ff 	mov    -0xb8(%rbp),%rcx
    7e4d:	48 89 ce             	mov    %rcx,%rsi
    7e50:	48 89 c7             	mov    %rax,%rdi
    7e53:	e8 56 fc ff ff       	call   7aae <_ZNSt12_Vector_baseINSt7__cxx1112basic_stringIcSt11char_traitsIcESaIcEEESaIS5_EE13_M_deallocateEPS5_m>
    7e58:	48 8b 85 28 ff ff ff 	mov    -0xd8(%rbp),%rax
    7e5f:	48 8b 95 60 ff ff ff 	mov    -0xa0(%rbp),%rdx
    7e66:	48 89 10             	mov    %rdx,(%rax)
    7e69:	48 8b 85 28 ff ff ff 	mov    -0xd8(%rbp),%rax
    7e70:	48 8b 95 68 ff ff ff 	mov    -0x98(%rbp),%rdx
    7e77:	48 89 50 08          	mov    %rdx,0x8(%rax)
    7e7b:	48 8b 85 40 ff ff ff 	mov    -0xc0(%rbp),%rax
    7e82:	48 c1 e0 05          	shl    $0x5,%rax
    7e86:	48 89 c2             	mov    %rax,%rdx
    7e89:	48 8b 85 60 ff ff ff 	mov    -0xa0(%rbp),%rax
    7e90:	48 01 c2             	add    %rax,%rdx
    7e93:	48 8b 85 28 ff ff ff 	mov    -0xd8(%rbp),%rax
    7e9a:	48 89 50 10          	mov    %rdx,0x10(%rax)
    7e9e:	90                   	nop
    7e9f:	48 8b 45 d8          	mov    -0x28(%rbp),%rax
    7ea3:	64 48 2b 04 25 28 00 	sub    %fs:0x28,%rax
    7eaa:	00 00 
    7eac:	0f 84 1d 01 00 00    	je     7fcf <_ZNSt6vectorINSt7__cxx1112basic_stringIcSt11char_traitsIcESaIcEEESaIS5_EE17_M_realloc_insertIJRKS5_EEEvN9__gnu_cxx17__normal_iteratorIPS5_S7_EEDpOT_+0x3bd>
    7eb2:	e9 13 01 00 00       	jmp    7fca <_ZNSt6vectorINSt7__cxx1112basic_stringIcSt11char_traitsIcESaIcEEESaIS5_EE17_M_realloc_insertIJRKS5_EEEvN9__gnu_cxx17__normal_iteratorIPS5_S7_EEDpOT_+0x3b8>
    7eb7:	f3 0f 1e fa          	endbr64 
    7ebb:	49 89 c5             	mov    %rax,%r13
    7ebe:	45 84 f6             	test   %r14b,%r14b
    7ec1:	74 0b                	je     7ece <_ZNSt6vectorINSt7__cxx1112basic_stringIcSt11char_traitsIcESaIcEEESaIS5_EE17_M_realloc_insertIJRKS5_EEEvN9__gnu_cxx17__normal_iteratorIPS5_S7_EEDpOT_+0x2bc>
    7ec3:	48 89 de             	mov    %rbx,%rsi
    7ec6:	4c 89 e7             	mov    %r12,%rdi
    7ec9:	e8 1e d9 ff ff       	call   57ec <_ZdlPvS_>
    7ece:	4c 89 e8             	mov    %r13,%rax
    7ed1:	48 89 c7             	mov    %rax,%rdi
    7ed4:	e8 a7 b6 ff ff       	call   3580 <_init+0x580>
    7ed9:	48 83 bd 68 ff ff ff 	cmpq   $0x0,-0x98(%rbp)
    7ee0:	00 
    7ee1:	75 46                	jne    7f29 <_ZNSt6vectorINSt7__cxx1112basic_stringIcSt11char_traitsIcESaIcEEESaIS5_EE17_M_realloc_insertIJRKS5_EEEvN9__gnu_cxx17__normal_iteratorIPS5_S7_EEDpOT_+0x317>
    7ee3:	48 8b 85 58 ff ff ff 	mov    -0xa8(%rbp),%rax
    7eea:	48 c1 e0 05          	shl    $0x5,%rax
    7eee:	48 89 c2             	mov    %rax,%rdx
    7ef1:	48 8b 85 60 ff ff ff 	mov    -0xa0(%rbp),%rax
    7ef8:	48 01 c2             	add    %rax,%rdx
    7efb:	48 8b 85 28 ff ff ff 	mov    -0xd8(%rbp),%rax
    7f02:	48 89 45 a0          	mov    %rax,-0x60(%rbp)
    7f06:	48 89 55 a8          	mov    %rdx,-0x58(%rbp)
    7f0a:	48 8b 45 a0          	mov    -0x60(%rbp),%rax
    7f0e:	48 89 45 b0          	mov    %rax,-0x50(%rbp)
    7f12:	48 8b 45 a8          	mov    -0x58(%rbp),%rax
    7f16:	48 89 45 b8          	mov    %rax,-0x48(%rbp)
    7f1a:	48 8b 45 b8          	mov    -0x48(%rbp),%rax
    7f1e:	48 89 c7             	mov    %rax,%rdi
    7f21:	e8 ca b6 ff ff       	call   35f0 <_init+0x5f0>
    7f26:	90                   	nop
    7f27:	eb 3d                	jmp    7f66 <_ZNSt6vectorINSt7__cxx1112basic_stringIcSt11char_traitsIcESaIcEEESaIS5_EE17_M_realloc_insertIJRKS5_EEEvN9__gnu_cxx17__normal_iteratorIPS5_S7_EEDpOT_+0x354>
    7f29:	48 8b 85 28 ff ff ff 	mov    -0xd8(%rbp),%rax
    7f30:	48 89 c7             	mov    %rax,%rdi
    7f33:	e8 10 fa ff ff       	call   7948 <_ZNSt12_Vector_baseINSt7__cxx1112basic_stringIcSt11char_traitsIcESaIcEEESaIS5_EE19_M_get_Tp_allocatorEv>
    7f38:	48 8b 95 60 ff ff ff 	mov    -0xa0(%rbp),%rdx
    7f3f:	48 89 55 c0          	mov    %rdx,-0x40(%rbp)
    7f43:	48 8b 95 68 ff ff ff 	mov    -0x98(%rbp),%rdx
    7f4a:	48 89 55 c8          	mov    %rdx,-0x38(%rbp)
    7f4e:	48 89 45 d0          	mov    %rax,-0x30(%rbp)
    7f52:	48 8b 55 c8          	mov    -0x38(%rbp),%rdx
    7f56:	48 8b 45 c0          	mov    -0x40(%rbp),%rax
    7f5a:	48 89 d6             	mov    %rdx,%rsi
    7f5d:	48 89 c7             	mov    %rax,%rdi
    7f60:	e8 ed 0f 00 00       	call   8f52 <_ZSt8_DestroyIPNSt7__cxx1112basic_stringIcSt11char_traitsIcESaIcEEEEvT_S7_>
    7f65:	90                   	nop
    7f66:	48 8b 85 28 ff ff ff 	mov    -0xd8(%rbp),%rax
    7f6d:	48 8b 95 40 ff ff ff 	mov    -0xc0(%rbp),%rdx
    7f74:	48 8b 8d 60 ff ff ff 	mov    -0xa0(%rbp),%rcx
    7f7b:	48 89 ce             	mov    %rcx,%rsi
    7f7e:	48 89 c7             	mov    %rax,%rdi
    7f81:	e8 28 fb ff ff       	call   7aae <_ZNSt12_Vector_baseINSt7__cxx1112basic_stringIcSt11char_traitsIcESaIcEEESaIS5_EE13_M_deallocateEPS5_m>
    7f86:	48 8b 45 d8          	mov    -0x28(%rbp),%rax
    7f8a:	64 48 2b 04 25 28 00 	sub    %fs:0x28,%rax
    7f91:	00 00 
    7f93:	74 05                	je     7f9a <_ZNSt6vectorINSt7__cxx1112basic_stringIcSt11char_traitsIcESaIcEEESaIS5_EE17_M_realloc_insertIJRKS5_EEEvN9__gnu_cxx17__normal_iteratorIPS5_S7_EEDpOT_+0x388>
    7f95:	e8 e6 b7 ff ff       	call   3780 <_init+0x780>
    7f9a:	e8 a1 b8 ff ff       	call   3840 <_init+0x840>
    7f9f:	f3 0f 1e fa          	endbr64 
    7fa3:	48 89 c3             	mov    %rax,%rbx
    7fa6:	e8 15 b9 ff ff       	call   38c0 <_init+0x8c0>
    7fab:	48 89 d8             	mov    %rbx,%rax
    7fae:	48 8b 55 d8          	mov    -0x28(%rbp),%rdx
    7fb2:	64 48 2b 14 25 28 00 	sub    %fs:0x28,%rdx
    7fb9:	00 00 
    7fbb:	74 05                	je     7fc2 <_ZNSt6vectorINSt7__cxx1112basic_stringIcSt11char_traitsIcESaIcEEESaIS5_EE17_M_realloc_insertIJRKS5_EEEvN9__gnu_cxx17__normal_iteratorIPS5_S7_EEDpOT_+0x3b0>
    7fbd:	e8 be b7 ff ff       	call   3780 <_init+0x780>
    7fc2:	48 89 c7             	mov    %rax,%rdi
    7fc5:	e8 46 b9 ff ff       	call   3910 <_init+0x910>
    7fca:	e8 b1 b7 ff ff       	call   3780 <_init+0x780>
    7fcf:	48 81 c4 d0 00 00 00 	add    $0xd0,%rsp
    7fd6:	5b                   	pop    %rbx
    7fd7:	41 5c                	pop    %r12
    7fd9:	41 5d                	pop    %r13
    7fdb:	41 5e                	pop    %r14
    7fdd:	5d                   	pop    %rbp
    7fde:	c3                   	ret    
    7fdf:	90                   	nop

0000000000007fe0 <_ZNKSt16initializer_listINSt7__cxx1112basic_stringIcSt11char_traitsIcESaIcEEEE5beginEv>:
    7fe0:	f3 0f 1e fa          	endbr64 
    7fe4:	55                   	push   %rbp
    7fe5:	48 89 e5             	mov    %rsp,%rbp
    7fe8:	48 89 7d f8          	mov    %rdi,-0x8(%rbp)
    7fec:	48 8b 45 f8          	mov    -0x8(%rbp),%rax
    7ff0:	48 8b 00             	mov    (%rax),%rax
    7ff3:	5d                   	pop    %rbp
    7ff4:	c3                   	ret    
    7ff5:	90                   	nop

0000000000007ff6 <_ZNKSt16initializer_listINSt7__cxx1112basic_stringIcSt11char_traitsIcESaIcEEEE3endEv>:
    7ff6:	f3 0f 1e fa          	endbr64 
    7ffa:	55                   	push   %rbp
    7ffb:	48 89 e5             	mov    %rsp,%rbp
    7ffe:	53                   	push   %rbx
    7fff:	48 83 ec 18          	sub    $0x18,%rsp
    8003:	48 89 7d e8          	mov    %rdi,-0x18(%rbp)
    8007:	48 8b 45 e8          	mov    -0x18(%rbp),%rax
    800b:	48 89 c7             	mov    %rax,%rdi
    800e:	e8 cd ff ff ff       	call   7fe0 <_ZNKSt16initializer_listINSt7__cxx1112basic_stringIcSt11char_traitsIcESaIcEEEE5beginEv>
    8013:	48 89 c3             	mov    %rax,%rbx
    8016:	48 8b 45 e8          	mov    -0x18(%rbp),%rax
    801a:	48 89 c7             	mov    %rax,%rdi
    801d:	e8 a8 11 00 00       	call   91ca <_ZNKSt16initializer_listINSt7__cxx1112basic_stringIcSt11char_traitsIcESaIcEEEE4sizeEv>
    8022:	48 c1 e0 05          	shl    $0x5,%rax
    8026:	48 01 d8             	add    %rbx,%rax
    8029:	48 8b 5d f8          	mov    -0x8(%rbp),%rbx
    802d:	c9                   	leave  
    802e:	c3                   	ret    
    802f:	90                   	nop

0000000000008030 <_ZNSt6vectorINSt7__cxx1112basic_stringIcSt11char_traitsIcESaIcEEESaIS5_EE19_M_range_initializeIPKS5_EEvT_SB_St20forward_iterator_tag>:
    8030:	f3 0f 1e fa          	endbr64 
    8034:	55                   	push   %rbp
    8035:	48 89 e5             	mov    %rsp,%rbp
    8038:	53                   	push   %rbx
    8039:	48 83 ec 58          	sub    $0x58,%rsp
    803d:	48 89 7d b8          	mov    %rdi,-0x48(%rbp)
    8041:	48 89 75 b0          	mov    %rsi,-0x50(%rbp)
    8045:	48 89 55 a8          	mov    %rdx,-0x58(%rbp)
    8049:	64 48 8b 04 25 28 00 	mov    %fs:0x28,%rax
    8050:	00 00 
    8052:	48 89 45 e8          	mov    %rax,-0x18(%rbp)
    8056:	31 c0                	xor    %eax,%eax
    8058:	48 8b 45 b0          	mov    -0x50(%rbp),%rax
    805c:	48 89 45 c0          	mov    %rax,-0x40(%rbp)
    8060:	48 8b 45 a8          	mov    -0x58(%rbp),%rax
    8064:	48 89 45 d0          	mov    %rax,-0x30(%rbp)
    8068:	90                   	nop
    8069:	48 8b 45 c0          	mov    -0x40(%rbp),%rax
    806d:	48 89 45 d8          	mov    %rax,-0x28(%rbp)
    8071:	48 8b 45 d0          	mov    -0x30(%rbp),%rax
    8075:	48 89 45 e0          	mov    %rax,-0x20(%rbp)
    8079:	48 8b 45 e0          	mov    -0x20(%rbp),%rax
    807d:	48 2b 45 d8          	sub    -0x28(%rbp),%rax
    8081:	48 c1 f8 05          	sar    $0x5,%rax
    8085:	90                   	nop
    8086:	48 89 45 c8          	mov    %rax,-0x38(%rbp)
    808a:	48 8b 5d b8          	mov    -0x48(%rbp),%rbx
    808e:	48 8b 45 b8          	mov    -0x48(%rbp),%rax
    8092:	48 89 c7             	mov    %rax,%rdi
    8095:	e8 ae f8 ff ff       	call   7948 <_ZNSt12_Vector_baseINSt7__cxx1112basic_stringIcSt11char_traitsIcESaIcEEESaIS5_EE19_M_get_Tp_allocatorEv>
    809a:	48 89 c2             	mov    %rax,%rdx
    809d:	48 8b 45 c8          	mov    -0x38(%rbp),%rax
    80a1:	48 89 d6             	mov    %rdx,%rsi
    80a4:	48 89 c7             	mov    %rax,%rdi
    80a7:	e8 81 0d 00 00       	call   8e2d <_ZNSt6vectorINSt7__cxx1112basic_stringIcSt11char_traitsIcESaIcEEESaIS5_EE17_S_check_init_lenEmRKS6_>
    80ac:	48 89 c6             	mov    %rax,%rsi
    80af:	48 89 df             	mov    %rbx,%rdi
    80b2:	e8 19 0e 00 00       	call   8ed0 <_ZNSt12_Vector_baseINSt7__cxx1112basic_stringIcSt11char_traitsIcESaIcEEESaIS5_EE11_M_allocateEm>
    80b7:	48 8b 55 b8          	mov    -0x48(%rbp),%rdx
    80bb:	48 89 02             	mov    %rax,(%rdx)
    80be:	48 8b 45 b8          	mov    -0x48(%rbp),%rax
    80c2:	48 8b 00             	mov    (%rax),%rax
    80c5:	48 8b 55 c8          	mov    -0x38(%rbp),%rdx
    80c9:	48 c1 e2 05          	shl    $0x5,%rdx
    80cd:	48 01 c2             	add    %rax,%rdx
    80d0:	48 8b 45 b8          	mov    -0x48(%rbp),%rax
    80d4:	48 89 50 10          	mov    %rdx,0x10(%rax)
    80d8:	48 8b 45 b8          	mov    -0x48(%rbp),%rax
    80dc:	48 89 c7             	mov    %rax,%rdi
    80df:	e8 64 f8 ff ff       	call   7948 <_ZNSt12_Vector_baseINSt7__cxx1112basic_stringIcSt11char_traitsIcESaIcEEESaIS5_EE19_M_get_Tp_allocatorEv>
    80e4:	48 89 c1             	mov    %rax,%rcx
    80e7:	48 8b 45 b8          	mov    -0x48(%rbp),%rax
    80eb:	48 8b 10             	mov    (%rax),%rdx
    80ee:	48 8b 75 a8          	mov    -0x58(%rbp),%rsi
    80f2:	48 8b 45 b0          	mov    -0x50(%rbp),%rax
    80f6:	48 89 c7             	mov    %rax,%rdi
    80f9:	e8 e2 10 00 00       	call   91e0 <_ZSt22__uninitialized_copy_aIPKNSt7__cxx1112basic_stringIcSt11char_traitsIcESaIcEEEPS5_S5_ET0_T_SA_S9_RSaIT1_E>
    80fe:	48 8b 55 b8          	mov    -0x48(%rbp),%rdx
    8102:	48 89 42 08          	mov    %rax,0x8(%rdx)
    8106:	90                   	nop
    8107:	48 8b 45 e8          	mov    -0x18(%rbp),%rax
    810b:	64 48 2b 04 25 28 00 	sub    %fs:0x28,%rax
    8112:	00 00 
    8114:	74 05                	je     811b <_ZNSt6vectorINSt7__cxx1112basic_stringIcSt11char_traitsIcESaIcEEESaIS5_EE19_M_range_initializeIPKS5_EEvT_SB_St20forward_iterator_tag+0xeb>
    8116:	e8 65 b6 ff ff       	call   3780 <_init+0x780>
    811b:	48 8b 5d f8          	mov    -0x8(%rbp),%rbx
    811f:	c9                   	leave  
    8120:	c3                   	ret    
    8121:	90                   	nop

0000000000008122 <_ZNSt8_Rb_treeINSt7__cxx1112basic_stringIcSt11char_traitsIcESaIcEEES5_St9_IdentityIS5_ESt4lessIS5_ESaIS5_EE13_Rb_tree_implIS9_Lb1EEC1Ev>:
    8122:	f3 0f 1e fa          	endbr64 
    8126:	55                   	push   %rbp
    8127:	48 89 e5             	mov    %rsp,%rbp
    812a:	48 83 ec 20          	sub    $0x20,%rsp
    812e:	48 89 7d e8          	mov    %rdi,-0x18(%rbp)
    8132:	48 8b 45 e8          	mov    -0x18(%rbp),%rax
    8136:	48 89 45 f0          	mov    %rax,-0x10(%rbp)
    813a:	48 8b 45 f0          	mov    -0x10(%rbp),%rax
    813e:	48 89 45 f8          	mov    %rax,-0x8(%rbp)
    8142:	90                   	nop
    8143:	90                   	nop
    8144:	48 8b 45 e8          	mov    -0x18(%rbp),%rax
    8148:	48 89 c7             	mov    %rax,%rdi
    814b:	e8 c8 ed ff ff       	call   6f18 <_ZNSt20_Rb_tree_key_compareISt4lessINSt7__cxx1112basic_stringIcSt11char_traitsIcESaIcEEEEEC1Ev>
    8150:	48 8b 45 e8          	mov    -0x18(%rbp),%rax
    8154:	48 83 c0 08          	add    $0x8,%rax
    8158:	48 89 c7             	mov    %rax,%rdi
    815b:	e8 e0 d7 ff ff       	call   5940 <_ZNSt15_Rb_tree_headerC1Ev>
    8160:	90                   	nop
    8161:	c9                   	leave  
    8162:	c3                   	ret    
    8163:	90                   	nop

0000000000008164 <_ZNSt8_Rb_treeINSt7__cxx1112basic_stringIcSt11char_traitsIcESaIcEEES5_St9_IdentityIS5_ESt4lessIS5_ESaIS5_EE22_M_insert_range_uniqueIPKPKcEENSt9enable_ifIXntsrSt7is_sameIS5_NSt15iterator_traitsIT_E10value_typeEE5valueEvE4typeESK_SK_>:
    8164:	f3 0f 1e fa          	endbr64 
    8168:	55                   	push   %rbp
    8169:	48 89 e5             	mov    %rsp,%rbp
    816c:	48 83 ec 20          	sub    $0x20,%rsp
    8170:	48 89 7d f8          	mov    %rdi,-0x8(%rbp)
    8174:	48 89 75 f0          	mov    %rsi,-0x10(%rbp)
    8178:	48 89 55 e8          	mov    %rdx,-0x18(%rbp)
    817c:	eb 18                	jmp    8196 <_ZNSt8_Rb_treeINSt7__cxx1112basic_stringIcSt11char_traitsIcESaIcEEES5_St9_IdentityIS5_ESt4lessIS5_ESaIS5_EE22_M_insert_range_uniqueIPKPKcEENSt9enable_ifIXntsrSt7is_sameIS5_NSt15iterator_traitsIT_E10value_typeEE5valueEvE4typeESK_SK_+0x32>
    817e:	48 8b 55 f0          	mov    -0x10(%rbp),%rdx
    8182:	48 8b 45 f8          	mov    -0x8(%rbp),%rax
    8186:	48 89 d6             	mov    %rdx,%rsi
    8189:	48 89 c7             	mov    %rax,%rdi
    818c:	e8 95 10 00 00       	call   9226 <_ZNSt8_Rb_treeINSt7__cxx1112basic_stringIcSt11char_traitsIcESaIcEEES5_St9_IdentityIS5_ESt4lessIS5_ESaIS5_EE17_M_emplace_uniqueIJRKPKcEEESt4pairISt17_Rb_tree_iteratorIS5_EbEDpOT_>
    8191:	48 83 45 f0 08       	addq   $0x8,-0x10(%rbp)
    8196:	48 8b 45 f0          	mov    -0x10(%rbp),%rax
    819a:	48 3b 45 e8          	cmp    -0x18(%rbp),%rax
    819e:	75 de                	jne    817e <_ZNSt8_Rb_treeINSt7__cxx1112basic_stringIcSt11char_traitsIcESaIcEEES5_St9_IdentityIS5_ESt4lessIS5_ESaIS5_EE22_M_insert_range_uniqueIPKPKcEENSt9enable_ifIXntsrSt7is_sameIS5_NSt15iterator_traitsIT_E10value_typeEE5valueEvE4typeESK_SK_+0x1a>
    81a0:	90                   	nop
    81a1:	90                   	nop
    81a2:	c9                   	leave  
    81a3:	c3                   	ret    

00000000000081a4 <_ZNSt8_Rb_treeINSt7__cxx1112basic_stringIcSt11char_traitsIcESaIcEEES5_St9_IdentityIS5_ESt4lessIS5_ESaIS5_EE8_M_eraseEPSt13_Rb_tree_nodeIS5_E>:
    81a4:	f3 0f 1e fa          	endbr64 
    81a8:	55                   	push   %rbp
    81a9:	48 89 e5             	mov    %rsp,%rbp
    81ac:	48 83 ec 20          	sub    $0x20,%rsp
    81b0:	48 89 7d e8          	mov    %rdi,-0x18(%rbp)
    81b4:	48 89 75 e0          	mov    %rsi,-0x20(%rbp)
    81b8:	eb 49                	jmp    8203 <_ZNSt8_Rb_treeINSt7__cxx1112basic_stringIcSt11char_traitsIcESaIcEEES5_St9_IdentityIS5_ESt4lessIS5_ESaIS5_EE8_M_eraseEPSt13_Rb_tree_nodeIS5_E+0x5f>
    81ba:	48 8b 45 e0          	mov    -0x20(%rbp),%rax
    81be:	48 89 c7             	mov    %rax,%rdi
    81c1:	e8 b4 11 00 00       	call   937a <_ZNSt8_Rb_treeINSt7__cxx1112basic_stringIcSt11char_traitsIcESaIcEEES5_St9_IdentityIS5_ESt4lessIS5_ESaIS5_EE8_S_rightEPSt18_Rb_tree_node_base>
    81c6:	48 89 c2             	mov    %rax,%rdx
    81c9:	48 8b 45 e8          	mov    -0x18(%rbp),%rax
    81cd:	48 89 d6             	mov    %rdx,%rsi
    81d0:	48 89 c7             	mov    %rax,%rdi
    81d3:	e8 cc ff ff ff       	call   81a4 <_ZNSt8_Rb_treeINSt7__cxx1112basic_stringIcSt11char_traitsIcESaIcEEES5_St9_IdentityIS5_ESt4lessIS5_ESaIS5_EE8_M_eraseEPSt13_Rb_tree_nodeIS5_E>
    81d8:	48 8b 45 e0          	mov    -0x20(%rbp),%rax
    81dc:	48 89 c7             	mov    %rax,%rdi
    81df:	e8 ac 11 00 00       	call   9390 <_ZNSt8_Rb_treeINSt7__cxx1112basic_stringIcSt11char_traitsIcESaIcEEES5_St9_IdentityIS5_ESt4lessIS5_ESaIS5_EE7_S_leftEPSt18_Rb_tree_node_base>
    81e4:	48 89 45 f8          	mov    %rax,-0x8(%rbp)
    81e8:	48 8b 55 e0          	mov    -0x20(%rbp),%rdx
    81ec:	48 8b 45 e8          	mov    -0x18(%rbp),%rax
    81f0:	48 89 d6             	mov    %rdx,%rsi
    81f3:	48 89 c7             	mov    %rax,%rdi
    81f6:	e8 ab 11 00 00       	call   93a6 <_ZNSt8_Rb_treeINSt7__cxx1112basic_stringIcSt11char_traitsIcESaIcEEES5_St9_IdentityIS5_ESt4lessIS5_ESaIS5_EE12_M_drop_nodeEPSt13_Rb_tree_nodeIS5_E>
    81fb:	48 8b 45 f8          	mov    -0x8(%rbp),%rax
    81ff:	48 89 45 e0          	mov    %rax,-0x20(%rbp)
    8203:	48 83 7d e0 00       	cmpq   $0x0,-0x20(%rbp)
    8208:	75 b0                	jne    81ba <_ZNSt8_Rb_treeINSt7__cxx1112basic_stringIcSt11char_traitsIcESaIcEEES5_St9_IdentityIS5_ESt4lessIS5_ESaIS5_EE8_M_eraseEPSt13_Rb_tree_nodeIS5_E+0x16>
    820a:	90                   	nop
    820b:	90                   	nop
    820c:	c9                   	leave  
    820d:	c3                   	ret    

000000000000820e <_ZNSt8_Rb_treeINSt7__cxx1112basic_stringIcSt11char_traitsIcESaIcEEES5_St9_IdentityIS5_ESt4lessIS5_ESaIS5_EE8_M_beginEv>:
    820e:	f3 0f 1e fa          	endbr64 
    8212:	55                   	push   %rbp
    8213:	48 89 e5             	mov    %rsp,%rbp
    8216:	48 83 ec 10          	sub    $0x10,%rsp
    821a:	48 89 7d f8          	mov    %rdi,-0x8(%rbp)
    821e:	48 8b 45 f8          	mov    -0x8(%rbp),%rax
    8222:	48 89 c7             	mov    %rax,%rdi
    8225:	e8 ba 11 00 00       	call   93e4 <_ZNKSt8_Rb_treeINSt7__cxx1112basic_stringIcSt11char_traitsIcESaIcEEES5_St9_IdentityIS5_ESt4lessIS5_ESaIS5_EE9_M_mbeginEv>
    822a:	c9                   	leave  
    822b:	c3                   	ret    

000000000000822c <_ZSt4moveIRSt6vectorISt3mapINSt7__cxx1112basic_stringIcSt11char_traitsIcESaIcEEES7_St4lessIS7_ESaISt4pairIKS7_S7_EEESaISE_EEEONSt16remove_referenceIT_E4typeEOSJ_>:
    822c:	f3 0f 1e fa          	endbr64 
    8230:	55                   	push   %rbp
    8231:	48 89 e5             	mov    %rsp,%rbp
    8234:	48 89 7d f8          	mov    %rdi,-0x8(%rbp)
    8238:	48 8b 45 f8          	mov    -0x8(%rbp),%rax
    823c:	5d                   	pop    %rbp
    823d:	c3                   	ret    

000000000000823e <_ZNSt6vectorISt3mapINSt7__cxx1112basic_stringIcSt11char_traitsIcESaIcEEES6_St4lessIS6_ESaISt4pairIKS6_S6_EEESaISD_EE14_M_move_assignEOSF_St17integral_constantIbLb1EE>:
    823e:	f3 0f 1e fa          	endbr64 
    8242:	55                   	push   %rbp
    8243:	48 89 e5             	mov    %rsp,%rbp
    8246:	53                   	push   %rbx
    8247:	48 83 ec 58          	sub    $0x58,%rsp
    824b:	48 89 7d a8          	mov    %rdi,-0x58(%rbp)
    824f:	48 89 75 a0          	mov    %rsi,-0x60(%rbp)
    8253:	64 48 8b 04 25 28 00 	mov    %fs:0x28,%rax
    825a:	00 00 
    825c:	48 89 45 e8          	mov    %rax,-0x18(%rbp)
    8260:	31 c0                	xor    %eax,%eax
    8262:	48 8b 55 a8          	mov    -0x58(%rbp),%rdx
    8266:	48 8d 45 bf          	lea    -0x41(%rbp),%rax
    826a:	48 89 d6             	mov    %rdx,%rsi
    826d:	48 89 c7             	mov    %rax,%rdi
    8270:	e8 85 11 00 00       	call   93fa <_ZNKSt12_Vector_baseISt3mapINSt7__cxx1112basic_stringIcSt11char_traitsIcESaIcEEES6_St4lessIS6_ESaISt4pairIKS6_S6_EEESaISD_EE13get_allocatorEv>
    8275:	48 8d 55 bf          	lea    -0x41(%rbp),%rdx
    8279:	48 8d 45 d0          	lea    -0x30(%rbp),%rax
    827d:	48 89 d6             	mov    %rdx,%rsi
    8280:	48 89 c7             	mov    %rax,%rdi
    8283:	e8 b8 11 00 00       	call   9440 <_ZNSt6vectorISt3mapINSt7__cxx1112basic_stringIcSt11char_traitsIcESaIcEEES6_St4lessIS6_ESaISt4pairIKS6_S6_EEESaISD_EEC1ERKSE_>
    8288:	48 8d 45 bf          	lea    -0x41(%rbp),%rax
    828c:	48 89 c7             	mov    %rax,%rdi
    828f:	e8 10 ec ff ff       	call   6ea4 <_ZNSt15__new_allocatorISt3mapINSt7__cxx1112basic_stringIcSt11char_traitsIcESaIcEEES6_St4lessIS6_ESaISt4pairIKS6_S6_EEEED1Ev>
    8294:	90                   	nop
    8295:	48 8b 45 a8          	mov    -0x58(%rbp),%rax
    8299:	48 8b 55 a0          	mov    -0x60(%rbp),%rdx
    829d:	48 89 d6             	mov    %rdx,%rsi
    82a0:	48 89 c7             	mov    %rax,%rdi
    82a3:	e8 c2 11 00 00       	call   946a <_ZNSt12_Vector_baseISt3mapINSt7__cxx1112basic_stringIcSt11char_traitsIcESaIcEEES6_St4lessIS6_ESaISt4pairIKS6_S6_EEESaISD_EE17_Vector_impl_data12_M_swap_dataERSG_>
    82a8:	48 8b 55 a0          	mov    -0x60(%rbp),%rdx
    82ac:	48 8d 45 d0          	lea    -0x30(%rbp),%rax
    82b0:	48 89 d6             	mov    %rdx,%rsi
    82b3:	48 89 c7             	mov    %rax,%rdi
    82b6:	e8 af 11 00 00       	call   946a <_ZNSt12_Vector_baseISt3mapINSt7__cxx1112basic_stringIcSt11char_traitsIcESaIcEEES6_St4lessIS6_ESaISt4pairIKS6_S6_EEESaISD_EE17_Vector_impl_data12_M_swap_dataERSG_>
    82bb:	48 8b 45 a0          	mov    -0x60(%rbp),%rax
    82bf:	48 89 c7             	mov    %rax,%rdi
    82c2:	e8 3f ec ff ff       	call   6f06 <_ZNSt12_Vector_baseISt3mapINSt7__cxx1112basic_stringIcSt11char_traitsIcESaIcEEES6_St4lessIS6_ESaISt4pairIKS6_S6_EEESaISD_EE19_M_get_Tp_allocatorEv>
    82c7:	48 89 c3             	mov    %rax,%rbx
    82ca:	48 8b 45 a8          	mov    -0x58(%rbp),%rax
    82ce:	48 89 c7             	mov    %rax,%rdi
    82d1:	e8 30 ec ff ff       	call   6f06 <_ZNSt12_Vector_baseISt3mapINSt7__cxx1112basic_stringIcSt11char_traitsIcESaIcEEES6_St4lessIS6_ESaISt4pairIKS6_S6_EEESaISD_EE19_M_get_Tp_allocatorEv>
    82d6:	48 89 45 c0          	mov    %rax,-0x40(%rbp)
    82da:	48 89 5d c8          	mov    %rbx,-0x38(%rbp)
    82de:	48 8b 45 c8          	mov    -0x38(%rbp),%rax
    82e2:	48 89 c7             	mov    %rax,%rdi
    82e5:	e8 43 21 00 00       	call   a42d <_ZSt4moveIRSaISt3mapINSt7__cxx1112basic_stringIcSt11char_traitsIcESaIcEEES6_St4lessIS6_ESaISt4pairIKS6_S6_EEEEEONSt16remove_referenceIT_E4typeEOSH_>
    82ea:	90                   	nop
    82eb:	48 8d 45 d0          	lea    -0x30(%rbp),%rax
    82ef:	48 89 c7             	mov    %rax,%rdi
    82f2:	e8 ed da ff ff       	call   5de4 <_ZNSt6vectorISt3mapINSt7__cxx1112basic_stringIcSt11char_traitsIcESaIcEEES6_St4lessIS6_ESaISt4pairIKS6_S6_EEESaISD_EED1Ev>
    82f7:	48 8b 45 e8          	mov    -0x18(%rbp),%rax
    82fb:	64 48 2b 04 25 28 00 	sub    %fs:0x28,%rax
    8302:	00 00 
    8304:	74 05                	je     830b <_ZNSt6vectorISt3mapINSt7__cxx1112basic_stringIcSt11char_traitsIcESaIcEEES6_St4lessIS6_ESaISt4pairIKS6_S6_EEESaISD_EE14_M_move_assignEOSF_St17integral_constantIbLb1EE+0xcd>
    8306:	e8 75 b4 ff ff       	call   3780 <_init+0x780>
    830b:	48 8b 5d f8          	mov    -0x8(%rbp),%rbx
    830f:	c9                   	leave  
    8310:	c3                   	ret    
    8311:	90                   	nop

0000000000008312 <_ZN9__gnu_cxx17__normal_iteratorIPSt3mapINSt7__cxx1112basic_stringIcSt11char_traitsIcESaIcEEES7_St4lessIS7_ESaISt4pairIKS7_S7_EEESt6vectorISE_SaISE_EEEC1ERKSF_>:
    8312:	f3 0f 1e fa          	endbr64 
    8316:	55                   	push   %rbp
    8317:	48 89 e5             	mov    %rsp,%rbp
    831a:	48 89 7d f8          	mov    %rdi,-0x8(%rbp)
    831e:	48 89 75 f0          	mov    %rsi,-0x10(%rbp)
    8322:	48 8b 45 f0          	mov    -0x10(%rbp),%rax
    8326:	48 8b 10             	mov    (%rax),%rdx
    8329:	48 8b 45 f8          	mov    -0x8(%rbp),%rax
    832d:	48 89 10             	mov    %rdx,(%rax)
    8330:	90                   	nop
    8331:	5d                   	pop    %rbp
    8332:	c3                   	ret    
    8333:	90                   	nop

0000000000008334 <_ZNK9__gnu_cxx17__normal_iteratorIPSt3mapINSt7__cxx1112basic_stringIcSt11char_traitsIcESaIcEEES7_St4lessIS7_ESaISt4pairIKS7_S7_EEESt6vectorISE_SaISE_EEE4baseEv>:
    8334:	f3 0f 1e fa          	endbr64 
    8338:	55                   	push   %rbp
    8339:	48 89 e5             	mov    %rsp,%rbp
    833c:	48 89 7d f8          	mov    %rdi,-0x8(%rbp)
    8340:	48 8b 45 f8          	mov    -0x8(%rbp),%rax
    8344:	5d                   	pop    %rbp
    8345:	c3                   	ret    

0000000000008346 <_ZSt8_DestroyIPSt3mapINSt7__cxx1112basic_stringIcSt11char_traitsIcESaIcEEES6_St4lessIS6_ESaISt4pairIKS6_S6_EEEEvT_SF_>:
    8346:	f3 0f 1e fa          	endbr64 
    834a:	55                   	push   %rbp
    834b:	48 89 e5             	mov    %rsp,%rbp
    834e:	48 83 ec 10          	sub    $0x10,%rsp
    8352:	48 89 7d f8          	mov    %rdi,-0x8(%rbp)
    8356:	48 89 75 f0          	mov    %rsi,-0x10(%rbp)
    835a:	48 8b 55 f0          	mov    -0x10(%rbp),%rdx
    835e:	48 8b 45 f8          	mov    -0x8(%rbp),%rax
    8362:	48 89 d6             	mov    %rdx,%rsi
    8365:	48 89 c7             	mov    %rax,%rdi
    8368:	e8 ba 11 00 00       	call   9527 <_ZNSt12_Destroy_auxILb0EE9__destroyIPSt3mapINSt7__cxx1112basic_stringIcSt11char_traitsIcESaIcEEES8_St4lessIS8_ESaISt4pairIKS8_S8_EEEEEvT_SH_>
    836d:	90                   	nop
    836e:	c9                   	leave  
    836f:	c3                   	ret    

0000000000008370 <_ZNSt8_Rb_treeINSt7__cxx1112basic_stringIcSt11char_traitsIcESaIcEEESt4pairIKS5_S5_ESt10_Select1stIS8_ESt4lessIS5_ESaIS8_EE8_S_rightEPSt18_Rb_tree_node_base>:
    8370:	f3 0f 1e fa          	endbr64 
    8374:	55                   	push   %rbp
    8375:	48 89 e5             	mov    %rsp,%rbp
    8378:	48 89 7d f8          	mov    %rdi,-0x8(%rbp)
    837c:	48 8b 45 f8          	mov    -0x8(%rbp),%rax
    8380:	48 8b 40 18          	mov    0x18(%rax),%rax
    8384:	5d                   	pop    %rbp
    8385:	c3                   	ret    

0000000000008386 <_ZNSt8_Rb_treeINSt7__cxx1112basic_stringIcSt11char_traitsIcESaIcEEESt4pairIKS5_S5_ESt10_Select1stIS8_ESt4lessIS5_ESaIS8_EE7_S_leftEPSt18_Rb_tree_node_base>:
    8386:	f3 0f 1e fa          	endbr64 
    838a:	55                   	push   %rbp
    838b:	48 89 e5             	mov    %rsp,%rbp
    838e:	48 89 7d f8          	mov    %rdi,-0x8(%rbp)
    8392:	48 8b 45 f8          	mov    -0x8(%rbp),%rax
    8396:	48 8b 40 10          	mov    0x10(%rax),%rax
    839a:	5d                   	pop    %rbp
    839b:	c3                   	ret    

000000000000839c <_ZNSt8_Rb_treeINSt7__cxx1112basic_stringIcSt11char_traitsIcESaIcEEESt4pairIKS5_S5_ESt10_Select1stIS8_ESt4lessIS5_ESaIS8_EE12_M_drop_nodeEPSt13_Rb_tree_nodeIS8_E>:
    839c:	f3 0f 1e fa          	endbr64 
    83a0:	55                   	push   %rbp
    83a1:	48 89 e5             	mov    %rsp,%rbp
    83a4:	48 83 ec 10          	sub    $0x10,%rsp
    83a8:	48 89 7d f8          	mov    %rdi,-0x8(%rbp)
    83ac:	48 89 75 f0          	mov    %rsi,-0x10(%rbp)
    83b0:	48 8b 55 f0          	mov    -0x10(%rbp),%rdx
    83b4:	48 8b 45 f8          	mov    -0x8(%rbp),%rax
    83b8:	48 89 d6             	mov    %rdx,%rsi
    83bb:	48 89 c7             	mov    %rax,%rdi
    83be:	e8 a1 11 00 00       	call   9564 <_ZNSt8_Rb_treeINSt7__cxx1112basic_stringIcSt11char_traitsIcESaIcEEESt4pairIKS5_S5_ESt10_Select1stIS8_ESt4lessIS5_ESaIS8_EE15_M_destroy_nodeEPSt13_Rb_tree_nodeIS8_E>
    83c3:	48 8b 55 f0          	mov    -0x10(%rbp),%rdx
    83c7:	48 8b 45 f8          	mov    -0x8(%rbp),%rax
    83cb:	48 89 d6             	mov    %rdx,%rsi
    83ce:	48 89 c7             	mov    %rax,%rdi
    83d1:	e8 ec 11 00 00       	call   95c2 <_ZNSt8_Rb_treeINSt7__cxx1112basic_stringIcSt11char_traitsIcESaIcEEESt4pairIKS5_S5_ESt10_Select1stIS8_ESt4lessIS5_ESaIS8_EE11_M_put_nodeEPSt13_Rb_tree_nodeIS8_E>
    83d6:	90                   	nop
    83d7:	c9                   	leave  
    83d8:	c3                   	ret    
    83d9:	90                   	nop

00000000000083da <_ZNKSt8_Rb_treeINSt7__cxx1112basic_stringIcSt11char_traitsIcESaIcEEESt4pairIKS5_S5_ESt10_Select1stIS8_ESt4lessIS5_ESaIS8_EE9_M_mbeginEv>:
    83da:	f3 0f 1e fa          	endbr64 
    83de:	55                   	push   %rbp
    83df:	48 89 e5             	mov    %rsp,%rbp
    83e2:	48 89 7d f8          	mov    %rdi,-0x8(%rbp)
    83e6:	48 8b 45 f8          	mov    -0x8(%rbp),%rax
    83ea:	48 8b 40 10          	mov    0x10(%rax),%rax
    83ee:	5d                   	pop    %rbp
    83ef:	c3                   	ret    

00000000000083f0 <_ZNSt8_Rb_treeINSt7__cxx1112basic_stringIcSt11char_traitsIcESaIcEEESt4pairIKS5_S5_ESt10_Select1stIS8_ESt4lessIS5_ESaIS8_EE11lower_boundERS7_>:
    83f0:	f3 0f 1e fa          	endbr64 
    83f4:	55                   	push   %rbp
    83f5:	48 89 e5             	mov    %rsp,%rbp
    83f8:	53                   	push   %rbx
    83f9:	48 83 ec 18          	sub    $0x18,%rsp
    83fd:	48 89 7d e8          	mov    %rdi,-0x18(%rbp)
    8401:	48 89 75 e0          	mov    %rsi,-0x20(%rbp)
    8405:	48 8b 45 e8          	mov    -0x18(%rbp),%rax
    8409:	48 89 c7             	mov    %rax,%rdi
    840c:	e8 01 12 00 00       	call   9612 <_ZNSt8_Rb_treeINSt7__cxx1112basic_stringIcSt11char_traitsIcESaIcEEESt4pairIKS5_S5_ESt10_Select1stIS8_ESt4lessIS5_ESaIS8_EE6_M_endEv>
    8411:	48 89 c3             	mov    %rax,%rbx
    8414:	48 8b 45 e8          	mov    -0x18(%rbp),%rax
    8418:	48 89 c7             	mov    %rax,%rdi
    841b:	e8 82 eb ff ff       	call   6fa2 <_ZNSt8_Rb_treeINSt7__cxx1112basic_stringIcSt11char_traitsIcESaIcEEESt4pairIKS5_S5_ESt10_Select1stIS8_ESt4lessIS5_ESaIS8_EE8_M_beginEv>
    8420:	48 89 c6             	mov    %rax,%rsi
    8423:	48 8b 55 e0          	mov    -0x20(%rbp),%rdx
    8427:	48 8b 45 e8          	mov    -0x18(%rbp),%rax
    842b:	48 89 d1             	mov    %rdx,%rcx
    842e:	48 89 da             	mov    %rbx,%rdx
    8431:	48 89 c7             	mov    %rax,%rdi
    8434:	e8 ef 11 00 00       	call   9628 <_ZNSt8_Rb_treeINSt7__cxx1112basic_stringIcSt11char_traitsIcESaIcEEESt4pairIKS5_S5_ESt10_Select1stIS8_ESt4lessIS5_ESaIS8_EE14_M_lower_boundEPSt13_Rb_tree_nodeIS8_EPSt18_Rb_tree_node_baseRS7_>
    8439:	48 8b 5d f8          	mov    -0x8(%rbp),%rbx
    843d:	c9                   	leave  
    843e:	c3                   	ret    
    843f:	90                   	nop

0000000000008440 <_ZNSt8_Rb_treeINSt7__cxx1112basic_stringIcSt11char_traitsIcESaIcEEESt4pairIKS5_S5_ESt10_Select1stIS8_ESt4lessIS5_ESaIS8_EE3endEv>:
    8440:	f3 0f 1e fa          	endbr64 
    8444:	55                   	push   %rbp
    8445:	48 89 e5             	mov    %rsp,%rbp
    8448:	48 83 ec 20          	sub    $0x20,%rsp
    844c:	48 89 7d e8          	mov    %rdi,-0x18(%rbp)
    8450:	64 48 8b 04 25 28 00 	mov    %fs:0x28,%rax
    8457:	00 00 
    8459:	48 89 45 f8          	mov    %rax,-0x8(%rbp)
    845d:	31 c0                	xor    %eax,%eax
    845f:	48 8b 45 e8          	mov    -0x18(%rbp),%rax
    8463:	48 8d 50 08          	lea    0x8(%rax),%rdx
    8467:	48 8d 45 f0          	lea    -0x10(%rbp),%rax
    846b:	48 89 d6             	mov    %rdx,%rsi
    846e:	48 89 c7             	mov    %rax,%rdi
    8471:	e8 d8 05 00 00       	call   8a4e <_ZNSt17_Rb_tree_iteratorISt4pairIKNSt7__cxx1112basic_stringIcSt11char_traitsIcESaIcEEES6_EEC1EPSt18_Rb_tree_node_base>
    8476:	48 8b 45 f0          	mov    -0x10(%rbp),%rax
    847a:	48 8b 55 f8          	mov    -0x8(%rbp),%rdx
    847e:	64 48 2b 14 25 28 00 	sub    %fs:0x28,%rdx
    8485:	00 00 
    8487:	74 05                	je     848e <_ZNSt8_Rb_treeINSt7__cxx1112basic_stringIcSt11char_traitsIcESaIcEEESt4pairIKS5_S5_ESt10_Select1stIS8_ESt4lessIS5_ESaIS8_EE3endEv+0x4e>
    8489:	e8 f2 b2 ff ff       	call   3780 <_init+0x780>
    848e:	c9                   	leave  
    848f:	c3                   	ret    

0000000000008490 <_ZNKSt8_Rb_treeINSt7__cxx1112basic_stringIcSt11char_traitsIcESaIcEEESt4pairIKS5_S5_ESt10_Select1stIS8_ESt4lessIS5_ESaIS8_EE8key_compEv>:
    8490:	f3 0f 1e fa          	endbr64 
    8494:	55                   	push   %rbp
    8495:	48 89 e5             	mov    %rsp,%rbp
    8498:	48 89 7d f8          	mov    %rdi,-0x8(%rbp)
    849c:	90                   	nop
    849d:	5d                   	pop    %rbp
    849e:	c3                   	ret    
    849f:	90                   	nop

00000000000084a0 <_ZNSt13_Rb_tree_nodeISt4pairIKNSt7__cxx1112basic_stringIcSt11char_traitsIcESaIcEEES6_EE9_M_valptrEv>:
    84a0:	f3 0f 1e fa          	endbr64 
    84a4:	55                   	push   %rbp
    84a5:	48 89 e5             	mov    %rsp,%rbp
    84a8:	48 83 ec 10          	sub    $0x10,%rsp
    84ac:	48 89 7d f8          	mov    %rdi,-0x8(%rbp)
    84b0:	48 8b 45 f8          	mov    -0x8(%rbp),%rax
    84b4:	48 83 c0 20          	add    $0x20,%rax
    84b8:	48 89 c7             	mov    %rax,%rdi
    84bb:	e8 24 12 00 00       	call   96e4 <_ZN9__gnu_cxx16__aligned_membufISt4pairIKNSt7__cxx1112basic_stringIcSt11char_traitsIcESaIcEEES7_EE6_M_ptrEv>
    84c0:	c9                   	leave  
    84c1:	c3                   	ret    

00000000000084c2 <_ZStltIcSt11char_traitsIcESaIcEEbRKNSt7__cxx1112basic_stringIT_T0_T1_EESA_>:
    84c2:	f3 0f 1e fa          	endbr64 
    84c6:	55                   	push   %rbp
    84c7:	48 89 e5             	mov    %rsp,%rbp
    84ca:	48 83 ec 10          	sub    $0x10,%rsp
    84ce:	48 89 7d f8          	mov    %rdi,-0x8(%rbp)
    84d2:	48 89 75 f0          	mov    %rsi,-0x10(%rbp)
    84d6:	48 8b 55 f0          	mov    -0x10(%rbp),%rdx
    84da:	48 8b 45 f8          	mov    -0x8(%rbp),%rax
    84de:	48 89 d6             	mov    %rdx,%rsi
    84e1:	48 89 c7             	mov    %rax,%rdi
    84e4:	e8 f7 af ff ff       	call   34e0 <_init+0x4e0>
    84e9:	c1 e8 1f             	shr    $0x1f,%eax
    84ec:	c9                   	leave  
    84ed:	c3                   	ret    

00000000000084ee <_ZNSt11_Tuple_implILm0EJRKNSt7__cxx1112basic_stringIcSt11char_traitsIcESaIcEEEEEC1ES7_>:
    84ee:	f3 0f 1e fa          	endbr64 
    84f2:	55                   	push   %rbp
    84f3:	48 89 e5             	mov    %rsp,%rbp
    84f6:	48 83 ec 10          	sub    $0x10,%rsp
    84fa:	48 89 7d f8          	mov    %rdi,-0x8(%rbp)
    84fe:	48 89 75 f0          	mov    %rsi,-0x10(%rbp)
    8502:	48 8b 45 f8          	mov    -0x8(%rbp),%rax
    8506:	48 8b 55 f0          	mov    -0x10(%rbp),%rdx
    850a:	48 89 d6             	mov    %rdx,%rsi
    850d:	48 89 c7             	mov    %rax,%rdi
    8510:	e8 1d 12 00 00       	call   9732 <_ZNSt10_Head_baseILm0ERKNSt7__cxx1112basic_stringIcSt11char_traitsIcESaIcEEELb0EEC1ES7_>
    8515:	90                   	nop
    8516:	c9                   	leave  
    8517:	c3                   	ret    

0000000000008518 <_ZSt7forwardIRKSt21piecewise_construct_tEOT_RNSt16remove_referenceIS3_E4typeE>:
    8518:	f3 0f 1e fa          	endbr64 
    851c:	55                   	push   %rbp
    851d:	48 89 e5             	mov    %rsp,%rbp
    8520:	48 89 7d f8          	mov    %rdi,-0x8(%rbp)
    8524:	48 8b 45 f8          	mov    -0x8(%rbp),%rax
    8528:	5d                   	pop    %rbp
    8529:	c3                   	ret    

000000000000852a <_ZSt7forwardISt5tupleIJRKNSt7__cxx1112basic_stringIcSt11char_traitsIcESaIcEEEEEEOT_RNSt16remove_referenceISA_E4typeE>:
    852a:	f3 0f 1e fa          	endbr64 
    852e:	55                   	push   %rbp
    852f:	48 89 e5             	mov    %rsp,%rbp
    8532:	48 89 7d f8          	mov    %rdi,-0x8(%rbp)
    8536:	48 8b 45 f8          	mov    -0x8(%rbp),%rax
    853a:	5d                   	pop    %rbp
    853b:	c3                   	ret    

000000000000853c <_ZSt7forwardISt5tupleIJEEEOT_RNSt16remove_referenceIS2_E4typeE>:
    853c:	f3 0f 1e fa          	endbr64 
    8540:	55                   	push   %rbp
    8541:	48 89 e5             	mov    %rsp,%rbp
    8544:	48 89 7d f8          	mov    %rdi,-0x8(%rbp)
    8548:	48 8b 45 f8          	mov    -0x8(%rbp),%rax
    854c:	5d                   	pop    %rbp
    854d:	c3                   	ret    

000000000000854e <_ZNSt8_Rb_treeINSt7__cxx1112basic_stringIcSt11char_traitsIcESaIcEEESt4pairIKS5_S5_ESt10_Select1stIS8_ESt4lessIS5_ESaIS8_EE10_Auto_nodeC1IJRKSt21piecewise_construct_tSt5tupleIJRS7_EESK_IJEEEEERSE_DpOT_>:
    854e:	f3 0f 1e fa          	endbr64 
    8552:	55                   	push   %rbp
    8553:	48 89 e5             	mov    %rsp,%rbp
    8556:	41 54                	push   %r12
    8558:	53                   	push   %rbx
    8559:	48 83 ec 30          	sub    $0x30,%rsp
    855d:	48 89 7d e8          	mov    %rdi,-0x18(%rbp)
    8561:	48 89 75 e0          	mov    %rsi,-0x20(%rbp)
    8565:	48 89 55 d8          	mov    %rdx,-0x28(%rbp)
    8569:	48 89 4d d0          	mov    %rcx,-0x30(%rbp)
    856d:	4c 89 45 c8          	mov    %r8,-0x38(%rbp)
    8571:	48 8b 45 e8          	mov    -0x18(%rbp),%rax
    8575:	48 8b 55 e0          	mov    -0x20(%rbp),%rdx
    8579:	48 89 10             	mov    %rdx,(%rax)
    857c:	48 8b 45 c8          	mov    -0x38(%rbp),%rax
    8580:	48 89 c7             	mov    %rax,%rdi
    8583:	e8 b4 ff ff ff       	call   853c <_ZSt7forwardISt5tupleIJEEEOT_RNSt16remove_referenceIS2_E4typeE>
    8588:	49 89 c4             	mov    %rax,%r12
    858b:	48 8b 45 d0          	mov    -0x30(%rbp),%rax
    858f:	48 89 c7             	mov    %rax,%rdi
    8592:	e8 93 ff ff ff       	call   852a <_ZSt7forwardISt5tupleIJRKNSt7__cxx1112basic_stringIcSt11char_traitsIcESaIcEEEEEEOT_RNSt16remove_referenceISA_E4typeE>
    8597:	48 89 c3             	mov    %rax,%rbx
    859a:	48 8b 45 d8          	mov    -0x28(%rbp),%rax
    859e:	48 89 c7             	mov    %rax,%rdi
    85a1:	e8 72 ff ff ff       	call   8518 <_ZSt7forwardIRKSt21piecewise_construct_tEOT_RNSt16remove_referenceIS3_E4typeE>
    85a6:	48 89 c6             	mov    %rax,%rsi
    85a9:	48 8b 45 e0          	mov    -0x20(%rbp),%rax
    85ad:	4c 89 e1             	mov    %r12,%rcx
    85b0:	48 89 da             	mov    %rbx,%rdx
    85b3:	48 89 c7             	mov    %rax,%rdi
    85b6:	e8 95 11 00 00       	call   9750 <_ZNSt8_Rb_treeINSt7__cxx1112basic_stringIcSt11char_traitsIcESaIcEEESt4pairIKS5_S5_ESt10_Select1stIS8_ESt4lessIS5_ESaIS8_EE14_M_create_nodeIJRKSt21piecewise_construct_tSt5tupleIJRS7_EESJ_IJEEEEEPSt13_Rb_tree_nodeIS8_EDpOT_>
    85bb:	48 8b 55 e8          	mov    -0x18(%rbp),%rdx
    85bf:	48 89 42 08          	mov    %rax,0x8(%rdx)
    85c3:	90                   	nop
    85c4:	48 83 c4 30          	add    $0x30,%rsp
    85c8:	5b                   	pop    %rbx
    85c9:	41 5c                	pop    %r12
    85cb:	5d                   	pop    %rbp
    85cc:	c3                   	ret    
    85cd:	90                   	nop

00000000000085ce <_ZNSt8_Rb_treeINSt7__cxx1112basic_stringIcSt11char_traitsIcESaIcEEESt4pairIKS5_S5_ESt10_Select1stIS8_ESt4lessIS5_ESaIS8_EE10_Auto_nodeD1Ev>:
    85ce:	f3 0f 1e fa          	endbr64 
    85d2:	55                   	push   %rbp
    85d3:	48 89 e5             	mov    %rsp,%rbp
    85d6:	48 83 ec 10          	sub    $0x10,%rsp
    85da:	48 89 7d f8          	mov    %rdi,-0x8(%rbp)
    85de:	48 8b 45 f8          	mov    -0x8(%rbp),%rax
    85e2:	48 8b 40 08          	mov    0x8(%rax),%rax
    85e6:	48 85 c0             	test   %rax,%rax
    85e9:	74 1a                	je     8605 <_ZNSt8_Rb_treeINSt7__cxx1112basic_stringIcSt11char_traitsIcESaIcEEESt4pairIKS5_S5_ESt10_Select1stIS8_ESt4lessIS5_ESaIS8_EE10_Auto_nodeD1Ev+0x37>
    85eb:	48 8b 45 f8          	mov    -0x8(%rbp),%rax
    85ef:	48 8b 00             	mov    (%rax),%rax
    85f2:	48 8b 55 f8          	mov    -0x8(%rbp),%rdx
    85f6:	48 8b 52 08          	mov    0x8(%rdx),%rdx
    85fa:	48 89 d6             	mov    %rdx,%rsi
    85fd:	48 89 c7             	mov    %rax,%rdi
    8600:	e8 97 fd ff ff       	call   839c <_ZNSt8_Rb_treeINSt7__cxx1112basic_stringIcSt11char_traitsIcESaIcEEESt4pairIKS5_S5_ESt10_Select1stIS8_ESt4lessIS5_ESaIS8_EE12_M_drop_nodeEPSt13_Rb_tree_nodeIS8_E>
    8605:	90                   	nop
    8606:	c9                   	leave  
    8607:	c3                   	ret    

0000000000008608 <_ZNSt8_Rb_treeINSt7__cxx1112basic_stringIcSt11char_traitsIcESaIcEEESt4pairIKS5_S5_ESt10_Select1stIS8_ESt4lessIS5_ESaIS8_EE29_M_get_insert_hint_unique_posESt23_Rb_tree_const_iteratorIS8_ERS7_>:
    8608:	f3 0f 1e fa          	endbr64 
    860c:	55                   	push   %rbp
    860d:	48 89 e5             	mov    %rsp,%rbp
    8610:	53                   	push   %rbx
    8611:	48 83 ec 68          	sub    $0x68,%rsp
    8615:	48 89 7d a8          	mov    %rdi,-0x58(%rbp)
    8619:	48 89 75 a0          	mov    %rsi,-0x60(%rbp)
    861d:	48 89 55 98          	mov    %rdx,-0x68(%rbp)
    8621:	64 48 8b 04 25 28 00 	mov    %fs:0x28,%rax
    8628:	00 00 
    862a:	48 89 45 e8          	mov    %rax,-0x18(%rbp)
    862e:	31 c0                	xor    %eax,%eax
    8630:	48 8d 45 a0          	lea    -0x60(%rbp),%rax
    8634:	48 89 c7             	mov    %rax,%rdi
    8637:	e8 94 11 00 00       	call   97d0 <_ZNKSt23_Rb_tree_const_iteratorISt4pairIKNSt7__cxx1112basic_stringIcSt11char_traitsIcESaIcEEES6_EE13_M_const_castEv>
    863c:	48 89 45 b8          	mov    %rax,-0x48(%rbp)
    8640:	48 8b 5d b8          	mov    -0x48(%rbp),%rbx
    8644:	48 8b 45 a8          	mov    -0x58(%rbp),%rax
    8648:	48 89 c7             	mov    %rax,%rdi
    864b:	e8 c2 0f 00 00       	call   9612 <_ZNSt8_Rb_treeINSt7__cxx1112basic_stringIcSt11char_traitsIcESaIcEEESt4pairIKS5_S5_ESt10_Select1stIS8_ESt4lessIS5_ESaIS8_EE6_M_endEv>
    8650:	48 39 c3             	cmp    %rax,%rbx
    8653:	0f 94 c0             	sete   %al
    8656:	84 c0                	test   %al,%al
    8658:	0f 84 a4 00 00 00    	je     8702 <_ZNSt8_Rb_treeINSt7__cxx1112basic_stringIcSt11char_traitsIcESaIcEEESt4pairIKS5_S5_ESt10_Select1stIS8_ESt4lessIS5_ESaIS8_EE29_M_get_insert_hint_unique_posESt23_Rb_tree_const_iteratorIS8_ERS7_+0xfa>
    865e:	48 8b 45 a8          	mov    -0x58(%rbp),%rax
    8662:	48 89 c7             	mov    %rax,%rdi
    8665:	e8 b6 11 00 00       	call   9820 <_ZNKSt8_Rb_treeINSt7__cxx1112basic_stringIcSt11char_traitsIcESaIcEEESt4pairIKS5_S5_ESt10_Select1stIS8_ESt4lessIS5_ESaIS8_EE4sizeEv>
    866a:	48 85 c0             	test   %rax,%rax
    866d:	74 3b                	je     86aa <_ZNSt8_Rb_treeINSt7__cxx1112basic_stringIcSt11char_traitsIcESaIcEEESt4pairIKS5_S5_ESt10_Select1stIS8_ESt4lessIS5_ESaIS8_EE29_M_get_insert_hint_unique_posESt23_Rb_tree_const_iteratorIS8_ERS7_+0xa2>
    866f:	48 8b 5d a8          	mov    -0x58(%rbp),%rbx
    8673:	48 8b 45 a8          	mov    -0x58(%rbp),%rax
    8677:	48 89 c7             	mov    %rax,%rdi
    867a:	e8 b7 11 00 00       	call   9836 <_ZNSt8_Rb_treeINSt7__cxx1112basic_stringIcSt11char_traitsIcESaIcEEESt4pairIKS5_S5_ESt10_Select1stIS8_ESt4lessIS5_ESaIS8_EE12_M_rightmostEv>
    867f:	48 8b 00             	mov    (%rax),%rax
    8682:	48 89 c7             	mov    %rax,%rdi
    8685:	e8 04 07 00 00       	call   8d8e <_ZNSt8_Rb_treeINSt7__cxx1112basic_stringIcSt11char_traitsIcESaIcEEESt4pairIKS5_S5_ESt10_Select1stIS8_ESt4lessIS5_ESaIS8_EE6_S_keyEPKSt18_Rb_tree_node_base>
    868a:	48 89 c1             	mov    %rax,%rcx
    868d:	48 8b 45 98          	mov    -0x68(%rbp),%rax
    8691:	48 89 c2             	mov    %rax,%rdx
    8694:	48 89 ce             	mov    %rcx,%rsi
    8697:	48 89 df             	mov    %rbx,%rdi
    869a:	e8 d1 e9 ff ff       	call   7070 <_ZNKSt4lessINSt7__cxx1112basic_stringIcSt11char_traitsIcESaIcEEEEclERKS5_S8_>
    869f:	84 c0                	test   %al,%al
    86a1:	74 07                	je     86aa <_ZNSt8_Rb_treeINSt7__cxx1112basic_stringIcSt11char_traitsIcESaIcEEESt4pairIKS5_S5_ESt10_Select1stIS8_ESt4lessIS5_ESaIS8_EE29_M_get_insert_hint_unique_posESt23_Rb_tree_const_iteratorIS8_ERS7_+0xa2>
    86a3:	b8 01 00 00 00       	mov    $0x1,%eax
    86a8:	eb 05                	jmp    86af <_ZNSt8_Rb_treeINSt7__cxx1112basic_stringIcSt11char_traitsIcESaIcEEESt4pairIKS5_S5_ESt10_Select1stIS8_ESt4lessIS5_ESaIS8_EE29_M_get_insert_hint_unique_posESt23_Rb_tree_const_iteratorIS8_ERS7_+0xa7>
    86aa:	b8 00 00 00 00       	mov    $0x0,%eax
    86af:	84 c0                	test   %al,%al
    86b1:	74 37                	je     86ea <_ZNSt8_Rb_treeINSt7__cxx1112basic_stringIcSt11char_traitsIcESaIcEEESt4pairIKS5_S5_ESt10_Select1stIS8_ESt4lessIS5_ESaIS8_EE29_M_get_insert_hint_unique_posESt23_Rb_tree_const_iteratorIS8_ERS7_+0xe2>
    86b3:	48 8b 45 a8          	mov    -0x58(%rbp),%rax
    86b7:	48 89 c7             	mov    %rax,%rdi
    86ba:	e8 77 11 00 00       	call   9836 <_ZNSt8_Rb_treeINSt7__cxx1112basic_stringIcSt11char_traitsIcESaIcEEESt4pairIKS5_S5_ESt10_Select1stIS8_ESt4lessIS5_ESaIS8_EE12_M_rightmostEv>
    86bf:	48 89 c2             	mov    %rax,%rdx
    86c2:	48 c7 45 c8 00 00 00 	movq   $0x0,-0x38(%rbp)
    86c9:	00 
    86ca:	48 8d 4d c8          	lea    -0x38(%rbp),%rcx
    86ce:	48 8d 45 d0          	lea    -0x30(%rbp),%rax
    86d2:	48 89 ce             	mov    %rcx,%rsi
    86d5:	48 89 c7             	mov    %rax,%rdi
    86d8:	e8 6f 11 00 00       	call   984c <_ZNSt4pairIPSt18_Rb_tree_node_baseS1_EC1IS1_S1_Lb1EEERKS1_S5_>
    86dd:	48 8b 45 d0          	mov    -0x30(%rbp),%rax
    86e1:	48 8b 55 d8          	mov    -0x28(%rbp),%rdx
    86e5:	e9 ac 02 00 00       	jmp    8996 <_ZNSt8_Rb_treeINSt7__cxx1112basic_stringIcSt11char_traitsIcESaIcEEESt4pairIKS5_S5_ESt10_Select1stIS8_ESt4lessIS5_ESaIS8_EE29_M_get_insert_hint_unique_posESt23_Rb_tree_const_iteratorIS8_ERS7_+0x38e>
    86ea:	48 8b 55 98          	mov    -0x68(%rbp),%rdx
    86ee:	48 8b 45 a8          	mov    -0x58(%rbp),%rax
    86f2:	48 89 d6             	mov    %rdx,%rsi
    86f5:	48 89 c7             	mov    %rax,%rdi
    86f8:	e8 83 11 00 00       	call   9880 <_ZNSt8_Rb_treeINSt7__cxx1112basic_stringIcSt11char_traitsIcESaIcEEESt4pairIKS5_S5_ESt10_Select1stIS8_ESt4lessIS5_ESaIS8_EE24_M_get_insert_unique_posERS7_>
    86fd:	e9 94 02 00 00       	jmp    8996 <_ZNSt8_Rb_treeINSt7__cxx1112basic_stringIcSt11char_traitsIcESaIcEEESt4pairIKS5_S5_ESt10_Select1stIS8_ESt4lessIS5_ESaIS8_EE29_M_get_insert_hint_unique_posESt23_Rb_tree_const_iteratorIS8_ERS7_+0x38e>
    8702:	48 8b 5d a8          	mov    -0x58(%rbp),%rbx
    8706:	48 8b 45 b8          	mov    -0x48(%rbp),%rax
    870a:	48 89 c7             	mov    %rax,%rdi
    870d:	e8 7c 06 00 00       	call   8d8e <_ZNSt8_Rb_treeINSt7__cxx1112basic_stringIcSt11char_traitsIcESaIcEEESt4pairIKS5_S5_ESt10_Select1stIS8_ESt4lessIS5_ESaIS8_EE6_S_keyEPKSt18_Rb_tree_node_base>
    8712:	48 89 c2             	mov    %rax,%rdx
    8715:	48 8b 45 98          	mov    -0x68(%rbp),%rax
    8719:	48 89 c6             	mov    %rax,%rsi
    871c:	48 89 df             	mov    %rbx,%rdi
    871f:	e8 4c e9 ff ff       	call   7070 <_ZNKSt4lessINSt7__cxx1112basic_stringIcSt11char_traitsIcESaIcEEEEclERKS5_S8_>
    8724:	84 c0                	test   %al,%al
    8726:	0f 84 14 01 00 00    	je     8840 <_ZNSt8_Rb_treeINSt7__cxx1112basic_stringIcSt11char_traitsIcESaIcEEESt4pairIKS5_S5_ESt10_Select1stIS8_ESt4lessIS5_ESaIS8_EE29_M_get_insert_hint_unique_posESt23_Rb_tree_const_iteratorIS8_ERS7_+0x238>
    872c:	48 8b 45 b8          	mov    -0x48(%rbp),%rax
    8730:	48 89 45 c0          	mov    %rax,-0x40(%rbp)
    8734:	48 8b 5d b8          	mov    -0x48(%rbp),%rbx
    8738:	48 8b 45 a8          	mov    -0x58(%rbp),%rax
    873c:	48 89 c7             	mov    %rax,%rdi
    873f:	e8 d8 12 00 00       	call   9a1c <_ZNSt8_Rb_treeINSt7__cxx1112basic_stringIcSt11char_traitsIcESaIcEEESt4pairIKS5_S5_ESt10_Select1stIS8_ESt4lessIS5_ESaIS8_EE11_M_leftmostEv>
    8744:	48 8b 00             	mov    (%rax),%rax
    8747:	48 39 c3             	cmp    %rax,%rbx
    874a:	0f 94 c0             	sete   %al
    874d:	84 c0                	test   %al,%al
    874f:	74 3d                	je     878e <_ZNSt8_Rb_treeINSt7__cxx1112basic_stringIcSt11char_traitsIcESaIcEEESt4pairIKS5_S5_ESt10_Select1stIS8_ESt4lessIS5_ESaIS8_EE29_M_get_insert_hint_unique_posESt23_Rb_tree_const_iteratorIS8_ERS7_+0x186>
    8751:	48 8b 45 a8          	mov    -0x58(%rbp),%rax
    8755:	48 89 c7             	mov    %rax,%rdi
    8758:	e8 bf 12 00 00       	call   9a1c <_ZNSt8_Rb_treeINSt7__cxx1112basic_stringIcSt11char_traitsIcESaIcEEESt4pairIKS5_S5_ESt10_Select1stIS8_ESt4lessIS5_ESaIS8_EE11_M_leftmostEv>
    875d:	48 89 c3             	mov    %rax,%rbx
    8760:	48 8b 45 a8          	mov    -0x58(%rbp),%rax
    8764:	48 89 c7             	mov    %rax,%rdi
    8767:	e8 b0 12 00 00       	call   9a1c <_ZNSt8_Rb_treeINSt7__cxx1112basic_stringIcSt11char_traitsIcESaIcEEESt4pairIKS5_S5_ESt10_Select1stIS8_ESt4lessIS5_ESaIS8_EE11_M_leftmostEv>
    876c:	48 89 c1             	mov    %rax,%rcx
    876f:	48 8d 45 d0          	lea    -0x30(%rbp),%rax
    8773:	48 89 da             	mov    %rbx,%rdx
    8776:	48 89 ce             	mov    %rcx,%rsi
    8779:	48 89 c7             	mov    %rax,%rdi
    877c:	e8 b1 12 00 00       	call   9a32 <_ZNSt4pairIPSt18_Rb_tree_node_baseS1_EC1IRS1_S4_Lb1EEEOT_OT0_>
    8781:	48 8b 45 d0          	mov    -0x30(%rbp),%rax
    8785:	48 8b 55 d8          	mov    -0x28(%rbp),%rdx
    8789:	e9 08 02 00 00       	jmp    8996 <_ZNSt8_Rb_treeINSt7__cxx1112basic_stringIcSt11char_traitsIcESaIcEEESt4pairIKS5_S5_ESt10_Select1stIS8_ESt4lessIS5_ESaIS8_EE29_M_get_insert_hint_unique_posESt23_Rb_tree_const_iteratorIS8_ERS7_+0x38e>
    878e:	48 8b 5d a8          	mov    -0x58(%rbp),%rbx
    8792:	48 8d 45 c0          	lea    -0x40(%rbp),%rax
    8796:	48 89 c7             	mov    %rax,%rdi
    8799:	e8 dc 12 00 00       	call   9a7a <_ZNSt17_Rb_tree_iteratorISt4pairIKNSt7__cxx1112basic_stringIcSt11char_traitsIcESaIcEEES6_EEmmEv>
    879e:	48 8b 00             	mov    (%rax),%rax
    87a1:	48 89 c7             	mov    %rax,%rdi
    87a4:	e8 e5 05 00 00       	call   8d8e <_ZNSt8_Rb_treeINSt7__cxx1112basic_stringIcSt11char_traitsIcESaIcEEESt4pairIKS5_S5_ESt10_Select1stIS8_ESt4lessIS5_ESaIS8_EE6_S_keyEPKSt18_Rb_tree_node_base>
    87a9:	48 89 c1             	mov    %rax,%rcx
    87ac:	48 8b 45 98          	mov    -0x68(%rbp),%rax
    87b0:	48 89 c2             	mov    %rax,%rdx
    87b3:	48 89 ce             	mov    %rcx,%rsi
    87b6:	48 89 df             	mov    %rbx,%rdi
    87b9:	e8 b2 e8 ff ff       	call   7070 <_ZNKSt4lessINSt7__cxx1112basic_stringIcSt11char_traitsIcESaIcEEEEclERKS5_S8_>
    87be:	84 c0                	test   %al,%al
    87c0:	74 66                	je     8828 <_ZNSt8_Rb_treeINSt7__cxx1112basic_stringIcSt11char_traitsIcESaIcEEESt4pairIKS5_S5_ESt10_Select1stIS8_ESt4lessIS5_ESaIS8_EE29_M_get_insert_hint_unique_posESt23_Rb_tree_const_iteratorIS8_ERS7_+0x220>
    87c2:	48 8b 45 c0          	mov    -0x40(%rbp),%rax
    87c6:	48 89 c7             	mov    %rax,%rdi
    87c9:	e8 a2 fb ff ff       	call   8370 <_ZNSt8_Rb_treeINSt7__cxx1112basic_stringIcSt11char_traitsIcESaIcEEESt4pairIKS5_S5_ESt10_Select1stIS8_ESt4lessIS5_ESaIS8_EE8_S_rightEPSt18_Rb_tree_node_base>
    87ce:	48 85 c0             	test   %rax,%rax
    87d1:	0f 94 c0             	sete   %al
    87d4:	84 c0                	test   %al,%al
    87d6:	74 2c                	je     8804 <_ZNSt8_Rb_treeINSt7__cxx1112basic_stringIcSt11char_traitsIcESaIcEEESt4pairIKS5_S5_ESt10_Select1stIS8_ESt4lessIS5_ESaIS8_EE29_M_get_insert_hint_unique_posESt23_Rb_tree_const_iteratorIS8_ERS7_+0x1fc>
    87d8:	48 c7 45 c8 00 00 00 	movq   $0x0,-0x38(%rbp)
    87df:	00 
    87e0:	48 8d 55 c0          	lea    -0x40(%rbp),%rdx
    87e4:	48 8d 4d c8          	lea    -0x38(%rbp),%rcx
    87e8:	48 8d 45 d0          	lea    -0x30(%rbp),%rax
    87ec:	48 89 ce             	mov    %rcx,%rsi
    87ef:	48 89 c7             	mov    %rax,%rdi
    87f2:	e8 55 10 00 00       	call   984c <_ZNSt4pairIPSt18_Rb_tree_node_baseS1_EC1IS1_S1_Lb1EEERKS1_S5_>
    87f7:	48 8b 45 d0          	mov    -0x30(%rbp),%rax
    87fb:	48 8b 55 d8          	mov    -0x28(%rbp),%rdx
    87ff:	e9 92 01 00 00       	jmp    8996 <_ZNSt8_Rb_treeINSt7__cxx1112basic_stringIcSt11char_traitsIcESaIcEEESt4pairIKS5_S5_ESt10_Select1stIS8_ESt4lessIS5_ESaIS8_EE29_M_get_insert_hint_unique_posESt23_Rb_tree_const_iteratorIS8_ERS7_+0x38e>
    8804:	48 8d 55 b8          	lea    -0x48(%rbp),%rdx
    8808:	48 8d 4d b8          	lea    -0x48(%rbp),%rcx
    880c:	48 8d 45 d0          	lea    -0x30(%rbp),%rax
    8810:	48 89 ce             	mov    %rcx,%rsi
    8813:	48 89 c7             	mov    %rax,%rdi
    8816:	e8 17 12 00 00       	call   9a32 <_ZNSt4pairIPSt18_Rb_tree_node_baseS1_EC1IRS1_S4_Lb1EEEOT_OT0_>
    881b:	48 8b 45 d0          	mov    -0x30(%rbp),%rax
    881f:	48 8b 55 d8          	mov    -0x28(%rbp),%rdx
    8823:	e9 6e 01 00 00       	jmp    8996 <_ZNSt8_Rb_treeINSt7__cxx1112basic_stringIcSt11char_traitsIcESaIcEEESt4pairIKS5_S5_ESt10_Select1stIS8_ESt4lessIS5_ESaIS8_EE29_M_get_insert_hint_unique_posESt23_Rb_tree_const_iteratorIS8_ERS7_+0x38e>
    8828:	48 8b 55 98          	mov    -0x68(%rbp),%rdx
    882c:	48 8b 45 a8          	mov    -0x58(%rbp),%rax
    8830:	48 89 d6             	mov    %rdx,%rsi
    8833:	48 89 c7             	mov    %rax,%rdi
    8836:	e8 45 10 00 00       	call   9880 <_ZNSt8_Rb_treeINSt7__cxx1112basic_stringIcSt11char_traitsIcESaIcEEESt4pairIKS5_S5_ESt10_Select1stIS8_ESt4lessIS5_ESaIS8_EE24_M_get_insert_unique_posERS7_>
    883b:	e9 56 01 00 00       	jmp    8996 <_ZNSt8_Rb_treeINSt7__cxx1112basic_stringIcSt11char_traitsIcESaIcEEESt4pairIKS5_S5_ESt10_Select1stIS8_ESt4lessIS5_ESaIS8_EE29_M_get_insert_hint_unique_posESt23_Rb_tree_const_iteratorIS8_ERS7_+0x38e>
    8840:	48 8b 5d a8          	mov    -0x58(%rbp),%rbx
    8844:	48 8b 45 b8          	mov    -0x48(%rbp),%rax
    8848:	48 89 c7             	mov    %rax,%rdi
    884b:	e8 3e 05 00 00       	call   8d8e <_ZNSt8_Rb_treeINSt7__cxx1112basic_stringIcSt11char_traitsIcESaIcEEESt4pairIKS5_S5_ESt10_Select1stIS8_ESt4lessIS5_ESaIS8_EE6_S_keyEPKSt18_Rb_tree_node_base>
    8850:	48 89 c1             	mov    %rax,%rcx
    8853:	48 8b 45 98          	mov    -0x68(%rbp),%rax
    8857:	48 89 c2             	mov    %rax,%rdx
    885a:	48 89 ce             	mov    %rcx,%rsi
    885d:	48 89 df             	mov    %rbx,%rdi
    8860:	e8 0b e8 ff ff       	call   7070 <_ZNKSt4lessINSt7__cxx1112basic_stringIcSt11char_traitsIcESaIcEEEEclERKS5_S8_>
    8865:	84 c0                	test   %al,%al
    8867:	0f 84 02 01 00 00    	je     896f <_ZNSt8_Rb_treeINSt7__cxx1112basic_stringIcSt11char_traitsIcESaIcEEESt4pairIKS5_S5_ESt10_Select1stIS8_ESt4lessIS5_ESaIS8_EE29_M_get_insert_hint_unique_posESt23_Rb_tree_const_iteratorIS8_ERS7_+0x367>
    886d:	48 8b 45 b8          	mov    -0x48(%rbp),%rax
    8871:	48 89 45 c0          	mov    %rax,-0x40(%rbp)
    8875:	48 8b 5d b8          	mov    -0x48(%rbp),%rbx
    8879:	48 8b 45 a8          	mov    -0x58(%rbp),%rax
    887d:	48 89 c7             	mov    %rax,%rdi
    8880:	e8 b1 0f 00 00       	call   9836 <_ZNSt8_Rb_treeINSt7__cxx1112basic_stringIcSt11char_traitsIcESaIcEEESt4pairIKS5_S5_ESt10_Select1stIS8_ESt4lessIS5_ESaIS8_EE12_M_rightmostEv>
    8885:	48 8b 00             	mov    (%rax),%rax
    8888:	48 39 c3             	cmp    %rax,%rbx
    888b:	0f 94 c0             	sete   %al
    888e:	84 c0                	test   %al,%al
    8890:	74 37                	je     88c9 <_ZNSt8_Rb_treeINSt7__cxx1112basic_stringIcSt11char_traitsIcESaIcEEESt4pairIKS5_S5_ESt10_Select1stIS8_ESt4lessIS5_ESaIS8_EE29_M_get_insert_hint_unique_posESt23_Rb_tree_const_iteratorIS8_ERS7_+0x2c1>
    8892:	48 8b 45 a8          	mov    -0x58(%rbp),%rax
    8896:	48 89 c7             	mov    %rax,%rdi
    8899:	e8 98 0f 00 00       	call   9836 <_ZNSt8_Rb_treeINSt7__cxx1112basic_stringIcSt11char_traitsIcESaIcEEESt4pairIKS5_S5_ESt10_Select1stIS8_ESt4lessIS5_ESaIS8_EE12_M_rightmostEv>
    889e:	48 89 c2             	mov    %rax,%rdx
    88a1:	48 c7 45 c8 00 00 00 	movq   $0x0,-0x38(%rbp)
    88a8:	00 
    88a9:	48 8d 4d c8          	lea    -0x38(%rbp),%rcx
    88ad:	48 8d 45 d0          	lea    -0x30(%rbp),%rax
    88b1:	48 89 ce             	mov    %rcx,%rsi
    88b4:	48 89 c7             	mov    %rax,%rdi
    88b7:	e8 90 0f 00 00       	call   984c <_ZNSt4pairIPSt18_Rb_tree_node_baseS1_EC1IS1_S1_Lb1EEERKS1_S5_>
    88bc:	48 8b 45 d0          	mov    -0x30(%rbp),%rax
    88c0:	48 8b 55 d8          	mov    -0x28(%rbp),%rdx
    88c4:	e9 cd 00 00 00       	jmp    8996 <_ZNSt8_Rb_treeINSt7__cxx1112basic_stringIcSt11char_traitsIcESaIcEEESt4pairIKS5_S5_ESt10_Select1stIS8_ESt4lessIS5_ESaIS8_EE29_M_get_insert_hint_unique_posESt23_Rb_tree_const_iteratorIS8_ERS7_+0x38e>
    88c9:	48 8b 5d a8          	mov    -0x58(%rbp),%rbx
    88cd:	48 8d 45 c0          	lea    -0x40(%rbp),%rax
    88d1:	48 89 c7             	mov    %rax,%rdi
    88d4:	e8 cd 11 00 00       	call   9aa6 <_ZNSt17_Rb_tree_iteratorISt4pairIKNSt7__cxx1112basic_stringIcSt11char_traitsIcESaIcEEES6_EEppEv>
    88d9:	48 8b 00             	mov    (%rax),%rax
    88dc:	48 89 c7             	mov    %rax,%rdi
    88df:	e8 aa 04 00 00       	call   8d8e <_ZNSt8_Rb_treeINSt7__cxx1112basic_stringIcSt11char_traitsIcESaIcEEESt4pairIKS5_S5_ESt10_Select1stIS8_ESt4lessIS5_ESaIS8_EE6_S_keyEPKSt18_Rb_tree_node_base>
    88e4:	48 89 c2             	mov    %rax,%rdx
    88e7:	48 8b 45 98          	mov    -0x68(%rbp),%rax
    88eb:	48 89 c6             	mov    %rax,%rsi
    88ee:	48 89 df             	mov    %rbx,%rdi
    88f1:	e8 7a e7 ff ff       	call   7070 <_ZNKSt4lessINSt7__cxx1112basic_stringIcSt11char_traitsIcESaIcEEEEclERKS5_S8_>
    88f6:	84 c0                	test   %al,%al
    88f8:	74 60                	je     895a <_ZNSt8_Rb_treeINSt7__cxx1112basic_stringIcSt11char_traitsIcESaIcEEESt4pairIKS5_S5_ESt10_Select1stIS8_ESt4lessIS5_ESaIS8_EE29_M_get_insert_hint_unique_posESt23_Rb_tree_const_iteratorIS8_ERS7_+0x352>
    88fa:	48 8b 45 b8          	mov    -0x48(%rbp),%rax
    88fe:	48 89 c7             	mov    %rax,%rdi
    8901:	e8 6a fa ff ff       	call   8370 <_ZNSt8_Rb_treeINSt7__cxx1112basic_stringIcSt11char_traitsIcESaIcEEESt4pairIKS5_S5_ESt10_Select1stIS8_ESt4lessIS5_ESaIS8_EE8_S_rightEPSt18_Rb_tree_node_base>
    8906:	48 85 c0             	test   %rax,%rax
    8909:	0f 94 c0             	sete   %al
    890c:	84 c0                	test   %al,%al
    890e:	74 29                	je     8939 <_ZNSt8_Rb_treeINSt7__cxx1112basic_stringIcSt11char_traitsIcESaIcEEESt4pairIKS5_S5_ESt10_Select1stIS8_ESt4lessIS5_ESaIS8_EE29_M_get_insert_hint_unique_posESt23_Rb_tree_const_iteratorIS8_ERS7_+0x331>
    8910:	48 c7 45 c8 00 00 00 	movq   $0x0,-0x38(%rbp)
    8917:	00 
    8918:	48 8d 55 b8          	lea    -0x48(%rbp),%rdx
    891c:	48 8d 4d c8          	lea    -0x38(%rbp),%rcx
    8920:	48 8d 45 d0          	lea    -0x30(%rbp),%rax
    8924:	48 89 ce             	mov    %rcx,%rsi
    8927:	48 89 c7             	mov    %rax,%rdi
    892a:	e8 1d 0f 00 00       	call   984c <_ZNSt4pairIPSt18_Rb_tree_node_baseS1_EC1IS1_S1_Lb1EEERKS1_S5_>
    892f:	48 8b 45 d0          	mov    -0x30(%rbp),%rax
    8933:	48 8b 55 d8          	mov    -0x28(%rbp),%rdx
    8937:	eb 5d                	jmp    8996 <_ZNSt8_Rb_treeINSt7__cxx1112basic_stringIcSt11char_traitsIcESaIcEEESt4pairIKS5_S5_ESt10_Select1stIS8_ESt4lessIS5_ESaIS8_EE29_M_get_insert_hint_unique_posESt23_Rb_tree_const_iteratorIS8_ERS7_+0x38e>
    8939:	48 8d 55 c0          	lea    -0x40(%rbp),%rdx
    893d:	48 8d 4d c0          	lea    -0x40(%rbp),%rcx
    8941:	48 8d 45 d0          	lea    -0x30(%rbp),%rax
    8945:	48 89 ce             	mov    %rcx,%rsi
    8948:	48 89 c7             	mov    %rax,%rdi
    894b:	e8 e2 10 00 00       	call   9a32 <_ZNSt4pairIPSt18_Rb_tree_node_baseS1_EC1IRS1_S4_Lb1EEEOT_OT0_>
    8950:	48 8b 45 d0          	mov    -0x30(%rbp),%rax
    8954:	48 8b 55 d8          	mov    -0x28(%rbp),%rdx
    8958:	eb 3c                	jmp    8996 <_ZNSt8_Rb_treeINSt7__cxx1112basic_stringIcSt11char_traitsIcESaIcEEESt4pairIKS5_S5_ESt10_Select1stIS8_ESt4lessIS5_ESaIS8_EE29_M_get_insert_hint_unique_posESt23_Rb_tree_const_iteratorIS8_ERS7_+0x38e>
    895a:	48 8b 55 98          	mov    -0x68(%rbp),%rdx
    895e:	48 8b 45 a8          	mov    -0x58(%rbp),%rax
    8962:	48 89 d6             	mov    %rdx,%rsi
    8965:	48 89 c7             	mov    %rax,%rdi
    8968:	e8 13 0f 00 00       	call   9880 <_ZNSt8_Rb_treeINSt7__cxx1112basic_stringIcSt11char_traitsIcESaIcEEESt4pairIKS5_S5_ESt10_Select1stIS8_ESt4lessIS5_ESaIS8_EE24_M_get_insert_unique_posERS7_>
    896d:	eb 27                	jmp    8996 <_ZNSt8_Rb_treeINSt7__cxx1112basic_stringIcSt11char_traitsIcESaIcEEESt4pairIKS5_S5_ESt10_Select1stIS8_ESt4lessIS5_ESaIS8_EE29_M_get_insert_hint_unique_posESt23_Rb_tree_const_iteratorIS8_ERS7_+0x38e>
    896f:	48 c7 45 c8 00 00 00 	movq   $0x0,-0x38(%rbp)
    8976:	00 
    8977:	48 8d 55 c8          	lea    -0x38(%rbp),%rdx
    897b:	48 8d 4d b8          	lea    -0x48(%rbp),%rcx
    897f:	48 8d 45 d0          	lea    -0x30(%rbp),%rax
    8983:	48 89 ce             	mov    %rcx,%rsi
    8986:	48 89 c7             	mov    %rax,%rdi
    8989:	e8 be 0e 00 00       	call   984c <_ZNSt4pairIPSt18_Rb_tree_node_baseS1_EC1IS1_S1_Lb1EEERKS1_S5_>
    898e:	48 8b 45 d0          	mov    -0x30(%rbp),%rax
    8992:	48 8b 55 d8          	mov    -0x28(%rbp),%rdx
    8996:	48 8b 4d e8          	mov    -0x18(%rbp),%rcx
    899a:	64 48 2b 0c 25 28 00 	sub    %fs:0x28,%rcx
    89a1:	00 00 
    89a3:	74 05                	je     89aa <_ZNSt8_Rb_treeINSt7__cxx1112basic_stringIcSt11char_traitsIcESaIcEEESt4pairIKS5_S5_ESt10_Select1stIS8_ESt4lessIS5_ESaIS8_EE29_M_get_insert_hint_unique_posESt23_Rb_tree_const_iteratorIS8_ERS7_+0x3a2>
    89a5:	e8 d6 ad ff ff       	call   3780 <_init+0x780>
    89aa:	48 8b 5d f8          	mov    -0x8(%rbp),%rbx
    89ae:	c9                   	leave  
    89af:	c3                   	ret    

00000000000089b0 <_ZNKSt8_Rb_treeINSt7__cxx1112basic_stringIcSt11char_traitsIcESaIcEEESt4pairIKS5_S5_ESt10_Select1stIS8_ESt4lessIS5_ESaIS8_EE10_Auto_node6_M_keyEv>:
    89b0:	f3 0f 1e fa          	endbr64 
    89b4:	55                   	push   %rbp
    89b5:	48 89 e5             	mov    %rsp,%rbp
    89b8:	48 83 ec 10          	sub    $0x10,%rsp
    89bc:	48 89 7d f8          	mov    %rdi,-0x8(%rbp)
    89c0:	48 8b 45 f8          	mov    -0x8(%rbp),%rax
    89c4:	48 8b 40 08          	mov    0x8(%rax),%rax
    89c8:	48 89 c7             	mov    %rax,%rdi
    89cb:	e8 02 11 00 00       	call   9ad2 <_ZNSt8_Rb_treeINSt7__cxx1112basic_stringIcSt11char_traitsIcESaIcEEESt4pairIKS5_S5_ESt10_Select1stIS8_ESt4lessIS5_ESaIS8_EE6_S_keyEPKSt13_Rb_tree_nodeIS8_E>
    89d0:	c9                   	leave  
    89d1:	c3                   	ret    

00000000000089d2 <_ZNSt8_Rb_treeINSt7__cxx1112basic_stringIcSt11char_traitsIcESaIcEEESt4pairIKS5_S5_ESt10_Select1stIS8_ESt4lessIS5_ESaIS8_EE10_Auto_node9_M_insertES6_IPSt18_Rb_tree_node_baseSH_E>:
    89d2:	f3 0f 1e fa          	endbr64 
    89d6:	55                   	push   %rbp
    89d7:	48 89 e5             	mov    %rsp,%rbp
    89da:	48 83 ec 30          	sub    $0x30,%rsp
    89de:	48 89 7d e8          	mov    %rdi,-0x18(%rbp)
    89e2:	48 89 d1             	mov    %rdx,%rcx
    89e5:	48 89 f0             	mov    %rsi,%rax
    89e8:	48 89 fa             	mov    %rdi,%rdx
    89eb:	48 89 ca             	mov    %rcx,%rdx
    89ee:	48 89 45 d0          	mov    %rax,-0x30(%rbp)
    89f2:	48 89 55 d8          	mov    %rdx,-0x28(%rbp)
    89f6:	64 48 8b 04 25 28 00 	mov    %fs:0x28,%rax
    89fd:	00 00 
    89ff:	48 89 45 f8          	mov    %rax,-0x8(%rbp)
    8a03:	31 c0                	xor    %eax,%eax
    8a05:	48 8b 45 e8          	mov    -0x18(%rbp),%rax
    8a09:	48 8b 00             	mov    (%rax),%rax
    8a0c:	48 8b 55 e8          	mov    -0x18(%rbp),%rdx
    8a10:	48 8b 4a 08          	mov    0x8(%rdx),%rcx
    8a14:	48 8b 55 d8          	mov    -0x28(%rbp),%rdx
    8a18:	48 8b 75 d0          	mov    -0x30(%rbp),%rsi
    8a1c:	48 89 c7             	mov    %rax,%rdi
    8a1f:	e8 02 11 00 00       	call   9b26 <_ZNSt8_Rb_treeINSt7__cxx1112basic_stringIcSt11char_traitsIcESaIcEEESt4pairIKS5_S5_ESt10_Select1stIS8_ESt4lessIS5_ESaIS8_EE14_M_insert_nodeEPSt18_Rb_tree_node_baseSG_PSt13_Rb_tree_nodeIS8_E>
    8a24:	48 89 45 f0          	mov    %rax,-0x10(%rbp)
    8a28:	48 8b 45 e8          	mov    -0x18(%rbp),%rax
    8a2c:	48 c7 40 08 00 00 00 	movq   $0x0,0x8(%rax)
    8a33:	00 
    8a34:	48 8b 45 f0          	mov    -0x10(%rbp),%rax
    8a38:	48 8b 55 f8          	mov    -0x8(%rbp),%rdx
    8a3c:	64 48 2b 14 25 28 00 	sub    %fs:0x28,%rdx
    8a43:	00 00 
    8a45:	74 05                	je     8a4c <_ZNSt8_Rb_treeINSt7__cxx1112basic_stringIcSt11char_traitsIcESaIcEEESt4pairIKS5_S5_ESt10_Select1stIS8_ESt4lessIS5_ESaIS8_EE10_Auto_node9_M_insertES6_IPSt18_Rb_tree_node_baseSH_E+0x7a>
    8a47:	e8 34 ad ff ff       	call   3780 <_init+0x780>
    8a4c:	c9                   	leave  
    8a4d:	c3                   	ret    

0000000000008a4e <_ZNSt17_Rb_tree_iteratorISt4pairIKNSt7__cxx1112basic_stringIcSt11char_traitsIcESaIcEEES6_EEC1EPSt18_Rb_tree_node_base>:
    8a4e:	f3 0f 1e fa          	endbr64 
    8a52:	55                   	push   %rbp
    8a53:	48 89 e5             	mov    %rsp,%rbp
    8a56:	48 89 7d f8          	mov    %rdi,-0x8(%rbp)
    8a5a:	48 89 75 f0          	mov    %rsi,-0x10(%rbp)
    8a5e:	48 8b 45 f8          	mov    -0x8(%rbp),%rax
    8a62:	48 8b 55 f0          	mov    -0x10(%rbp),%rdx
    8a66:	48 89 10             	mov    %rdx,(%rax)
    8a69:	90                   	nop
    8a6a:	5d                   	pop    %rbp
    8a6b:	c3                   	ret    

0000000000008a6c <_ZSt7forwardIRKSt3mapINSt7__cxx1112basic_stringIcSt11char_traitsIcESaIcEEES6_St4lessIS6_ESaISt4pairIKS6_S6_EEEEOT_RNSt16remove_referenceISG_E4typeE>:
    8a6c:	f3 0f 1e fa          	endbr64 
    8a70:	55                   	push   %rbp
    8a71:	48 89 e5             	mov    %rsp,%rbp
    8a74:	48 89 7d f8          	mov    %rdi,-0x8(%rbp)
    8a78:	48 8b 45 f8          	mov    -0x8(%rbp),%rax
    8a7c:	5d                   	pop    %rbp
    8a7d:	c3                   	ret    

0000000000008a7e <_ZNSt3mapINSt7__cxx1112basic_stringIcSt11char_traitsIcESaIcEEES5_St4lessIS5_ESaISt4pairIKS5_S5_EEEC1ERKSC_>:
    8a7e:	f3 0f 1e fa          	endbr64 
    8a82:	55                   	push   %rbp
    8a83:	48 89 e5             	mov    %rsp,%rbp
    8a86:	48 83 ec 10          	sub    $0x10,%rsp
    8a8a:	48 89 7d f8          	mov    %rdi,-0x8(%rbp)
    8a8e:	48 89 75 f0          	mov    %rsi,-0x10(%rbp)
    8a92:	48 8b 45 f8          	mov    -0x8(%rbp),%rax
    8a96:	48 8b 55 f0          	mov    -0x10(%rbp),%rdx
    8a9a:	48 89 d6             	mov    %rdx,%rsi
    8a9d:	48 89 c7             	mov    %rax,%rdi
    8aa0:	e8 6b 11 00 00       	call   9c10 <_ZNSt8_Rb_treeINSt7__cxx1112basic_stringIcSt11char_traitsIcESaIcEEESt4pairIKS5_S5_ESt10_Select1stIS8_ESt4lessIS5_ESaIS8_EEC1ERKSE_>
    8aa5:	90                   	nop
    8aa6:	c9                   	leave  
    8aa7:	c3                   	ret    

0000000000008aa8 <_ZNKSt6vectorISt3mapINSt7__cxx1112basic_stringIcSt11char_traitsIcESaIcEEES6_St4lessIS6_ESaISt4pairIKS6_S6_EEESaISD_EE12_M_check_lenEmPKc>:
    8aa8:	f3 0f 1e fa          	endbr64 
    8aac:	55                   	push   %rbp
    8aad:	48 89 e5             	mov    %rsp,%rbp
    8ab0:	53                   	push   %rbx
    8ab1:	48 83 ec 48          	sub    $0x48,%rsp
    8ab5:	48 89 7d c8          	mov    %rdi,-0x38(%rbp)
    8ab9:	48 89 75 c0          	mov    %rsi,-0x40(%rbp)
    8abd:	48 89 55 b8          	mov    %rdx,-0x48(%rbp)
    8ac1:	64 48 8b 04 25 28 00 	mov    %fs:0x28,%rax
    8ac8:	00 00 
    8aca:	48 89 45 e8          	mov    %rax,-0x18(%rbp)
    8ace:	31 c0                	xor    %eax,%eax
    8ad0:	48 8b 45 c8          	mov    -0x38(%rbp),%rax
    8ad4:	48 89 c7             	mov    %rax,%rdi
    8ad7:	e8 be 11 00 00       	call   9c9a <_ZNKSt6vectorISt3mapINSt7__cxx1112basic_stringIcSt11char_traitsIcESaIcEEES6_St4lessIS6_ESaISt4pairIKS6_S6_EEESaISD_EE8max_sizeEv>
    8adc:	48 89 c3             	mov    %rax,%rbx
    8adf:	48 8b 45 c8          	mov    -0x38(%rbp),%rax
    8ae3:	48 89 c7             	mov    %rax,%rdi
    8ae6:	e8 d5 11 00 00       	call   9cc0 <_ZNKSt6vectorISt3mapINSt7__cxx1112basic_stringIcSt11char_traitsIcESaIcEEES6_St4lessIS6_ESaISt4pairIKS6_S6_EEESaISD_EE4sizeEv>
    8aeb:	48 29 c3             	sub    %rax,%rbx
    8aee:	48 89 da             	mov    %rbx,%rdx
    8af1:	48 8b 45 c0          	mov    -0x40(%rbp),%rax
    8af5:	48 39 c2             	cmp    %rax,%rdx
    8af8:	0f 92 c0             	setb   %al
    8afb:	84 c0                	test   %al,%al
    8afd:	74 20                	je     8b1f <_ZNKSt6vectorISt3mapINSt7__cxx1112basic_stringIcSt11char_traitsIcESaIcEEES6_St4lessIS6_ESaISt4pairIKS6_S6_EEESaISD_EE12_M_check_lenEmPKc+0x77>
    8aff:	48 8b 45 e8          	mov    -0x18(%rbp),%rax
    8b03:	64 48 2b 04 25 28 00 	sub    %fs:0x28,%rax
    8b0a:	00 00 
    8b0c:	74 05                	je     8b13 <_ZNKSt6vectorISt3mapINSt7__cxx1112basic_stringIcSt11char_traitsIcESaIcEEES6_St4lessIS6_ESaISt4pairIKS6_S6_EEESaISD_EE12_M_check_lenEmPKc+0x6b>
    8b0e:	e8 6d ac ff ff       	call   3780 <_init+0x780>
    8b13:	48 8b 45 b8          	mov    -0x48(%rbp),%rax
    8b17:	48 89 c7             	mov    %rax,%rdi
    8b1a:	e8 b1 aa ff ff       	call   35d0 <_init+0x5d0>
    8b1f:	48 8b 45 c8          	mov    -0x38(%rbp),%rax
    8b23:	48 89 c7             	mov    %rax,%rdi
    8b26:	e8 95 11 00 00       	call   9cc0 <_ZNKSt6vectorISt3mapINSt7__cxx1112basic_stringIcSt11char_traitsIcESaIcEEES6_St4lessIS6_ESaISt4pairIKS6_S6_EEESaISD_EE4sizeEv>
    8b2b:	48 89 c3             	mov    %rax,%rbx
    8b2e:	48 8b 45 c8          	mov    -0x38(%rbp),%rax
    8b32:	48 89 c7             	mov    %rax,%rdi
    8b35:	e8 86 11 00 00       	call   9cc0 <_ZNKSt6vectorISt3mapINSt7__cxx1112basic_stringIcSt11char_traitsIcESaIcEEES6_St4lessIS6_ESaISt4pairIKS6_S6_EEESaISD_EE4sizeEv>
    8b3a:	48 89 45 d8          	mov    %rax,-0x28(%rbp)
    8b3e:	48 8d 55 c0          	lea    -0x40(%rbp),%rdx
    8b42:	48 8d 45 d8          	lea    -0x28(%rbp),%rax
    8b46:	48 89 d6             	mov    %rdx,%rsi
    8b49:	48 89 c7             	mov    %rax,%rdi
    8b4c:	e8 a1 11 00 00       	call   9cf2 <_ZSt3maxImERKT_S2_S2_>
    8b51:	48 8b 00             	mov    (%rax),%rax
    8b54:	48 01 d8             	add    %rbx,%rax
    8b57:	48 89 45 e0          	mov    %rax,-0x20(%rbp)
    8b5b:	48 8b 45 c8          	mov    -0x38(%rbp),%rax
    8b5f:	48 89 c7             	mov    %rax,%rdi
    8b62:	e8 59 11 00 00       	call   9cc0 <_ZNKSt6vectorISt3mapINSt7__cxx1112basic_stringIcSt11char_traitsIcESaIcEEES6_St4lessIS6_ESaISt4pairIKS6_S6_EEESaISD_EE4sizeEv>
    8b67:	48 39 45 e0          	cmp    %rax,-0x20(%rbp)
    8b6b:	72 12                	jb     8b7f <_ZNKSt6vectorISt3mapINSt7__cxx1112basic_stringIcSt11char_traitsIcESaIcEEES6_St4lessIS6_ESaISt4pairIKS6_S6_EEESaISD_EE12_M_check_lenEmPKc+0xd7>
    8b6d:	48 8b 45 c8          	mov    -0x38(%rbp),%rax
    8b71:	48 89 c7             	mov    %rax,%rdi
    8b74:	e8 21 11 00 00       	call   9c9a <_ZNKSt6vectorISt3mapINSt7__cxx1112basic_stringIcSt11char_traitsIcESaIcEEES6_St4lessIS6_ESaISt4pairIKS6_S6_EEESaISD_EE8max_sizeEv>
    8b79:	48 3b 45 e0          	cmp    -0x20(%rbp),%rax
    8b7d:	73 0e                	jae    8b8d <_ZNKSt6vectorISt3mapINSt7__cxx1112basic_stringIcSt11char_traitsIcESaIcEEES6_St4lessIS6_ESaISt4pairIKS6_S6_EEESaISD_EE12_M_check_lenEmPKc+0xe5>
    8b7f:	48 8b 45 c8          	mov    -0x38(%rbp),%rax
    8b83:	48 89 c7             	mov    %rax,%rdi
    8b86:	e8 0f 11 00 00       	call   9c9a <_ZNKSt6vectorISt3mapINSt7__cxx1112basic_stringIcSt11char_traitsIcESaIcEEES6_St4lessIS6_ESaISt4pairIKS6_S6_EEESaISD_EE8max_sizeEv>
    8b8b:	eb 04                	jmp    8b91 <_ZNKSt6vectorISt3mapINSt7__cxx1112basic_stringIcSt11char_traitsIcESaIcEEES6_St4lessIS6_ESaISt4pairIKS6_S6_EEESaISD_EE12_M_check_lenEmPKc+0xe9>
    8b8d:	48 8b 45 e0          	mov    -0x20(%rbp),%rax
    8b91:	48 8b 55 e8          	mov    -0x18(%rbp),%rdx
    8b95:	64 48 2b 14 25 28 00 	sub    %fs:0x28,%rdx
    8b9c:	00 00 
    8b9e:	74 05                	je     8ba5 <_ZNKSt6vectorISt3mapINSt7__cxx1112basic_stringIcSt11char_traitsIcESaIcEEES6_St4lessIS6_ESaISt4pairIKS6_S6_EEESaISD_EE12_M_check_lenEmPKc+0xfd>
    8ba0:	e8 db ab ff ff       	call   3780 <_init+0x780>
    8ba5:	48 8b 5d f8          	mov    -0x8(%rbp),%rbx
    8ba9:	c9                   	leave  
    8baa:	c3                   	ret    

0000000000008bab <_ZN9__gnu_cxxmiIPSt3mapINSt7__cxx1112basic_stringIcSt11char_traitsIcESaIcEEES7_St4lessIS7_ESaISt4pairIKS7_S7_EEESt6vectorISE_SaISE_EEEENS_17__normal_iteratorIT_T0_E15difference_typeERKSM_SP_>:
    8bab:	f3 0f 1e fa          	endbr64 
    8baf:	55                   	push   %rbp
    8bb0:	48 89 e5             	mov    %rsp,%rbp
    8bb3:	53                   	push   %rbx
    8bb4:	48 83 ec 18          	sub    $0x18,%rsp
    8bb8:	48 89 7d e8          	mov    %rdi,-0x18(%rbp)
    8bbc:	48 89 75 e0          	mov    %rsi,-0x20(%rbp)
    8bc0:	48 8b 45 e8          	mov    -0x18(%rbp),%rax
    8bc4:	48 89 c7             	mov    %rax,%rdi
    8bc7:	e8 68 f7 ff ff       	call   8334 <_ZNK9__gnu_cxx17__normal_iteratorIPSt3mapINSt7__cxx1112basic_stringIcSt11char_traitsIcESaIcEEES7_St4lessIS7_ESaISt4pairIKS7_S7_EEESt6vectorISE_SaISE_EEE4baseEv>
    8bcc:	48 8b 18             	mov    (%rax),%rbx
    8bcf:	48 8b 45 e0          	mov    -0x20(%rbp),%rax
    8bd3:	48 89 c7             	mov    %rax,%rdi
    8bd6:	e8 59 f7 ff ff       	call   8334 <_ZNK9__gnu_cxx17__normal_iteratorIPSt3mapINSt7__cxx1112basic_stringIcSt11char_traitsIcESaIcEEES7_St4lessIS7_ESaISt4pairIKS7_S7_EEESt6vectorISE_SaISE_EEE4baseEv>
    8bdb:	48 8b 00             	mov    (%rax),%rax
    8bde:	48 29 c3             	sub    %rax,%rbx
    8be1:	48 89 da             	mov    %rbx,%rdx
    8be4:	48 c1 fa 04          	sar    $0x4,%rdx
    8be8:	48 b8 ab aa aa aa aa 	movabs $0xaaaaaaaaaaaaaaab,%rax
    8bef:	aa aa aa 
    8bf2:	48 0f af c2          	imul   %rdx,%rax
    8bf6:	48 8b 5d f8          	mov    -0x8(%rbp),%rbx
    8bfa:	c9                   	leave  
    8bfb:	c3                   	ret    

0000000000008bfc <_ZNSt12_Vector_baseISt3mapINSt7__cxx1112basic_stringIcSt11char_traitsIcESaIcEEES6_St4lessIS6_ESaISt4pairIKS6_S6_EEESaISD_EE11_M_allocateEm>:
    8bfc:	f3 0f 1e fa          	endbr64 
    8c00:	55                   	push   %rbp
    8c01:	48 89 e5             	mov    %rsp,%rbp
    8c04:	48 83 ec 20          	sub    $0x20,%rsp
    8c08:	48 89 7d e8          	mov    %rdi,-0x18(%rbp)
    8c0c:	48 89 75 e0          	mov    %rsi,-0x20(%rbp)
    8c10:	48 83 7d e0 00       	cmpq   $0x0,-0x20(%rbp)
    8c15:	74 2b                	je     8c42 <_ZNSt12_Vector_baseISt3mapINSt7__cxx1112basic_stringIcSt11char_traitsIcESaIcEEES6_St4lessIS6_ESaISt4pairIKS6_S6_EEESaISD_EE11_M_allocateEm+0x46>
    8c17:	48 8b 45 e8          	mov    -0x18(%rbp),%rax
    8c1b:	48 89 45 f0          	mov    %rax,-0x10(%rbp)
    8c1f:	48 8b 45 e0          	mov    -0x20(%rbp),%rax
    8c23:	48 89 45 f8          	mov    %rax,-0x8(%rbp)
    8c27:	48 8b 4d f8          	mov    -0x8(%rbp),%rcx
    8c2b:	48 8b 45 f0          	mov    -0x10(%rbp),%rax
    8c2f:	ba 00 00 00 00       	mov    $0x0,%edx
    8c34:	48 89 ce             	mov    %rcx,%rsi
    8c37:	48 89 c7             	mov    %rax,%rdi
    8c3a:	e8 39 1d 00 00       	call   a978 <_ZNSt15__new_allocatorISt3mapINSt7__cxx1112basic_stringIcSt11char_traitsIcESaIcEEES6_St4lessIS6_ESaISt4pairIKS6_S6_EEEE8allocateEmPKv>
    8c3f:	90                   	nop
    8c40:	eb 05                	jmp    8c47 <_ZNSt12_Vector_baseISt3mapINSt7__cxx1112basic_stringIcSt11char_traitsIcESaIcEEES6_St4lessIS6_ESaISt4pairIKS6_S6_EEESaISD_EE11_M_allocateEm+0x4b>
    8c42:	b8 00 00 00 00       	mov    $0x0,%eax
    8c47:	c9                   	leave  
    8c48:	c3                   	ret    

0000000000008c49 <_ZNSt6vectorISt3mapINSt7__cxx1112basic_stringIcSt11char_traitsIcESaIcEEES6_St4lessIS6_ESaISt4pairIKS6_S6_EEESaISD_EE11_S_relocateEPSD_SG_SG_RSE_>:
    8c49:	f3 0f 1e fa          	endbr64 
    8c4d:	55                   	push   %rbp
    8c4e:	48 89 e5             	mov    %rsp,%rbp
    8c51:	48 83 ec 20          	sub    $0x20,%rsp
    8c55:	48 89 7d f8          	mov    %rdi,-0x8(%rbp)
    8c59:	48 89 75 f0          	mov    %rsi,-0x10(%rbp)
    8c5d:	48 89 55 e8          	mov    %rdx,-0x18(%rbp)
    8c61:	48 89 4d e0          	mov    %rcx,-0x20(%rbp)
    8c65:	48 8b 4d e0          	mov    -0x20(%rbp),%rcx
    8c69:	48 8b 55 e8          	mov    -0x18(%rbp),%rdx
    8c6d:	48 8b 75 f0          	mov    -0x10(%rbp),%rsi
    8c71:	48 8b 45 f8          	mov    -0x8(%rbp),%rax
    8c75:	48 89 c7             	mov    %rax,%rdi
    8c78:	e8 a4 10 00 00       	call   9d21 <_ZSt12__relocate_aIPSt3mapINSt7__cxx1112basic_stringIcSt11char_traitsIcESaIcEEES6_St4lessIS6_ESaISt4pairIKS6_S6_EEESE_SaISD_EET0_T_SH_SG_RT1_>
    8c7d:	c9                   	leave  
    8c7e:	c3                   	ret    
    8c7f:	90                   	nop

0000000000008c80 <_ZNKSt8_Rb_treeINSt7__cxx1112basic_stringIcSt11char_traitsIcESaIcEEESt4pairIKS5_S5_ESt10_Select1stIS8_ESt4lessIS5_ESaIS8_EE8_M_beginEv>:
    8c80:	f3 0f 1e fa          	endbr64 
    8c84:	55                   	push   %rbp
    8c85:	48 89 e5             	mov    %rsp,%rbp
    8c88:	48 89 7d f8          	mov    %rdi,-0x8(%rbp)
    8c8c:	48 8b 45 f8          	mov    -0x8(%rbp),%rax
    8c90:	48 8b 40 10          	mov    0x10(%rax),%rax
    8c94:	5d                   	pop    %rbp
    8c95:	c3                   	ret    

0000000000008c96 <_ZNKSt8_Rb_treeINSt7__cxx1112basic_stringIcSt11char_traitsIcESaIcEEESt4pairIKS5_S5_ESt10_Select1stIS8_ESt4lessIS5_ESaIS8_EE6_M_endEv>:
    8c96:	f3 0f 1e fa          	endbr64 
    8c9a:	55                   	push   %rbp
    8c9b:	48 89 e5             	mov    %rsp,%rbp
    8c9e:	48 89 7d f8          	mov    %rdi,-0x8(%rbp)
    8ca2:	48 8b 45 f8          	mov    -0x8(%rbp),%rax
    8ca6:	48 83 c0 08          	add    $0x8,%rax
    8caa:	5d                   	pop    %rbp
    8cab:	c3                   	ret    

0000000000008cac <_ZNKSt8_Rb_treeINSt7__cxx1112basic_stringIcSt11char_traitsIcESaIcEEESt4pairIKS5_S5_ESt10_Select1stIS8_ESt4lessIS5_ESaIS8_EE14_M_lower_boundEPKSt13_Rb_tree_nodeIS8_EPKSt18_Rb_tree_node_baseRS7_>:
    8cac:	f3 0f 1e fa          	endbr64 
    8cb0:	55                   	push   %rbp
    8cb1:	48 89 e5             	mov    %rsp,%rbp
    8cb4:	53                   	push   %rbx
    8cb5:	48 83 ec 38          	sub    $0x38,%rsp
    8cb9:	48 89 7d d8          	mov    %rdi,-0x28(%rbp)
    8cbd:	48 89 75 d0          	mov    %rsi,-0x30(%rbp)
    8cc1:	48 89 55 c8          	mov    %rdx,-0x38(%rbp)
    8cc5:	48 89 4d c0          	mov    %rcx,-0x40(%rbp)
    8cc9:	64 48 8b 04 25 28 00 	mov    %fs:0x28,%rax
    8cd0:	00 00 
    8cd2:	48 89 45 e8          	mov    %rax,-0x18(%rbp)
    8cd6:	31 c0                	xor    %eax,%eax
    8cd8:	eb 56                	jmp    8d30 <_ZNKSt8_Rb_treeINSt7__cxx1112basic_stringIcSt11char_traitsIcESaIcEEESt4pairIKS5_S5_ESt10_Select1stIS8_ESt4lessIS5_ESaIS8_EE14_M_lower_boundEPKSt13_Rb_tree_nodeIS8_EPKSt18_Rb_tree_node_baseRS7_+0x84>
    8cda:	48 8b 5d d8          	mov    -0x28(%rbp),%rbx
    8cde:	48 8b 45 d0          	mov    -0x30(%rbp),%rax
    8ce2:	48 89 c7             	mov    %rax,%rdi
    8ce5:	e8 e8 0d 00 00       	call   9ad2 <_ZNSt8_Rb_treeINSt7__cxx1112basic_stringIcSt11char_traitsIcESaIcEEESt4pairIKS5_S5_ESt10_Select1stIS8_ESt4lessIS5_ESaIS8_EE6_S_keyEPKSt13_Rb_tree_nodeIS8_E>
    8cea:	48 89 c1             	mov    %rax,%rcx
    8ced:	48 8b 45 c0          	mov    -0x40(%rbp),%rax
    8cf1:	48 89 c2             	mov    %rax,%rdx
    8cf4:	48 89 ce             	mov    %rcx,%rsi
    8cf7:	48 89 df             	mov    %rbx,%rdi
    8cfa:	e8 71 e3 ff ff       	call   7070 <_ZNKSt4lessINSt7__cxx1112basic_stringIcSt11char_traitsIcESaIcEEEEclERKS5_S8_>
    8cff:	83 f0 01             	xor    $0x1,%eax
    8d02:	84 c0                	test   %al,%al
    8d04:	74 1a                	je     8d20 <_ZNKSt8_Rb_treeINSt7__cxx1112basic_stringIcSt11char_traitsIcESaIcEEESt4pairIKS5_S5_ESt10_Select1stIS8_ESt4lessIS5_ESaIS8_EE14_M_lower_boundEPKSt13_Rb_tree_nodeIS8_EPKSt18_Rb_tree_node_baseRS7_+0x74>
    8d06:	48 8b 45 d0          	mov    -0x30(%rbp),%rax
    8d0a:	48 89 45 c8          	mov    %rax,-0x38(%rbp)
    8d0e:	48 8b 45 d0          	mov    -0x30(%rbp),%rax
    8d12:	48 89 c7             	mov    %rax,%rdi
    8d15:	e8 6e 10 00 00       	call   9d88 <_ZNSt8_Rb_treeINSt7__cxx1112basic_stringIcSt11char_traitsIcESaIcEEESt4pairIKS5_S5_ESt10_Select1stIS8_ESt4lessIS5_ESaIS8_EE7_S_leftEPKSt18_Rb_tree_node_base>
    8d1a:	48 89 45 d0          	mov    %rax,-0x30(%rbp)
    8d1e:	eb 10                	jmp    8d30 <_ZNKSt8_Rb_treeINSt7__cxx1112basic_stringIcSt11char_traitsIcESaIcEEESt4pairIKS5_S5_ESt10_Select1stIS8_ESt4lessIS5_ESaIS8_EE14_M_lower_boundEPKSt13_Rb_tree_nodeIS8_EPKSt18_Rb_tree_node_baseRS7_+0x84>
    8d20:	48 8b 45 d0          	mov    -0x30(%rbp),%rax
    8d24:	48 89 c7             	mov    %rax,%rdi
    8d27:	e8 72 10 00 00       	call   9d9e <_ZNSt8_Rb_treeINSt7__cxx1112basic_stringIcSt11char_traitsIcESaIcEEESt4pairIKS5_S5_ESt10_Select1stIS8_ESt4lessIS5_ESaIS8_EE8_S_rightEPKSt18_Rb_tree_node_base>
    8d2c:	48 89 45 d0          	mov    %rax,-0x30(%rbp)
    8d30:	48 83 7d d0 00       	cmpq   $0x0,-0x30(%rbp)
    8d35:	75 a3                	jne    8cda <_ZNKSt8_Rb_treeINSt7__cxx1112basic_stringIcSt11char_traitsIcESaIcEEESt4pairIKS5_S5_ESt10_Select1stIS8_ESt4lessIS5_ESaIS8_EE14_M_lower_boundEPKSt13_Rb_tree_nodeIS8_EPKSt18_Rb_tree_node_baseRS7_+0x2e>
    8d37:	48 8b 55 c8          	mov    -0x38(%rbp),%rdx
    8d3b:	48 8d 45 e0          	lea    -0x20(%rbp),%rax
    8d3f:	48 89 d6             	mov    %rdx,%rsi
    8d42:	48 89 c7             	mov    %rax,%rdi
    8d45:	e8 62 00 00 00       	call   8dac <_ZNSt23_Rb_tree_const_iteratorISt4pairIKNSt7__cxx1112basic_stringIcSt11char_traitsIcESaIcEEES6_EEC1EPKSt18_Rb_tree_node_base>
    8d4a:	48 8b 45 e0          	mov    -0x20(%rbp),%rax
    8d4e:	48 8b 55 e8          	mov    -0x18(%rbp),%rdx
    8d52:	64 48 2b 14 25 28 00 	sub    %fs:0x28,%rdx
    8d59:	00 00 
    8d5b:	74 05                	je     8d62 <_ZNKSt8_Rb_treeINSt7__cxx1112basic_stringIcSt11char_traitsIcESaIcEEESt4pairIKS5_S5_ESt10_Select1stIS8_ESt4lessIS5_ESaIS8_EE14_M_lower_boundEPKSt13_Rb_tree_nodeIS8_EPKSt18_Rb_tree_node_baseRS7_+0xb6>
    8d5d:	e8 1e aa ff ff       	call   3780 <_init+0x780>
    8d62:	48 8b 5d f8          	mov    -0x8(%rbp),%rbx
    8d66:	c9                   	leave  
    8d67:	c3                   	ret    

0000000000008d68 <_ZSteqRKSt23_Rb_tree_const_iteratorISt4pairIKNSt7__cxx1112basic_stringIcSt11char_traitsIcESaIcEEES6_EESB_>:
    8d68:	f3 0f 1e fa          	endbr64 
    8d6c:	55                   	push   %rbp
    8d6d:	48 89 e5             	mov    %rsp,%rbp
    8d70:	48 89 7d f8          	mov    %rdi,-0x8(%rbp)
    8d74:	48 89 75 f0          	mov    %rsi,-0x10(%rbp)
    8d78:	48 8b 45 f8          	mov    -0x8(%rbp),%rax
    8d7c:	48 8b 10             	mov    (%rax),%rdx
    8d7f:	48 8b 45 f0          	mov    -0x10(%rbp),%rax
    8d83:	48 8b 00             	mov    (%rax),%rax
    8d86:	48 39 c2             	cmp    %rax,%rdx
    8d89:	0f 94 c0             	sete   %al
    8d8c:	5d                   	pop    %rbp
    8d8d:	c3                   	ret    

0000000000008d8e <_ZNSt8_Rb_treeINSt7__cxx1112basic_stringIcSt11char_traitsIcESaIcEEESt4pairIKS5_S5_ESt10_Select1stIS8_ESt4lessIS5_ESaIS8_EE6_S_keyEPKSt18_Rb_tree_node_base>:
    8d8e:	f3 0f 1e fa          	endbr64 
    8d92:	55                   	push   %rbp
    8d93:	48 89 e5             	mov    %rsp,%rbp
    8d96:	48 83 ec 10          	sub    $0x10,%rsp
    8d9a:	48 89 7d f8          	mov    %rdi,-0x8(%rbp)
    8d9e:	48 8b 45 f8          	mov    -0x8(%rbp),%rax
    8da2:	48 89 c7             	mov    %rax,%rdi
    8da5:	e8 28 0d 00 00       	call   9ad2 <_ZNSt8_Rb_treeINSt7__cxx1112basic_stringIcSt11char_traitsIcESaIcEEESt4pairIKS5_S5_ESt10_Select1stIS8_ESt4lessIS5_ESaIS8_EE6_S_keyEPKSt13_Rb_tree_nodeIS8_E>
    8daa:	c9                   	leave  
    8dab:	c3                   	ret    

0000000000008dac <_ZNSt23_Rb_tree_const_iteratorISt4pairIKNSt7__cxx1112basic_stringIcSt11char_traitsIcESaIcEEES6_EEC1EPKSt18_Rb_tree_node_base>:
    8dac:	f3 0f 1e fa          	endbr64 
    8db0:	55                   	push   %rbp
    8db1:	48 89 e5             	mov    %rsp,%rbp
    8db4:	48 89 7d f8          	mov    %rdi,-0x8(%rbp)
    8db8:	48 89 75 f0          	mov    %rsi,-0x10(%rbp)
    8dbc:	48 8b 45 f8          	mov    -0x8(%rbp),%rax
    8dc0:	48 8b 55 f0          	mov    -0x10(%rbp),%rdx
    8dc4:	48 89 10             	mov    %rdx,(%rax)
    8dc7:	90                   	nop
    8dc8:	5d                   	pop    %rbp
    8dc9:	c3                   	ret    

0000000000008dca <_ZNK9__gnu_cxx16__aligned_membufISt4pairIKNSt7__cxx1112basic_stringIcSt11char_traitsIcESaIcEEES7_EE6_M_ptrEv>:
    8dca:	f3 0f 1e fa          	endbr64 
    8dce:	55                   	push   %rbp
    8dcf:	48 89 e5             	mov    %rsp,%rbp
    8dd2:	48 83 ec 10          	sub    $0x10,%rsp
    8dd6:	48 89 7d f8          	mov    %rdi,-0x8(%rbp)
    8dda:	48 8b 45 f8          	mov    -0x8(%rbp),%rax
    8dde:	48 89 c7             	mov    %rax,%rdi
    8de1:	e8 ce 0f 00 00       	call   9db4 <_ZNK9__gnu_cxx16__aligned_membufISt4pairIKNSt7__cxx1112basic_stringIcSt11char_traitsIcESaIcEEES7_EE7_M_addrEv>
    8de6:	c9                   	leave  
    8de7:	c3                   	ret    

0000000000008de8 <_ZNSt12_Vector_baseINSt7__cxx1112basic_stringIcSt11char_traitsIcESaIcEEESaIS5_EE12_Vector_implC1ERKS6_>:
    8de8:	f3 0f 1e fa          	endbr64 
    8dec:	55                   	push   %rbp
    8ded:	48 89 e5             	mov    %rsp,%rbp
    8df0:	48 83 ec 30          	sub    $0x30,%rsp
    8df4:	48 89 7d d8          	mov    %rdi,-0x28(%rbp)
    8df8:	48 89 75 d0          	mov    %rsi,-0x30(%rbp)
    8dfc:	48 8b 45 d8          	mov    -0x28(%rbp),%rax
    8e00:	48 89 45 e0          	mov    %rax,-0x20(%rbp)
    8e04:	48 8b 45 d0          	mov    -0x30(%rbp),%rax
    8e08:	48 89 45 e8          	mov    %rax,-0x18(%rbp)
    8e0c:	48 8b 45 e0          	mov    -0x20(%rbp),%rax
    8e10:	48 89 45 f0          	mov    %rax,-0x10(%rbp)
    8e14:	48 8b 45 e8          	mov    -0x18(%rbp),%rax
    8e18:	48 89 45 f8          	mov    %rax,-0x8(%rbp)
    8e1c:	90                   	nop
    8e1d:	90                   	nop
    8e1e:	48 8b 45 d8          	mov    -0x28(%rbp),%rax
    8e22:	48 89 c7             	mov    %rax,%rdi
    8e25:	e8 52 ec ff ff       	call   7a7c <_ZNSt12_Vector_baseINSt7__cxx1112basic_stringIcSt11char_traitsIcESaIcEEESaIS5_EE17_Vector_impl_dataC1Ev>
    8e2a:	90                   	nop
    8e2b:	c9                   	leave  
    8e2c:	c3                   	ret    

0000000000008e2d <_ZNSt6vectorINSt7__cxx1112basic_stringIcSt11char_traitsIcESaIcEEESaIS5_EE17_S_check_init_lenEmRKS6_>:
    8e2d:	f3 0f 1e fa          	endbr64 
    8e31:	55                   	push   %rbp
    8e32:	48 89 e5             	mov    %rsp,%rbp
    8e35:	53                   	push   %rbx
    8e36:	48 83 ec 48          	sub    $0x48,%rsp
    8e3a:	48 89 7d b8          	mov    %rdi,-0x48(%rbp)
    8e3e:	48 89 75 b0          	mov    %rsi,-0x50(%rbp)
    8e42:	64 48 8b 04 25 28 00 	mov    %fs:0x28,%rax
    8e49:	00 00 
    8e4b:	48 89 45 e8          	mov    %rax,-0x18(%rbp)
    8e4f:	31 c0                	xor    %eax,%eax
    8e51:	48 8b 45 b0          	mov    -0x50(%rbp),%rax
    8e55:	48 89 45 d0          	mov    %rax,-0x30(%rbp)
    8e59:	48 8d 45 cf          	lea    -0x31(%rbp),%rax
    8e5d:	48 89 45 d8          	mov    %rax,-0x28(%rbp)
    8e61:	48 8b 45 d0          	mov    -0x30(%rbp),%rax
    8e65:	48 89 45 e0          	mov    %rax,-0x20(%rbp)
    8e69:	90                   	nop
    8e6a:	90                   	nop
    8e6b:	48 8d 45 cf          	lea    -0x31(%rbp),%rax
    8e6f:	48 89 c7             	mov    %rax,%rdi
    8e72:	e8 4f 0f 00 00       	call   9dc6 <_ZNSt6vectorINSt7__cxx1112basic_stringIcSt11char_traitsIcESaIcEEESaIS5_EE11_S_max_sizeERKS6_>
    8e77:	48 3b 45 b8          	cmp    -0x48(%rbp),%rax
    8e7b:	0f 92 c3             	setb   %bl
    8e7e:	48 8d 45 cf          	lea    -0x31(%rbp),%rax
    8e82:	48 89 c7             	mov    %rax,%rdi
    8e85:	e8 92 e9 ff ff       	call   781c <_ZNSt15__new_allocatorINSt7__cxx1112basic_stringIcSt11char_traitsIcESaIcEEEED1Ev>
    8e8a:	90                   	nop
    8e8b:	84 db                	test   %bl,%bl
    8e8d:	74 23                	je     8eb2 <_ZNSt6vectorINSt7__cxx1112basic_stringIcSt11char_traitsIcESaIcEEESaIS5_EE17_S_check_init_lenEmRKS6_+0x85>
    8e8f:	48 8b 45 e8          	mov    -0x18(%rbp),%rax
    8e93:	64 48 2b 04 25 28 00 	sub    %fs:0x28,%rax
    8e9a:	00 00 
    8e9c:	74 05                	je     8ea3 <_ZNSt6vectorINSt7__cxx1112basic_stringIcSt11char_traitsIcESaIcEEESaIS5_EE17_S_check_init_lenEmRKS6_+0x76>
    8e9e:	e8 dd a8 ff ff       	call   3780 <_init+0x780>
    8ea3:	48 8d 05 b6 33 00 00 	lea    0x33b6(%rip),%rax        # c260 <_ZSt19piecewise_construct+0x25c>
    8eaa:	48 89 c7             	mov    %rax,%rdi
    8ead:	e8 1e a7 ff ff       	call   35d0 <_init+0x5d0>
    8eb2:	48 8b 45 b8          	mov    -0x48(%rbp),%rax
    8eb6:	48 8b 55 e8          	mov    -0x18(%rbp),%rdx
    8eba:	64 48 2b 14 25 28 00 	sub    %fs:0x28,%rdx
    8ec1:	00 00 
    8ec3:	74 05                	je     8eca <_ZNSt6vectorINSt7__cxx1112basic_stringIcSt11char_traitsIcESaIcEEESaIS5_EE17_S_check_init_lenEmRKS6_+0x9d>
    8ec5:	e8 b6 a8 ff ff       	call   3780 <_init+0x780>
    8eca:	48 8b 5d f8          	mov    -0x8(%rbp),%rbx
    8ece:	c9                   	leave  
    8ecf:	c3                   	ret    

0000000000008ed0 <_ZNSt12_Vector_baseINSt7__cxx1112basic_stringIcSt11char_traitsIcESaIcEEESaIS5_EE11_M_allocateEm>:
    8ed0:	f3 0f 1e fa          	endbr64 
    8ed4:	55                   	push   %rbp
    8ed5:	48 89 e5             	mov    %rsp,%rbp
    8ed8:	48 83 ec 20          	sub    $0x20,%rsp
    8edc:	48 89 7d e8          	mov    %rdi,-0x18(%rbp)
    8ee0:	48 89 75 e0          	mov    %rsi,-0x20(%rbp)
    8ee4:	48 83 7d e0 00       	cmpq   $0x0,-0x20(%rbp)
    8ee9:	74 2b                	je     8f16 <_ZNSt12_Vector_baseINSt7__cxx1112basic_stringIcSt11char_traitsIcESaIcEEESaIS5_EE11_M_allocateEm+0x46>
    8eeb:	48 8b 45 e8          	mov    -0x18(%rbp),%rax
    8eef:	48 89 45 f0          	mov    %rax,-0x10(%rbp)
    8ef3:	48 8b 45 e0          	mov    -0x20(%rbp),%rax
    8ef7:	48 89 45 f8          	mov    %rax,-0x8(%rbp)
    8efb:	48 8b 4d f8          	mov    -0x8(%rbp),%rcx
    8eff:	48 8b 45 f0          	mov    -0x10(%rbp),%rax
    8f03:	ba 00 00 00 00       	mov    $0x0,%edx
    8f08:	48 89 ce             	mov    %rcx,%rsi
    8f0b:	48 89 c7             	mov    %rax,%rdi
    8f0e:	e8 61 1b 00 00       	call   aa74 <_ZNSt15__new_allocatorINSt7__cxx1112basic_stringIcSt11char_traitsIcESaIcEEEE8allocateEmPKv>
    8f13:	90                   	nop
    8f14:	eb 05                	jmp    8f1b <_ZNSt12_Vector_baseINSt7__cxx1112basic_stringIcSt11char_traitsIcESaIcEEESaIS5_EE11_M_allocateEm+0x4b>
    8f16:	b8 00 00 00 00       	mov    $0x0,%eax
    8f1b:	c9                   	leave  
    8f1c:	c3                   	ret    

0000000000008f1d <_ZSt22__uninitialized_copy_aIPKPKcPNSt7__cxx1112basic_stringIcSt11char_traitsIcESaIcEEES9_ET0_T_SC_SB_RSaIT1_E>:
    8f1d:	f3 0f 1e fa          	endbr64 
    8f21:	55                   	push   %rbp
    8f22:	48 89 e5             	mov    %rsp,%rbp
    8f25:	48 83 ec 20          	sub    $0x20,%rsp
    8f29:	48 89 7d f8          	mov    %rdi,-0x8(%rbp)
    8f2d:	48 89 75 f0          	mov    %rsi,-0x10(%rbp)
    8f31:	48 89 55 e8          	mov    %rdx,-0x18(%rbp)
    8f35:	48 89 4d e0          	mov    %rcx,-0x20(%rbp)
    8f39:	48 8b 55 e8          	mov    -0x18(%rbp),%rdx
    8f3d:	48 8b 4d f0          	mov    -0x10(%rbp),%rcx
    8f41:	48 8b 45 f8          	mov    -0x8(%rbp),%rax
    8f45:	48 89 ce             	mov    %rcx,%rsi
    8f48:	48 89 c7             	mov    %rax,%rdi
    8f4b:	e8 f7 0e 00 00       	call   9e47 <_ZSt18uninitialized_copyIPKPKcPNSt7__cxx1112basic_stringIcSt11char_traitsIcESaIcEEEET0_T_SC_SB_>
    8f50:	c9                   	leave  
    8f51:	c3                   	ret    

0000000000008f52 <_ZSt8_DestroyIPNSt7__cxx1112basic_stringIcSt11char_traitsIcESaIcEEEEvT_S7_>:
    8f52:	f3 0f 1e fa          	endbr64 
    8f56:	55                   	push   %rbp
    8f57:	48 89 e5             	mov    %rsp,%rbp
    8f5a:	48 83 ec 10          	sub    $0x10,%rsp
    8f5e:	48 89 7d f8          	mov    %rdi,-0x8(%rbp)
    8f62:	48 89 75 f0          	mov    %rsi,-0x10(%rbp)
    8f66:	48 8b 55 f0          	mov    -0x10(%rbp),%rdx
    8f6a:	48 8b 45 f8          	mov    -0x8(%rbp),%rax
    8f6e:	48 89 d6             	mov    %rdx,%rsi
    8f71:	48 89 c7             	mov    %rax,%rdi
    8f74:	e8 07 0f 00 00       	call   9e80 <_ZNSt12_Destroy_auxILb0EE9__destroyIPNSt7__cxx1112basic_stringIcSt11char_traitsIcESaIcEEEEEvT_S9_>
    8f79:	90                   	nop
    8f7a:	c9                   	leave  
    8f7b:	c3                   	ret    

0000000000008f7c <_ZNSt23_Rb_tree_const_iteratorINSt7__cxx1112basic_stringIcSt11char_traitsIcESaIcEEEEC1EPKSt18_Rb_tree_node_base>:
    8f7c:	f3 0f 1e fa          	endbr64 
    8f80:	55                   	push   %rbp
    8f81:	48 89 e5             	mov    %rsp,%rbp
    8f84:	48 89 7d f8          	mov    %rdi,-0x8(%rbp)
    8f88:	48 89 75 f0          	mov    %rsi,-0x10(%rbp)
    8f8c:	48 8b 45 f8          	mov    -0x8(%rbp),%rax
    8f90:	48 8b 55 f0          	mov    -0x10(%rbp),%rdx
    8f94:	48 89 10             	mov    %rdx,(%rax)
    8f97:	90                   	nop
    8f98:	5d                   	pop    %rbp
    8f99:	c3                   	ret    

0000000000008f9a <_ZNK9__gnu_cxx16__aligned_membufINSt7__cxx1112basic_stringIcSt11char_traitsIcESaIcEEEE6_M_ptrEv>:
    8f9a:	f3 0f 1e fa          	endbr64 
    8f9e:	55                   	push   %rbp
    8f9f:	48 89 e5             	mov    %rsp,%rbp
    8fa2:	48 83 ec 10          	sub    $0x10,%rsp
    8fa6:	48 89 7d f8          	mov    %rdi,-0x8(%rbp)
    8faa:	48 8b 45 f8          	mov    -0x8(%rbp),%rax
    8fae:	48 89 c7             	mov    %rax,%rdi
    8fb1:	e8 3c 0f 00 00       	call   9ef2 <_ZNK9__gnu_cxx16__aligned_membufINSt7__cxx1112basic_stringIcSt11char_traitsIcESaIcEEEE7_M_addrEv>
    8fb6:	c9                   	leave  
    8fb7:	c3                   	ret    

0000000000008fb8 <_ZSt7forwardIRKNSt7__cxx1112basic_stringIcSt11char_traitsIcESaIcEEEEOT_RNSt16remove_referenceIS8_E4typeE>:
    8fb8:	f3 0f 1e fa          	endbr64 
    8fbc:	55                   	push   %rbp
    8fbd:	48 89 e5             	mov    %rsp,%rbp
    8fc0:	48 89 7d f8          	mov    %rdi,-0x8(%rbp)
    8fc4:	48 8b 45 f8          	mov    -0x8(%rbp),%rax
    8fc8:	5d                   	pop    %rbp
    8fc9:	c3                   	ret    

0000000000008fca <_ZN9__gnu_cxx17__normal_iteratorIPNSt7__cxx1112basic_stringIcSt11char_traitsIcESaIcEEESt6vectorIS6_SaIS6_EEEC1ERKS7_>:
    8fca:	f3 0f 1e fa          	endbr64 
    8fce:	55                   	push   %rbp
    8fcf:	48 89 e5             	mov    %rsp,%rbp
    8fd2:	48 89 7d f8          	mov    %rdi,-0x8(%rbp)
    8fd6:	48 89 75 f0          	mov    %rsi,-0x10(%rbp)
    8fda:	48 8b 45 f0          	mov    -0x10(%rbp),%rax
    8fde:	48 8b 10             	mov    (%rax),%rdx
    8fe1:	48 8b 45 f8          	mov    -0x8(%rbp),%rax
    8fe5:	48 89 10             	mov    %rdx,(%rax)
    8fe8:	90                   	nop
    8fe9:	5d                   	pop    %rbp
    8fea:	c3                   	ret    
    8feb:	90                   	nop

0000000000008fec <_ZNKSt6vectorINSt7__cxx1112basic_stringIcSt11char_traitsIcESaIcEEESaIS5_EE12_M_check_lenEmPKc>:
    8fec:	f3 0f 1e fa          	endbr64 
    8ff0:	55                   	push   %rbp
    8ff1:	48 89 e5             	mov    %rsp,%rbp
    8ff4:	53                   	push   %rbx
    8ff5:	48 83 ec 48          	sub    $0x48,%rsp
    8ff9:	48 89 7d c8          	mov    %rdi,-0x38(%rbp)
    8ffd:	48 89 75 c0          	mov    %rsi,-0x40(%rbp)
    9001:	48 89 55 b8          	mov    %rdx,-0x48(%rbp)
    9005:	64 48 8b 04 25 28 00 	mov    %fs:0x28,%rax
    900c:	00 00 
    900e:	48 89 45 e8          	mov    %rax,-0x18(%rbp)
    9012:	31 c0                	xor    %eax,%eax
    9014:	48 8b 45 c8          	mov    -0x38(%rbp),%rax
    9018:	48 89 c7             	mov    %rax,%rdi
    901b:	e8 e4 0e 00 00       	call   9f04 <_ZNKSt6vectorINSt7__cxx1112basic_stringIcSt11char_traitsIcESaIcEEESaIS5_EE8max_sizeEv>
    9020:	48 89 c3             	mov    %rax,%rbx
    9023:	48 8b 45 c8          	mov    -0x38(%rbp),%rax
    9027:	48 89 c7             	mov    %rax,%rdi
    902a:	e8 91 da ff ff       	call   6ac0 <_ZNKSt6vectorINSt7__cxx1112basic_stringIcSt11char_traitsIcESaIcEEESaIS5_EE4sizeEv>
    902f:	48 29 c3             	sub    %rax,%rbx
    9032:	48 89 da             	mov    %rbx,%rdx
    9035:	48 8b 45 c0          	mov    -0x40(%rbp),%rax
    9039:	48 39 c2             	cmp    %rax,%rdx
    903c:	0f 92 c0             	setb   %al
    903f:	84 c0                	test   %al,%al
    9041:	74 20                	je     9063 <_ZNKSt6vectorINSt7__cxx1112basic_stringIcSt11char_traitsIcESaIcEEESaIS5_EE12_M_check_lenEmPKc+0x77>
    9043:	48 8b 45 e8          	mov    -0x18(%rbp),%rax
    9047:	64 48 2b 04 25 28 00 	sub    %fs:0x28,%rax
    904e:	00 00 
    9050:	74 05                	je     9057 <_ZNKSt6vectorINSt7__cxx1112basic_stringIcSt11char_traitsIcESaIcEEESaIS5_EE12_M_check_lenEmPKc+0x6b>
    9052:	e8 29 a7 ff ff       	call   3780 <_init+0x780>
    9057:	48 8b 45 b8          	mov    -0x48(%rbp),%rax
    905b:	48 89 c7             	mov    %rax,%rdi
    905e:	e8 6d a5 ff ff       	call   35d0 <_init+0x5d0>
    9063:	48 8b 45 c8          	mov    -0x38(%rbp),%rax
    9067:	48 89 c7             	mov    %rax,%rdi
    906a:	e8 51 da ff ff       	call   6ac0 <_ZNKSt6vectorINSt7__cxx1112basic_stringIcSt11char_traitsIcESaIcEEESaIS5_EE4sizeEv>
    906f:	48 89 c3             	mov    %rax,%rbx
    9072:	48 8b 45 c8          	mov    -0x38(%rbp),%rax
    9076:	48 89 c7             	mov    %rax,%rdi
    9079:	e8 42 da ff ff       	call   6ac0 <_ZNKSt6vectorINSt7__cxx1112basic_stringIcSt11char_traitsIcESaIcEEESaIS5_EE4sizeEv>
    907e:	48 89 45 d8          	mov    %rax,-0x28(%rbp)
    9082:	48 8d 55 c0          	lea    -0x40(%rbp),%rdx
    9086:	48 8d 45 d8          	lea    -0x28(%rbp),%rax
    908a:	48 89 d6             	mov    %rdx,%rsi
    908d:	48 89 c7             	mov    %rax,%rdi
    9090:	e8 5d 0c 00 00       	call   9cf2 <_ZSt3maxImERKT_S2_S2_>
    9095:	48 8b 00             	mov    (%rax),%rax
    9098:	48 01 d8             	add    %rbx,%rax
    909b:	48 89 45 e0          	mov    %rax,-0x20(%rbp)
    909f:	48 8b 45 c8          	mov    -0x38(%rbp),%rax
    90a3:	48 89 c7             	mov    %rax,%rdi
    90a6:	e8 15 da ff ff       	call   6ac0 <_ZNKSt6vectorINSt7__cxx1112basic_stringIcSt11char_traitsIcESaIcEEESaIS5_EE4sizeEv>
    90ab:	48 39 45 e0          	cmp    %rax,-0x20(%rbp)
    90af:	72 12                	jb     90c3 <_ZNKSt6vectorINSt7__cxx1112basic_stringIcSt11char_traitsIcESaIcEEESaIS5_EE12_M_check_lenEmPKc+0xd7>
    90b1:	48 8b 45 c8          	mov    -0x38(%rbp),%rax
    90b5:	48 89 c7             	mov    %rax,%rdi
    90b8:	e8 47 0e 00 00       	call   9f04 <_ZNKSt6vectorINSt7__cxx1112basic_stringIcSt11char_traitsIcESaIcEEESaIS5_EE8max_sizeEv>
    90bd:	48 3b 45 e0          	cmp    -0x20(%rbp),%rax
    90c1:	73 0e                	jae    90d1 <_ZNKSt6vectorINSt7__cxx1112basic_stringIcSt11char_traitsIcESaIcEEESaIS5_EE12_M_check_lenEmPKc+0xe5>
    90c3:	48 8b 45 c8          	mov    -0x38(%rbp),%rax
    90c7:	48 89 c7             	mov    %rax,%rdi
    90ca:	e8 35 0e 00 00       	call   9f04 <_ZNKSt6vectorINSt7__cxx1112basic_stringIcSt11char_traitsIcESaIcEEESaIS5_EE8max_sizeEv>
    90cf:	eb 04                	jmp    90d5 <_ZNKSt6vectorINSt7__cxx1112basic_stringIcSt11char_traitsIcESaIcEEESaIS5_EE12_M_check_lenEmPKc+0xe9>
    90d1:	48 8b 45 e0          	mov    -0x20(%rbp),%rax
    90d5:	48 8b 55 e8          	mov    -0x18(%rbp),%rdx
    90d9:	64 48 2b 14 25 28 00 	sub    %fs:0x28,%rdx
    90e0:	00 00 
    90e2:	74 05                	je     90e9 <_ZNKSt6vectorINSt7__cxx1112basic_stringIcSt11char_traitsIcESaIcEEESaIS5_EE12_M_check_lenEmPKc+0xfd>
    90e4:	e8 97 a6 ff ff       	call   3780 <_init+0x780>
    90e9:	48 8b 5d f8          	mov    -0x8(%rbp),%rbx
    90ed:	c9                   	leave  
    90ee:	c3                   	ret    
    90ef:	90                   	nop

00000000000090f0 <_ZNSt6vectorINSt7__cxx1112basic_stringIcSt11char_traitsIcESaIcEEESaIS5_EE5beginEv>:
    90f0:	f3 0f 1e fa          	endbr64 
    90f4:	55                   	push   %rbp
    90f5:	48 89 e5             	mov    %rsp,%rbp
    90f8:	48 83 ec 20          	sub    $0x20,%rsp
    90fc:	48 89 7d e8          	mov    %rdi,-0x18(%rbp)
    9100:	64 48 8b 04 25 28 00 	mov    %fs:0x28,%rax
    9107:	00 00 
    9109:	48 89 45 f8          	mov    %rax,-0x8(%rbp)
    910d:	31 c0                	xor    %eax,%eax
    910f:	48 8b 55 e8          	mov    -0x18(%rbp),%rdx
    9113:	48 8d 45 f0          	lea    -0x10(%rbp),%rax
    9117:	48 89 d6             	mov    %rdx,%rsi
    911a:	48 89 c7             	mov    %rax,%rdi
    911d:	e8 a8 fe ff ff       	call   8fca <_ZN9__gnu_cxx17__normal_iteratorIPNSt7__cxx1112basic_stringIcSt11char_traitsIcESaIcEEESt6vectorIS6_SaIS6_EEEC1ERKS7_>
    9122:	48 8b 45 f0          	mov    -0x10(%rbp),%rax
    9126:	48 8b 55 f8          	mov    -0x8(%rbp),%rdx
    912a:	64 48 2b 14 25 28 00 	sub    %fs:0x28,%rdx
    9131:	00 00 
    9133:	74 05                	je     913a <_ZNSt6vectorINSt7__cxx1112basic_stringIcSt11char_traitsIcESaIcEEESaIS5_EE5beginEv+0x4a>
    9135:	e8 46 a6 ff ff       	call   3780 <_init+0x780>
    913a:	c9                   	leave  
    913b:	c3                   	ret    

000000000000913c <_ZN9__gnu_cxxmiIPNSt7__cxx1112basic_stringIcSt11char_traitsIcESaIcEEESt6vectorIS6_SaIS6_EEEENS_17__normal_iteratorIT_T0_E15difference_typeERKSE_SH_>:
    913c:	f3 0f 1e fa          	endbr64 
    9140:	55                   	push   %rbp
    9141:	48 89 e5             	mov    %rsp,%rbp
    9144:	53                   	push   %rbx
    9145:	48 83 ec 18          	sub    $0x18,%rsp
    9149:	48 89 7d e8          	mov    %rdi,-0x18(%rbp)
    914d:	48 89 75 e0          	mov    %rsi,-0x20(%rbp)
    9151:	48 8b 45 e8          	mov    -0x18(%rbp),%rax
    9155:	48 89 c7             	mov    %rax,%rdi
    9158:	e8 5b 00 00 00       	call   91b8 <_ZNK9__gnu_cxx17__normal_iteratorIPNSt7__cxx1112basic_stringIcSt11char_traitsIcESaIcEEESt6vectorIS6_SaIS6_EEE4baseEv>
    915d:	48 8b 18             	mov    (%rax),%rbx
    9160:	48 8b 45 e0          	mov    -0x20(%rbp),%rax
    9164:	48 89 c7             	mov    %rax,%rdi
    9167:	e8 4c 00 00 00       	call   91b8 <_ZNK9__gnu_cxx17__normal_iteratorIPNSt7__cxx1112basic_stringIcSt11char_traitsIcESaIcEEESt6vectorIS6_SaIS6_EEE4baseEv>
    916c:	48 8b 00             	mov    (%rax),%rax
    916f:	48 89 da             	mov    %rbx,%rdx
    9172:	48 29 c2             	sub    %rax,%rdx
    9175:	48 89 d0             	mov    %rdx,%rax
    9178:	48 c1 f8 05          	sar    $0x5,%rax
    917c:	48 8b 5d f8          	mov    -0x8(%rbp),%rbx
    9180:	c9                   	leave  
    9181:	c3                   	ret    

0000000000009182 <_ZNSt6vectorINSt7__cxx1112basic_stringIcSt11char_traitsIcESaIcEEESaIS5_EE11_S_relocateEPS5_S8_S8_RS6_>:
    9182:	f3 0f 1e fa          	endbr64 
    9186:	55                   	push   %rbp
    9187:	48 89 e5             	mov    %rsp,%rbp
    918a:	48 83 ec 20          	sub    $0x20,%rsp
    918e:	48 89 7d f8          	mov    %rdi,-0x8(%rbp)
    9192:	48 89 75 f0          	mov    %rsi,-0x10(%rbp)
    9196:	48 89 55 e8          	mov    %rdx,-0x18(%rbp)
    919a:	48 89 4d e0          	mov    %rcx,-0x20(%rbp)
    919e:	48 8b 4d e0          	mov    -0x20(%rbp),%rcx
    91a2:	48 8b 55 e8          	mov    -0x18(%rbp),%rdx
    91a6:	48 8b 75 f0          	mov    -0x10(%rbp),%rsi
    91aa:	48 8b 45 f8          	mov    -0x8(%rbp),%rax
    91ae:	48 89 c7             	mov    %rax,%rdi
    91b1:	e8 74 0d 00 00       	call   9f2a <_ZSt12__relocate_aIPNSt7__cxx1112basic_stringIcSt11char_traitsIcESaIcEEES6_SaIS5_EET0_T_S9_S8_RT1_>
    91b6:	c9                   	leave  
    91b7:	c3                   	ret    

00000000000091b8 <_ZNK9__gnu_cxx17__normal_iteratorIPNSt7__cxx1112basic_stringIcSt11char_traitsIcESaIcEEESt6vectorIS6_SaIS6_EEE4baseEv>:
    91b8:	f3 0f 1e fa          	endbr64 
    91bc:	55                   	push   %rbp
    91bd:	48 89 e5             	mov    %rsp,%rbp
    91c0:	48 89 7d f8          	mov    %rdi,-0x8(%rbp)
    91c4:	48 8b 45 f8          	mov    -0x8(%rbp),%rax
    91c8:	5d                   	pop    %rbp
    91c9:	c3                   	ret    

00000000000091ca <_ZNKSt16initializer_listINSt7__cxx1112basic_stringIcSt11char_traitsIcESaIcEEEE4sizeEv>:
    91ca:	f3 0f 1e fa          	endbr64 
    91ce:	55                   	push   %rbp
    91cf:	48 89 e5             	mov    %rsp,%rbp
    91d2:	48 89 7d f8          	mov    %rdi,-0x8(%rbp)
    91d6:	48 8b 45 f8          	mov    -0x8(%rbp),%rax
    91da:	48 8b 40 08          	mov    0x8(%rax),%rax
    91de:	5d                   	pop    %rbp
    91df:	c3                   	ret    

00000000000091e0 <_ZSt22__uninitialized_copy_aIPKNSt7__cxx1112basic_stringIcSt11char_traitsIcESaIcEEEPS5_S5_ET0_T_SA_S9_RSaIT1_E>:
    91e0:	f3 0f 1e fa          	endbr64 
    91e4:	55                   	push   %rbp
    91e5:	48 89 e5             	mov    %rsp,%rbp
    91e8:	48 83 ec 20          	sub    $0x20,%rsp
    91ec:	48 89 7d f8          	mov    %rdi,-0x8(%rbp)
    91f0:	48 89 75 f0          	mov    %rsi,-0x10(%rbp)
    91f4:	48 89 55 e8          	mov    %rdx,-0x18(%rbp)
    91f8:	48 89 4d e0          	mov    %rcx,-0x20(%rbp)
    91fc:	48 8b 55 e8          	mov    -0x18(%rbp),%rdx
    9200:	48 8b 4d f0          	mov    -0x10(%rbp),%rcx
    9204:	48 8b 45 f8          	mov    -0x8(%rbp),%rax
    9208:	48 89 ce             	mov    %rcx,%rsi
    920b:	48 89 c7             	mov    %rax,%rdi
    920e:	e8 7e 0d 00 00       	call   9f91 <_ZSt18uninitialized_copyIPKNSt7__cxx1112basic_stringIcSt11char_traitsIcESaIcEEEPS5_ET0_T_SA_S9_>
    9213:	c9                   	leave  
    9214:	c3                   	ret    
    9215:	90                   	nop

0000000000009216 <_ZNSt15__new_allocatorISt13_Rb_tree_nodeINSt7__cxx1112basic_stringIcSt11char_traitsIcESaIcEEEEED1Ev>:
    9216:	f3 0f 1e fa          	endbr64 
    921a:	55                   	push   %rbp
    921b:	48 89 e5             	mov    %rsp,%rbp
    921e:	48 89 7d f8          	mov    %rdi,-0x8(%rbp)
    9222:	90                   	nop
    9223:	5d                   	pop    %rbp
    9224:	c3                   	ret    
    9225:	90                   	nop

0000000000009226 <_ZNSt8_Rb_treeINSt7__cxx1112basic_stringIcSt11char_traitsIcESaIcEEES5_St9_IdentityIS5_ESt4lessIS5_ESaIS5_EE17_M_emplace_uniqueIJRKPKcEEESt4pairISt17_Rb_tree_iteratorIS5_EbEDpOT_>:
    9226:	f3 0f 1e fa          	endbr64 
    922a:	55                   	push   %rbp
    922b:	48 89 e5             	mov    %rsp,%rbp
    922e:	41 55                	push   %r13
    9230:	41 54                	push   %r12
    9232:	53                   	push   %rbx
    9233:	48 83 ec 68          	sub    $0x68,%rsp
    9237:	48 89 7d 88          	mov    %rdi,-0x78(%rbp)
    923b:	48 89 75 80          	mov    %rsi,-0x80(%rbp)
    923f:	64 48 8b 04 25 28 00 	mov    %fs:0x28,%rax
    9246:	00 00 
    9248:	48 89 45 d8          	mov    %rax,-0x28(%rbp)
    924c:	31 c0                	xor    %eax,%eax
    924e:	48 8b 45 80          	mov    -0x80(%rbp),%rax
    9252:	48 89 c7             	mov    %rax,%rdi
    9255:	e8 70 0d 00 00       	call   9fca <_ZSt7forwardIRKPKcEOT_RNSt16remove_referenceIS4_E4typeE>
    925a:	48 89 c2             	mov    %rax,%rdx
    925d:	48 8b 4d 88          	mov    -0x78(%rbp),%rcx
    9261:	48 8d 45 a0          	lea    -0x60(%rbp),%rax
    9265:	48 89 ce             	mov    %rcx,%rsi
    9268:	48 89 c7             	mov    %rax,%rdi
    926b:	e8 6c 0d 00 00       	call   9fdc <_ZNSt8_Rb_treeINSt7__cxx1112basic_stringIcSt11char_traitsIcESaIcEEES5_St9_IdentityIS5_ESt4lessIS5_ESaIS5_EE10_Auto_nodeC1IJRKPKcEEERSB_DpOT_>
    9270:	48 8d 45 a0          	lea    -0x60(%rbp),%rax
    9274:	48 89 c7             	mov    %rax,%rdi
    9277:	e8 82 0f 00 00       	call   a1fe <_ZNKSt8_Rb_treeINSt7__cxx1112basic_stringIcSt11char_traitsIcESaIcEEES5_St9_IdentityIS5_ESt4lessIS5_ESaIS5_EE10_Auto_node6_M_keyEv>
    927c:	48 89 c2             	mov    %rax,%rdx
    927f:	48 8b 45 88          	mov    -0x78(%rbp),%rax
    9283:	48 89 d6             	mov    %rdx,%rsi
    9286:	48 89 c7             	mov    %rax,%rdi
    9289:	e8 d4 0d 00 00       	call   a062 <_ZNSt8_Rb_treeINSt7__cxx1112basic_stringIcSt11char_traitsIcESaIcEEES5_St9_IdentityIS5_ESt4lessIS5_ESaIS5_EE24_M_get_insert_unique_posERKS5_>
    928e:	48 89 45 b0          	mov    %rax,-0x50(%rbp)
    9292:	48 89 55 b8          	mov    %rdx,-0x48(%rbp)
    9296:	48 8b 45 b8          	mov    -0x48(%rbp),%rax
    929a:	48 85 c0             	test   %rax,%rax
    929d:	74 40                	je     92df <_ZNSt8_Rb_treeINSt7__cxx1112basic_stringIcSt11char_traitsIcESaIcEEES5_St9_IdentityIS5_ESt4lessIS5_ESaIS5_EE17_M_emplace_uniqueIJRKPKcEEESt4pairISt17_Rb_tree_iteratorIS5_EbEDpOT_+0xb9>
    929f:	48 8b 4d b0          	mov    -0x50(%rbp),%rcx
    92a3:	48 8b 55 b8          	mov    -0x48(%rbp),%rdx
    92a7:	48 8d 45 a0          	lea    -0x60(%rbp),%rax
    92ab:	48 89 ce             	mov    %rcx,%rsi
    92ae:	48 89 c7             	mov    %rax,%rdi
    92b1:	e8 6a 0f 00 00       	call   a220 <_ZNSt8_Rb_treeINSt7__cxx1112basic_stringIcSt11char_traitsIcESaIcEEES5_St9_IdentityIS5_ESt4lessIS5_ESaIS5_EE10_Auto_node9_M_insertESt4pairIPSt18_Rb_tree_node_baseSF_E>
    92b6:	48 89 45 98          	mov    %rax,-0x68(%rbp)
    92ba:	c6 45 97 01          	movb   $0x1,-0x69(%rbp)
    92be:	48 8d 55 97          	lea    -0x69(%rbp),%rdx
    92c2:	48 8d 4d 98          	lea    -0x68(%rbp),%rcx
    92c6:	48 8d 45 c0          	lea    -0x40(%rbp),%rax
    92ca:	48 89 ce             	mov    %rcx,%rsi
    92cd:	48 89 c7             	mov    %rax,%rdi
    92d0:	e8 c7 0f 00 00       	call   a29c <_ZNSt4pairISt17_Rb_tree_iteratorINSt7__cxx1112basic_stringIcSt11char_traitsIcESaIcEEEEbEC1IS7_bLb1EEEOT_OT0_>
    92d5:	4c 8b 65 c0          	mov    -0x40(%rbp),%r12
    92d9:	4c 8b 6d c8          	mov    -0x38(%rbp),%r13
    92dd:	eb 36                	jmp    9315 <_ZNSt8_Rb_treeINSt7__cxx1112basic_stringIcSt11char_traitsIcESaIcEEES5_St9_IdentityIS5_ESt4lessIS5_ESaIS5_EE17_M_emplace_uniqueIJRKPKcEEESt4pairISt17_Rb_tree_iteratorIS5_EbEDpOT_+0xef>
    92df:	48 8b 55 b0          	mov    -0x50(%rbp),%rdx
    92e3:	48 8d 45 98          	lea    -0x68(%rbp),%rax
    92e7:	48 89 d6             	mov    %rdx,%rsi
    92ea:	48 89 c7             	mov    %rax,%rdi
    92ed:	e8 f2 0f 00 00       	call   a2e4 <_ZNSt17_Rb_tree_iteratorINSt7__cxx1112basic_stringIcSt11char_traitsIcESaIcEEEEC1EPSt18_Rb_tree_node_base>
    92f2:	c6 45 97 00          	movb   $0x0,-0x69(%rbp)
    92f6:	48 8d 55 97          	lea    -0x69(%rbp),%rdx
    92fa:	48 8d 4d 98          	lea    -0x68(%rbp),%rcx
    92fe:	48 8d 45 c0          	lea    -0x40(%rbp),%rax
    9302:	48 89 ce             	mov    %rcx,%rsi
    9305:	48 89 c7             	mov    %rax,%rdi
    9308:	e8 8f 0f 00 00       	call   a29c <_ZNSt4pairISt17_Rb_tree_iteratorINSt7__cxx1112basic_stringIcSt11char_traitsIcESaIcEEEEbEC1IS7_bLb1EEEOT_OT0_>
    930d:	4c 8b 65 c0          	mov    -0x40(%rbp),%r12
    9311:	4c 8b 6d c8          	mov    -0x38(%rbp),%r13
    9315:	48 8d 45 a0          	lea    -0x60(%rbp),%rax
    9319:	48 89 c7             	mov    %rax,%rdi
    931c:	e8 07 0d 00 00       	call   a028 <_ZNSt8_Rb_treeINSt7__cxx1112basic_stringIcSt11char_traitsIcESaIcEEES5_St9_IdentityIS5_ESt4lessIS5_ESaIS5_EE10_Auto_nodeD1Ev>
    9321:	4c 89 e0             	mov    %r12,%rax
    9324:	4c 89 ea             	mov    %r13,%rdx
    9327:	48 8b 4d d8          	mov    -0x28(%rbp),%rcx
    932b:	64 48 2b 0c 25 28 00 	sub    %fs:0x28,%rcx
    9332:	00 00 
    9334:	74 39                	je     936f <_ZNSt8_Rb_treeINSt7__cxx1112basic_stringIcSt11char_traitsIcESaIcEEES5_St9_IdentityIS5_ESt4lessIS5_ESaIS5_EE17_M_emplace_uniqueIJRKPKcEEESt4pairISt17_Rb_tree_iteratorIS5_EbEDpOT_+0x149>
    9336:	eb 32                	jmp    936a <_ZNSt8_Rb_treeINSt7__cxx1112basic_stringIcSt11char_traitsIcESaIcEEES5_St9_IdentityIS5_ESt4lessIS5_ESaIS5_EE17_M_emplace_uniqueIJRKPKcEEESt4pairISt17_Rb_tree_iteratorIS5_EbEDpOT_+0x144>
    9338:	f3 0f 1e fa          	endbr64 
    933c:	48 89 c3             	mov    %rax,%rbx
    933f:	48 8d 45 a0          	lea    -0x60(%rbp),%rax
    9343:	48 89 c7             	mov    %rax,%rdi
    9346:	e8 dd 0c 00 00       	call   a028 <_ZNSt8_Rb_treeINSt7__cxx1112basic_stringIcSt11char_traitsIcESaIcEEES5_St9_IdentityIS5_ESt4lessIS5_ESaIS5_EE10_Auto_nodeD1Ev>
    934b:	48 89 d8             	mov    %rbx,%rax
    934e:	48 8b 55 d8          	mov    -0x28(%rbp),%rdx
    9352:	64 48 2b 14 25 28 00 	sub    %fs:0x28,%rdx
    9359:	00 00 
    935b:	74 05                	je     9362 <_ZNSt8_Rb_treeINSt7__cxx1112basic_stringIcSt11char_traitsIcESaIcEEES5_St9_IdentityIS5_ESt4lessIS5_ESaIS5_EE17_M_emplace_uniqueIJRKPKcEEESt4pairISt17_Rb_tree_iteratorIS5_EbEDpOT_+0x13c>
    935d:	e8 1e a4 ff ff       	call   3780 <_init+0x780>
    9362:	48 89 c7             	mov    %rax,%rdi
    9365:	e8 a6 a5 ff ff       	call   3910 <_init+0x910>
    936a:	e8 11 a4 ff ff       	call   3780 <_init+0x780>
    936f:	48 83 c4 68          	add    $0x68,%rsp
    9373:	5b                   	pop    %rbx
    9374:	41 5c                	pop    %r12
    9376:	41 5d                	pop    %r13
    9378:	5d                   	pop    %rbp
    9379:	c3                   	ret    

000000000000937a <_ZNSt8_Rb_treeINSt7__cxx1112basic_stringIcSt11char_traitsIcESaIcEEES5_St9_IdentityIS5_ESt4lessIS5_ESaIS5_EE8_S_rightEPSt18_Rb_tree_node_base>:
    937a:	f3 0f 1e fa          	endbr64 
    937e:	55                   	push   %rbp
    937f:	48 89 e5             	mov    %rsp,%rbp
    9382:	48 89 7d f8          	mov    %rdi,-0x8(%rbp)
    9386:	48 8b 45 f8          	mov    -0x8(%rbp),%rax
    938a:	48 8b 40 18          	mov    0x18(%rax),%rax
    938e:	5d                   	pop    %rbp
    938f:	c3                   	ret    

0000000000009390 <_ZNSt8_Rb_treeINSt7__cxx1112basic_stringIcSt11char_traitsIcESaIcEEES5_St9_IdentityIS5_ESt4lessIS5_ESaIS5_EE7_S_leftEPSt18_Rb_tree_node_base>:
    9390:	f3 0f 1e fa          	endbr64 
    9394:	55                   	push   %rbp
    9395:	48 89 e5             	mov    %rsp,%rbp
    9398:	48 89 7d f8          	mov    %rdi,-0x8(%rbp)
    939c:	48 8b 45 f8          	mov    -0x8(%rbp),%rax
    93a0:	48 8b 40 10          	mov    0x10(%rax),%rax
    93a4:	5d                   	pop    %rbp
    93a5:	c3                   	ret    

00000000000093a6 <_ZNSt8_Rb_treeINSt7__cxx1112basic_stringIcSt11char_traitsIcESaIcEEES5_St9_IdentityIS5_ESt4lessIS5_ESaIS5_EE12_M_drop_nodeEPSt13_Rb_tree_nodeIS5_E>:
    93a6:	f3 0f 1e fa          	endbr64 
    93aa:	55                   	push   %rbp
    93ab:	48 89 e5             	mov    %rsp,%rbp
    93ae:	48 83 ec 10          	sub    $0x10,%rsp
    93b2:	48 89 7d f8          	mov    %rdi,-0x8(%rbp)
    93b6:	48 89 75 f0          	mov    %rsi,-0x10(%rbp)
    93ba:	48 8b 55 f0          	mov    -0x10(%rbp),%rdx
    93be:	48 8b 45 f8          	mov    -0x8(%rbp),%rax
    93c2:	48 89 d6             	mov    %rdx,%rsi
    93c5:	48 89 c7             	mov    %rax,%rdi
    93c8:	e8 35 0f 00 00       	call   a302 <_ZNSt8_Rb_treeINSt7__cxx1112basic_stringIcSt11char_traitsIcESaIcEEES5_St9_IdentityIS5_ESt4lessIS5_ESaIS5_EE15_M_destroy_nodeEPSt13_Rb_tree_nodeIS5_E>
    93cd:	48 8b 55 f0          	mov    -0x10(%rbp),%rdx
    93d1:	48 8b 45 f8          	mov    -0x8(%rbp),%rax
    93d5:	48 89 d6             	mov    %rdx,%rsi
    93d8:	48 89 c7             	mov    %rax,%rdi
    93db:	e8 80 0f 00 00       	call   a360 <_ZNSt8_Rb_treeINSt7__cxx1112basic_stringIcSt11char_traitsIcESaIcEEES5_St9_IdentityIS5_ESt4lessIS5_ESaIS5_EE11_M_put_nodeEPSt13_Rb_tree_nodeIS5_E>
    93e0:	90                   	nop
    93e1:	c9                   	leave  
    93e2:	c3                   	ret    
    93e3:	90                   	nop

00000000000093e4 <_ZNKSt8_Rb_treeINSt7__cxx1112basic_stringIcSt11char_traitsIcESaIcEEES5_St9_IdentityIS5_ESt4lessIS5_ESaIS5_EE9_M_mbeginEv>:
    93e4:	f3 0f 1e fa          	endbr64 
    93e8:	55                   	push   %rbp
    93e9:	48 89 e5             	mov    %rsp,%rbp
    93ec:	48 89 7d f8          	mov    %rdi,-0x8(%rbp)
    93f0:	48 8b 45 f8          	mov    -0x8(%rbp),%rax
    93f4:	48 8b 40 10          	mov    0x10(%rax),%rax
    93f8:	5d                   	pop    %rbp
    93f9:	c3                   	ret    

00000000000093fa <_ZNKSt12_Vector_baseISt3mapINSt7__cxx1112basic_stringIcSt11char_traitsIcESaIcEEES6_St4lessIS6_ESaISt4pairIKS6_S6_EEESaISD_EE13get_allocatorEv>:
    93fa:	f3 0f 1e fa          	endbr64 
    93fe:	55                   	push   %rbp
    93ff:	48 89 e5             	mov    %rsp,%rbp
    9402:	48 83 ec 30          	sub    $0x30,%rsp
    9406:	48 89 7d d8          	mov    %rdi,-0x28(%rbp)
    940a:	48 89 75 d0          	mov    %rsi,-0x30(%rbp)
    940e:	48 8b 45 d0          	mov    -0x30(%rbp),%rax
    9412:	48 89 c7             	mov    %rax,%rdi
    9415:	e8 96 0f 00 00       	call   a3b0 <_ZNKSt12_Vector_baseISt3mapINSt7__cxx1112basic_stringIcSt11char_traitsIcESaIcEEES6_St4lessIS6_ESaISt4pairIKS6_S6_EEESaISD_EE19_M_get_Tp_allocatorEv>
    941a:	48 8b 55 d8          	mov    -0x28(%rbp),%rdx
    941e:	48 89 55 e0          	mov    %rdx,-0x20(%rbp)
    9422:	48 89 45 e8          	mov    %rax,-0x18(%rbp)
    9426:	48 8b 45 e0          	mov    -0x20(%rbp),%rax
    942a:	48 89 45 f0          	mov    %rax,-0x10(%rbp)
    942e:	48 8b 45 e8          	mov    -0x18(%rbp),%rax
    9432:	48 89 45 f8          	mov    %rax,-0x8(%rbp)
    9436:	90                   	nop
    9437:	90                   	nop
    9438:	90                   	nop
    9439:	48 8b 45 d8          	mov    -0x28(%rbp),%rax
    943d:	c9                   	leave  
    943e:	c3                   	ret    
    943f:	90                   	nop

0000000000009440 <_ZNSt6vectorISt3mapINSt7__cxx1112basic_stringIcSt11char_traitsIcESaIcEEES6_St4lessIS6_ESaISt4pairIKS6_S6_EEESaISD_EEC1ERKSE_>:
    9440:	f3 0f 1e fa          	endbr64 
    9444:	55                   	push   %rbp
    9445:	48 89 e5             	mov    %rsp,%rbp
    9448:	48 83 ec 10          	sub    $0x10,%rsp
    944c:	48 89 7d f8          	mov    %rdi,-0x8(%rbp)
    9450:	48 89 75 f0          	mov    %rsi,-0x10(%rbp)
    9454:	48 8b 45 f8          	mov    -0x8(%rbp),%rax
    9458:	48 8b 55 f0          	mov    -0x10(%rbp),%rdx
    945c:	48 89 d6             	mov    %rdx,%rsi
    945f:	48 89 c7             	mov    %rax,%rdi
    9462:	e8 5b 0f 00 00       	call   a3c2 <_ZNSt12_Vector_baseISt3mapINSt7__cxx1112basic_stringIcSt11char_traitsIcESaIcEEES6_St4lessIS6_ESaISt4pairIKS6_S6_EEESaISD_EEC1ERKSE_>
    9467:	90                   	nop
    9468:	c9                   	leave  
    9469:	c3                   	ret    

000000000000946a <_ZNSt12_Vector_baseISt3mapINSt7__cxx1112basic_stringIcSt11char_traitsIcESaIcEEES6_St4lessIS6_ESaISt4pairIKS6_S6_EEESaISD_EE17_Vector_impl_data12_M_swap_dataERSG_>:
    946a:	f3 0f 1e fa          	endbr64 
    946e:	55                   	push   %rbp
    946f:	48 89 e5             	mov    %rsp,%rbp
    9472:	48 83 ec 30          	sub    $0x30,%rsp
    9476:	48 89 7d d8          	mov    %rdi,-0x28(%rbp)
    947a:	48 89 75 d0          	mov    %rsi,-0x30(%rbp)
    947e:	64 48 8b 04 25 28 00 	mov    %fs:0x28,%rax
    9485:	00 00 
    9487:	48 89 45 f8          	mov    %rax,-0x8(%rbp)
    948b:	31 c0                	xor    %eax,%eax
    948d:	48 8d 45 e0          	lea    -0x20(%rbp),%rax
    9491:	48 89 c7             	mov    %rax,%rdi
    9494:	e8 d9 d9 ff ff       	call   6e72 <_ZNSt12_Vector_baseISt3mapINSt7__cxx1112basic_stringIcSt11char_traitsIcESaIcEEES6_St4lessIS6_ESaISt4pairIKS6_S6_EEESaISD_EE17_Vector_impl_dataC1Ev>
    9499:	48 8b 55 d8          	mov    -0x28(%rbp),%rdx
    949d:	48 8d 45 e0          	lea    -0x20(%rbp),%rax
    94a1:	48 89 d6             	mov    %rdx,%rsi
    94a4:	48 89 c7             	mov    %rax,%rdi
    94a7:	e8 40 0f 00 00       	call   a3ec <_ZNSt12_Vector_baseISt3mapINSt7__cxx1112basic_stringIcSt11char_traitsIcESaIcEEES6_St4lessIS6_ESaISt4pairIKS6_S6_EEESaISD_EE17_Vector_impl_data12_M_copy_dataERKSG_>
    94ac:	48 8b 55 d0          	mov    -0x30(%rbp),%rdx
    94b0:	48 8b 45 d8          	mov    -0x28(%rbp),%rax
    94b4:	48 89 d6             	mov    %rdx,%rsi
    94b7:	48 89 c7             	mov    %rax,%rdi
    94ba:	e8 2d 0f 00 00       	call   a3ec <_ZNSt12_Vector_baseISt3mapINSt7__cxx1112basic_stringIcSt11char_traitsIcESaIcEEES6_St4lessIS6_ESaISt4pairIKS6_S6_EEESaISD_EE17_Vector_impl_data12_M_copy_dataERKSG_>
    94bf:	48 8d 55 e0          	lea    -0x20(%rbp),%rdx
    94c3:	48 8b 45 d0          	mov    -0x30(%rbp),%rax
    94c7:	48 89 d6             	mov    %rdx,%rsi
    94ca:	48 89 c7             	mov    %rax,%rdi
    94cd:	e8 1a 0f 00 00       	call   a3ec <_ZNSt12_Vector_baseISt3mapINSt7__cxx1112basic_stringIcSt11char_traitsIcESaIcEEES6_St4lessIS6_ESaISt4pairIKS6_S6_EEESaISD_EE17_Vector_impl_data12_M_copy_dataERKSG_>
    94d2:	90                   	nop
    94d3:	48 8b 45 f8          	mov    -0x8(%rbp),%rax
    94d7:	64 48 2b 04 25 28 00 	sub    %fs:0x28,%rax
    94de:	00 00 
    94e0:	74 05                	je     94e7 <_ZNSt12_Vector_baseISt3mapINSt7__cxx1112basic_stringIcSt11char_traitsIcESaIcEEES6_St4lessIS6_ESaISt4pairIKS6_S6_EEESaISD_EE17_Vector_impl_data12_M_swap_dataERSG_+0x7d>
    94e2:	e8 99 a2 ff ff       	call   3780 <_init+0x780>
    94e7:	c9                   	leave  
    94e8:	c3                   	ret    
    94e9:	90                   	nop

00000000000094ea <_ZNSt15__new_allocatorISt3mapINSt7__cxx1112basic_stringIcSt11char_traitsIcESaIcEEES6_St4lessIS6_ESaISt4pairIKS6_S6_EEEE10deallocateEPSD_m>:
    94ea:	f3 0f 1e fa          	endbr64 
    94ee:	55                   	push   %rbp
    94ef:	48 89 e5             	mov    %rsp,%rbp
    94f2:	48 83 ec 20          	sub    $0x20,%rsp
    94f6:	48 89 7d f8          	mov    %rdi,-0x8(%rbp)
    94fa:	48 89 75 f0          	mov    %rsi,-0x10(%rbp)
    94fe:	48 89 55 e8          	mov    %rdx,-0x18(%rbp)
    9502:	48 8b 55 e8          	mov    -0x18(%rbp),%rdx
    9506:	48 89 d0             	mov    %rdx,%rax
    9509:	48 01 c0             	add    %rax,%rax
    950c:	48 01 d0             	add    %rdx,%rax
    950f:	48 c1 e0 04          	shl    $0x4,%rax
    9513:	48 89 c2             	mov    %rax,%rdx
    9516:	48 8b 45 f0          	mov    -0x10(%rbp),%rax
    951a:	48 89 d6             	mov    %rdx,%rsi
    951d:	48 89 c7             	mov    %rax,%rdi
    9520:	e8 cb a1 ff ff       	call   36f0 <_init+0x6f0>
    9525:	c9                   	leave  
    9526:	c3                   	ret    

0000000000009527 <_ZNSt12_Destroy_auxILb0EE9__destroyIPSt3mapINSt7__cxx1112basic_stringIcSt11char_traitsIcESaIcEEES8_St4lessIS8_ESaISt4pairIKS8_S8_EEEEEvT_SH_>:
    9527:	f3 0f 1e fa          	endbr64 
    952b:	55                   	push   %rbp
    952c:	48 89 e5             	mov    %rsp,%rbp
    952f:	48 83 ec 10          	sub    $0x10,%rsp
    9533:	48 89 7d f8          	mov    %rdi,-0x8(%rbp)
    9537:	48 89 75 f0          	mov    %rsi,-0x10(%rbp)
    953b:	eb 19                	jmp    9556 <_ZNSt12_Destroy_auxILb0EE9__destroyIPSt3mapINSt7__cxx1112basic_stringIcSt11char_traitsIcESaIcEEES8_St4lessIS8_ESaISt4pairIKS8_S8_EEEEEvT_SH_+0x2f>
    953d:	48 8b 45 f8          	mov    -0x8(%rbp),%rax
    9541:	48 89 c7             	mov    %rax,%rdi
    9544:	e8 f6 0e 00 00       	call   a43f <_ZSt11__addressofISt3mapINSt7__cxx1112basic_stringIcSt11char_traitsIcESaIcEEES6_St4lessIS6_ESaISt4pairIKS6_S6_EEEEPT_RSE_>
    9549:	48 89 c7             	mov    %rax,%rdi
    954c:	e8 00 0f 00 00       	call   a451 <_ZSt8_DestroyISt3mapINSt7__cxx1112basic_stringIcSt11char_traitsIcESaIcEEES6_St4lessIS6_ESaISt4pairIKS6_S6_EEEEvPT_>
    9551:	48 83 45 f8 30       	addq   $0x30,-0x8(%rbp)
    9556:	48 8b 45 f8          	mov    -0x8(%rbp),%rax
    955a:	48 3b 45 f0          	cmp    -0x10(%rbp),%rax
    955e:	75 dd                	jne    953d <_ZNSt12_Destroy_auxILb0EE9__destroyIPSt3mapINSt7__cxx1112basic_stringIcSt11char_traitsIcESaIcEEES8_St4lessIS8_ESaISt4pairIKS8_S8_EEEEEvT_SH_+0x16>
    9560:	90                   	nop
    9561:	90                   	nop
    9562:	c9                   	leave  
    9563:	c3                   	ret    

0000000000009564 <_ZNSt8_Rb_treeINSt7__cxx1112basic_stringIcSt11char_traitsIcESaIcEEESt4pairIKS5_S5_ESt10_Select1stIS8_ESt4lessIS5_ESaIS8_EE15_M_destroy_nodeEPSt13_Rb_tree_nodeIS8_E>:
    9564:	f3 0f 1e fa          	endbr64 
    9568:	55                   	push   %rbp
    9569:	48 89 e5             	mov    %rsp,%rbp
    956c:	53                   	push   %rbx
    956d:	48 83 ec 38          	sub    $0x38,%rsp
    9571:	48 89 7d c8          	mov    %rdi,-0x38(%rbp)
    9575:	48 89 75 c0          	mov    %rsi,-0x40(%rbp)
    9579:	48 8b 45 c0          	mov    -0x40(%rbp),%rax
    957d:	48 89 c7             	mov    %rax,%rdi
    9580:	e8 1b ef ff ff       	call   84a0 <_ZNSt13_Rb_tree_nodeISt4pairIKNSt7__cxx1112basic_stringIcSt11char_traitsIcESaIcEEES6_EE9_M_valptrEv>
    9585:	48 89 c3             	mov    %rax,%rbx
    9588:	48 8b 45 c8          	mov    -0x38(%rbp),%rax
    958c:	48 89 c7             	mov    %rax,%rdi
    958f:	e8 dc 0e 00 00       	call   a470 <_ZNSt8_Rb_treeINSt7__cxx1112basic_stringIcSt11char_traitsIcESaIcEEESt4pairIKS5_S5_ESt10_Select1stIS8_ESt4lessIS5_ESaIS8_EE21_M_get_Node_allocatorEv>
    9594:	48 89 45 d0          	mov    %rax,-0x30(%rbp)
    9598:	48 89 5d d8          	mov    %rbx,-0x28(%rbp)
    959c:	48 8b 45 d0          	mov    -0x30(%rbp),%rax
    95a0:	48 89 45 e0          	mov    %rax,-0x20(%rbp)
    95a4:	48 8b 45 d8          	mov    -0x28(%rbp),%rax
    95a8:	48 89 45 e8          	mov    %rax,-0x18(%rbp)
    95ac:	48 8b 45 e8          	mov    -0x18(%rbp),%rax
    95b0:	48 89 c7             	mov    %rax,%rdi
    95b3:	e8 9a 19 00 00       	call   af52 <_ZNSt4pairIKNSt7__cxx1112basic_stringIcSt11char_traitsIcESaIcEEES5_ED1Ev>
    95b8:	90                   	nop
    95b9:	90                   	nop
    95ba:	90                   	nop
    95bb:	48 8b 5d f8          	mov    -0x8(%rbp),%rbx
    95bf:	c9                   	leave  
    95c0:	c3                   	ret    
    95c1:	90                   	nop

00000000000095c2 <_ZNSt8_Rb_treeINSt7__cxx1112basic_stringIcSt11char_traitsIcESaIcEEESt4pairIKS5_S5_ESt10_Select1stIS8_ESt4lessIS5_ESaIS8_EE11_M_put_nodeEPSt13_Rb_tree_nodeIS8_E>:
    95c2:	f3 0f 1e fa          	endbr64 
    95c6:	55                   	push   %rbp
    95c7:	48 89 e5             	mov    %rsp,%rbp
    95ca:	48 83 ec 30          	sub    $0x30,%rsp
    95ce:	48 89 7d d8          	mov    %rdi,-0x28(%rbp)
    95d2:	48 89 75 d0          	mov    %rsi,-0x30(%rbp)
    95d6:	48 8b 45 d8          	mov    -0x28(%rbp),%rax
    95da:	48 89 c7             	mov    %rax,%rdi
    95dd:	e8 8e 0e 00 00       	call   a470 <_ZNSt8_Rb_treeINSt7__cxx1112basic_stringIcSt11char_traitsIcESaIcEEESt4pairIKS5_S5_ESt10_Select1stIS8_ESt4lessIS5_ESaIS8_EE21_M_get_Node_allocatorEv>
    95e2:	48 89 45 e8          	mov    %rax,-0x18(%rbp)
    95e6:	48 8b 45 d0          	mov    -0x30(%rbp),%rax
    95ea:	48 89 45 f0          	mov    %rax,-0x10(%rbp)
    95ee:	48 c7 45 f8 01 00 00 	movq   $0x1,-0x8(%rbp)
    95f5:	00 
    95f6:	48 8b 55 f8          	mov    -0x8(%rbp),%rdx
    95fa:	48 8b 4d f0          	mov    -0x10(%rbp),%rcx
    95fe:	48 8b 45 e8          	mov    -0x18(%rbp),%rax
    9602:	48 89 ce             	mov    %rcx,%rsi
    9605:	48 89 c7             	mov    %rax,%rdi
    9608:	e8 75 19 00 00       	call   af82 <_ZNSt15__new_allocatorISt13_Rb_tree_nodeISt4pairIKNSt7__cxx1112basic_stringIcSt11char_traitsIcESaIcEEES7_EEE10deallocateEPSA_m>
    960d:	90                   	nop
    960e:	90                   	nop
    960f:	c9                   	leave  
    9610:	c3                   	ret    
    9611:	90                   	nop

0000000000009612 <_ZNSt8_Rb_treeINSt7__cxx1112basic_stringIcSt11char_traitsIcESaIcEEESt4pairIKS5_S5_ESt10_Select1stIS8_ESt4lessIS5_ESaIS8_EE6_M_endEv>:
    9612:	f3 0f 1e fa          	endbr64 
    9616:	55                   	push   %rbp
    9617:	48 89 e5             	mov    %rsp,%rbp
    961a:	48 89 7d f8          	mov    %rdi,-0x8(%rbp)
    961e:	48 8b 45 f8          	mov    -0x8(%rbp),%rax
    9622:	48 83 c0 08          	add    $0x8,%rax
    9626:	5d                   	pop    %rbp
    9627:	c3                   	ret    

0000000000009628 <_ZNSt8_Rb_treeINSt7__cxx1112basic_stringIcSt11char_traitsIcESaIcEEESt4pairIKS5_S5_ESt10_Select1stIS8_ESt4lessIS5_ESaIS8_EE14_M_lower_boundEPSt13_Rb_tree_nodeIS8_EPSt18_Rb_tree_node_baseRS7_>:
    9628:	f3 0f 1e fa          	endbr64 
    962c:	55                   	push   %rbp
    962d:	48 89 e5             	mov    %rsp,%rbp
    9630:	53                   	push   %rbx
    9631:	48 83 ec 38          	sub    $0x38,%rsp
    9635:	48 89 7d d8          	mov    %rdi,-0x28(%rbp)
    9639:	48 89 75 d0          	mov    %rsi,-0x30(%rbp)
    963d:	48 89 55 c8          	mov    %rdx,-0x38(%rbp)
    9641:	48 89 4d c0          	mov    %rcx,-0x40(%rbp)
    9645:	64 48 8b 04 25 28 00 	mov    %fs:0x28,%rax
    964c:	00 00 
    964e:	48 89 45 e8          	mov    %rax,-0x18(%rbp)
    9652:	31 c0                	xor    %eax,%eax
    9654:	eb 56                	jmp    96ac <_ZNSt8_Rb_treeINSt7__cxx1112basic_stringIcSt11char_traitsIcESaIcEEESt4pairIKS5_S5_ESt10_Select1stIS8_ESt4lessIS5_ESaIS8_EE14_M_lower_boundEPSt13_Rb_tree_nodeIS8_EPSt18_Rb_tree_node_baseRS7_+0x84>
    9656:	48 8b 5d d8          	mov    -0x28(%rbp),%rbx
    965a:	48 8b 45 d0          	mov    -0x30(%rbp),%rax
    965e:	48 89 c7             	mov    %rax,%rdi
    9661:	e8 6c 04 00 00       	call   9ad2 <_ZNSt8_Rb_treeINSt7__cxx1112basic_stringIcSt11char_traitsIcESaIcEEESt4pairIKS5_S5_ESt10_Select1stIS8_ESt4lessIS5_ESaIS8_EE6_S_keyEPKSt13_Rb_tree_nodeIS8_E>
    9666:	48 89 c1             	mov    %rax,%rcx
    9669:	48 8b 45 c0          	mov    -0x40(%rbp),%rax
    966d:	48 89 c2             	mov    %rax,%rdx
    9670:	48 89 ce             	mov    %rcx,%rsi
    9673:	48 89 df             	mov    %rbx,%rdi
    9676:	e8 f5 d9 ff ff       	call   7070 <_ZNKSt4lessINSt7__cxx1112basic_stringIcSt11char_traitsIcESaIcEEEEclERKS5_S8_>
    967b:	83 f0 01             	xor    $0x1,%eax
    967e:	84 c0                	test   %al,%al
    9680:	74 1a                	je     969c <_ZNSt8_Rb_treeINSt7__cxx1112basic_stringIcSt11char_traitsIcESaIcEEESt4pairIKS5_S5_ESt10_Select1stIS8_ESt4lessIS5_ESaIS8_EE14_M_lower_boundEPSt13_Rb_tree_nodeIS8_EPSt18_Rb_tree_node_baseRS7_+0x74>
    9682:	48 8b 45 d0          	mov    -0x30(%rbp),%rax
    9686:	48 89 45 c8          	mov    %rax,-0x38(%rbp)
    968a:	48 8b 45 d0          	mov    -0x30(%rbp),%rax
    968e:	48 89 c7             	mov    %rax,%rdi
    9691:	e8 f0 ec ff ff       	call   8386 <_ZNSt8_Rb_treeINSt7__cxx1112basic_stringIcSt11char_traitsIcESaIcEEESt4pairIKS5_S5_ESt10_Select1stIS8_ESt4lessIS5_ESaIS8_EE7_S_leftEPSt18_Rb_tree_node_base>
    9696:	48 89 45 d0          	mov    %rax,-0x30(%rbp)
    969a:	eb 10                	jmp    96ac <_ZNSt8_Rb_treeINSt7__cxx1112basic_stringIcSt11char_traitsIcESaIcEEESt4pairIKS5_S5_ESt10_Select1stIS8_ESt4lessIS5_ESaIS8_EE14_M_lower_boundEPSt13_Rb_tree_nodeIS8_EPSt18_Rb_tree_node_baseRS7_+0x84>
    969c:	48 8b 45 d0          	mov    -0x30(%rbp),%rax
    96a0:	48 89 c7             	mov    %rax,%rdi
    96a3:	e8 c8 ec ff ff       	call   8370 <_ZNSt8_Rb_treeINSt7__cxx1112basic_stringIcSt11char_traitsIcESaIcEEESt4pairIKS5_S5_ESt10_Select1stIS8_ESt4lessIS5_ESaIS8_EE8_S_rightEPSt18_Rb_tree_node_base>
    96a8:	48 89 45 d0          	mov    %rax,-0x30(%rbp)
    96ac:	48 83 7d d0 00       	cmpq   $0x0,-0x30(%rbp)
    96b1:	75 a3                	jne    9656 <_ZNSt8_Rb_treeINSt7__cxx1112basic_stringIcSt11char_traitsIcESaIcEEESt4pairIKS5_S5_ESt10_Select1stIS8_ESt4lessIS5_ESaIS8_EE14_M_lower_boundEPSt13_Rb_tree_nodeIS8_EPSt18_Rb_tree_node_baseRS7_+0x2e>
    96b3:	48 8b 55 c8          	mov    -0x38(%rbp),%rdx
    96b7:	48 8d 45 e0          	lea    -0x20(%rbp),%rax
    96bb:	48 89 d6             	mov    %rdx,%rsi
    96be:	48 89 c7             	mov    %rax,%rdi
    96c1:	e8 88 f3 ff ff       	call   8a4e <_ZNSt17_Rb_tree_iteratorISt4pairIKNSt7__cxx1112basic_stringIcSt11char_traitsIcESaIcEEES6_EEC1EPSt18_Rb_tree_node_base>
    96c6:	48 8b 45 e0          	mov    -0x20(%rbp),%rax
    96ca:	48 8b 55 e8          	mov    -0x18(%rbp),%rdx
    96ce:	64 48 2b 14 25 28 00 	sub    %fs:0x28,%rdx
    96d5:	00 00 
    96d7:	74 05                	je     96de <_ZNSt8_Rb_treeINSt7__cxx1112basic_stringIcSt11char_traitsIcESaIcEEESt4pairIKS5_S5_ESt10_Select1stIS8_ESt4lessIS5_ESaIS8_EE14_M_lower_boundEPSt13_Rb_tree_nodeIS8_EPSt18_Rb_tree_node_baseRS7_+0xb6>
    96d9:	e8 a2 a0 ff ff       	call   3780 <_init+0x780>
    96de:	48 8b 5d f8          	mov    -0x8(%rbp),%rbx
    96e2:	c9                   	leave  
    96e3:	c3                   	ret    

00000000000096e4 <_ZN9__gnu_cxx16__aligned_membufISt4pairIKNSt7__cxx1112basic_stringIcSt11char_traitsIcESaIcEEES7_EE6_M_ptrEv>:
    96e4:	f3 0f 1e fa          	endbr64 
    96e8:	55                   	push   %rbp
    96e9:	48 89 e5             	mov    %rsp,%rbp
    96ec:	48 83 ec 10          	sub    $0x10,%rsp
    96f0:	48 89 7d f8          	mov    %rdi,-0x8(%rbp)
    96f4:	48 8b 45 f8          	mov    -0x8(%rbp),%rax
    96f8:	48 89 c7             	mov    %rax,%rdi
    96fb:	e8 82 0d 00 00       	call   a482 <_ZN9__gnu_cxx16__aligned_membufISt4pairIKNSt7__cxx1112basic_stringIcSt11char_traitsIcESaIcEEES7_EE7_M_addrEv>
    9700:	c9                   	leave  
    9701:	c3                   	ret    

0000000000009702 <_ZSt3minImERKT_S2_S2_>:
    9702:	f3 0f 1e fa          	endbr64 
    9706:	55                   	push   %rbp
    9707:	48 89 e5             	mov    %rsp,%rbp
    970a:	48 89 7d f8          	mov    %rdi,-0x8(%rbp)
    970e:	48 89 75 f0          	mov    %rsi,-0x10(%rbp)
    9712:	48 8b 45 f0          	mov    -0x10(%rbp),%rax
    9716:	48 8b 10             	mov    (%rax),%rdx
    9719:	48 8b 45 f8          	mov    -0x8(%rbp),%rax
    971d:	48 8b 00             	mov    (%rax),%rax
    9720:	48 39 c2             	cmp    %rax,%rdx
    9723:	73 06                	jae    972b <_ZSt3minImERKT_S2_S2_+0x29>
    9725:	48 8b 45 f0          	mov    -0x10(%rbp),%rax
    9729:	eb 04                	jmp    972f <_ZSt3minImERKT_S2_S2_+0x2d>
    972b:	48 8b 45 f8          	mov    -0x8(%rbp),%rax
    972f:	5d                   	pop    %rbp
    9730:	c3                   	ret    
    9731:	90                   	nop

0000000000009732 <_ZNSt10_Head_baseILm0ERKNSt7__cxx1112basic_stringIcSt11char_traitsIcESaIcEEELb0EEC1ES7_>:
    9732:	f3 0f 1e fa          	endbr64 
    9736:	55                   	push   %rbp
    9737:	48 89 e5             	mov    %rsp,%rbp
    973a:	48 89 7d f8          	mov    %rdi,-0x8(%rbp)
    973e:	48 89 75 f0          	mov    %rsi,-0x10(%rbp)
    9742:	48 8b 45 f8          	mov    -0x8(%rbp),%rax
    9746:	48 8b 55 f0          	mov    -0x10(%rbp),%rdx
    974a:	48 89 10             	mov    %rdx,(%rax)
    974d:	90                   	nop
    974e:	5d                   	pop    %rbp
    974f:	c3                   	ret    

0000000000009750 <_ZNSt8_Rb_treeINSt7__cxx1112basic_stringIcSt11char_traitsIcESaIcEEESt4pairIKS5_S5_ESt10_Select1stIS8_ESt4lessIS5_ESaIS8_EE14_M_create_nodeIJRKSt21piecewise_construct_tSt5tupleIJRS7_EESJ_IJEEEEEPSt13_Rb_tree_nodeIS8_EDpOT_>:
    9750:	f3 0f 1e fa          	endbr64 
    9754:	55                   	push   %rbp
    9755:	48 89 e5             	mov    %rsp,%rbp
    9758:	41 54                	push   %r12
    975a:	53                   	push   %rbx
    975b:	48 83 ec 30          	sub    $0x30,%rsp
    975f:	48 89 7d d8          	mov    %rdi,-0x28(%rbp)
    9763:	48 89 75 d0          	mov    %rsi,-0x30(%rbp)
    9767:	48 89 55 c8          	mov    %rdx,-0x38(%rbp)
    976b:	48 89 4d c0          	mov    %rcx,-0x40(%rbp)
    976f:	48 8b 45 d8          	mov    -0x28(%rbp),%rax
    9773:	48 89 c7             	mov    %rax,%rdi
    9776:	e8 19 0d 00 00       	call   a494 <_ZNSt8_Rb_treeINSt7__cxx1112basic_stringIcSt11char_traitsIcESaIcEEESt4pairIKS5_S5_ESt10_Select1stIS8_ESt4lessIS5_ESaIS8_EE11_M_get_nodeEv>
    977b:	48 89 45 e8          	mov    %rax,-0x18(%rbp)
    977f:	48 8b 45 c0          	mov    -0x40(%rbp),%rax
    9783:	48 89 c7             	mov    %rax,%rdi
    9786:	e8 b1 ed ff ff       	call   853c <_ZSt7forwardISt5tupleIJEEEOT_RNSt16remove_referenceIS2_E4typeE>
    978b:	49 89 c4             	mov    %rax,%r12
    978e:	48 8b 45 c8          	mov    -0x38(%rbp),%rax
    9792:	48 89 c7             	mov    %rax,%rdi
    9795:	e8 90 ed ff ff       	call   852a <_ZSt7forwardISt5tupleIJRKNSt7__cxx1112basic_stringIcSt11char_traitsIcESaIcEEEEEEOT_RNSt16remove_referenceISA_E4typeE>
    979a:	48 89 c3             	mov    %rax,%rbx
    979d:	48 8b 45 d0          	mov    -0x30(%rbp),%rax
    97a1:	48 89 c7             	mov    %rax,%rdi
    97a4:	e8 6f ed ff ff       	call   8518 <_ZSt7forwardIRKSt21piecewise_construct_tEOT_RNSt16remove_referenceIS3_E4typeE>
    97a9:	48 89 c2             	mov    %rax,%rdx
    97ac:	48 8b 75 e8          	mov    -0x18(%rbp),%rsi
    97b0:	48 8b 45 d8          	mov    -0x28(%rbp),%rax
    97b4:	4d 89 e0             	mov    %r12,%r8
    97b7:	48 89 d9             	mov    %rbx,%rcx
    97ba:	48 89 c7             	mov    %rax,%rdi
    97bd:	e8 16 0d 00 00       	call   a4d8 <_ZNSt8_Rb_treeINSt7__cxx1112basic_stringIcSt11char_traitsIcESaIcEEESt4pairIKS5_S5_ESt10_Select1stIS8_ESt4lessIS5_ESaIS8_EE17_M_construct_nodeIJRKSt21piecewise_construct_tSt5tupleIJRS7_EESJ_IJEEEEEvPSt13_Rb_tree_nodeIS8_EDpOT_>
    97c2:	48 8b 45 e8          	mov    -0x18(%rbp),%rax
    97c6:	48 83 c4 30          	add    $0x30,%rsp
    97ca:	5b                   	pop    %rbx
    97cb:	41 5c                	pop    %r12
    97cd:	5d                   	pop    %rbp
    97ce:	c3                   	ret    
    97cf:	90                   	nop

00000000000097d0 <_ZNKSt23_Rb_tree_const_iteratorISt4pairIKNSt7__cxx1112basic_stringIcSt11char_traitsIcESaIcEEES6_EE13_M_const_castEv>:
    97d0:	f3 0f 1e fa          	endbr64 
    97d4:	55                   	push   %rbp
    97d5:	48 89 e5             	mov    %rsp,%rbp
    97d8:	48 83 ec 20          	sub    $0x20,%rsp
    97dc:	48 89 7d e8          	mov    %rdi,-0x18(%rbp)
    97e0:	64 48 8b 04 25 28 00 	mov    %fs:0x28,%rax
    97e7:	00 00 
    97e9:	48 89 45 f8          	mov    %rax,-0x8(%rbp)
    97ed:	31 c0                	xor    %eax,%eax
    97ef:	48 8b 45 e8          	mov    -0x18(%rbp),%rax
    97f3:	48 8b 10             	mov    (%rax),%rdx
    97f6:	48 8d 45 f0          	lea    -0x10(%rbp),%rax
    97fa:	48 89 d6             	mov    %rdx,%rsi
    97fd:	48 89 c7             	mov    %rax,%rdi
    9800:	e8 49 f2 ff ff       	call   8a4e <_ZNSt17_Rb_tree_iteratorISt4pairIKNSt7__cxx1112basic_stringIcSt11char_traitsIcESaIcEEES6_EEC1EPSt18_Rb_tree_node_base>
    9805:	48 8b 45 f0          	mov    -0x10(%rbp),%rax
    9809:	48 8b 55 f8          	mov    -0x8(%rbp),%rdx
    980d:	64 48 2b 14 25 28 00 	sub    %fs:0x28,%rdx
    9814:	00 00 
    9816:	74 05                	je     981d <_ZNKSt23_Rb_tree_const_iteratorISt4pairIKNSt7__cxx1112basic_stringIcSt11char_traitsIcESaIcEEES6_EE13_M_const_castEv+0x4d>
    9818:	e8 63 9f ff ff       	call   3780 <_init+0x780>
    981d:	c9                   	leave  
    981e:	c3                   	ret    
    981f:	90                   	nop

0000000000009820 <_ZNKSt8_Rb_treeINSt7__cxx1112basic_stringIcSt11char_traitsIcESaIcEEESt4pairIKS5_S5_ESt10_Select1stIS8_ESt4lessIS5_ESaIS8_EE4sizeEv>:
    9820:	f3 0f 1e fa          	endbr64 
    9824:	55                   	push   %rbp
    9825:	48 89 e5             	mov    %rsp,%rbp
    9828:	48 89 7d f8          	mov    %rdi,-0x8(%rbp)
    982c:	48 8b 45 f8          	mov    -0x8(%rbp),%rax
    9830:	48 8b 40 28          	mov    0x28(%rax),%rax
    9834:	5d                   	pop    %rbp
    9835:	c3                   	ret    

0000000000009836 <_ZNSt8_Rb_treeINSt7__cxx1112basic_stringIcSt11char_traitsIcESaIcEEESt4pairIKS5_S5_ESt10_Select1stIS8_ESt4lessIS5_ESaIS8_EE12_M_rightmostEv>:
    9836:	f3 0f 1e fa          	endbr64 
    983a:	55                   	push   %rbp
    983b:	48 89 e5             	mov    %rsp,%rbp
    983e:	48 89 7d f8          	mov    %rdi,-0x8(%rbp)
    9842:	48 8b 45 f8          	mov    -0x8(%rbp),%rax
    9846:	48 83 c0 20          	add    $0x20,%rax
    984a:	5d                   	pop    %rbp
    984b:	c3                   	ret    

000000000000984c <_ZNSt4pairIPSt18_Rb_tree_node_baseS1_EC1IS1_S1_Lb1EEERKS1_S5_>:
    984c:	f3 0f 1e fa          	endbr64 
    9850:	55                   	push   %rbp
    9851:	48 89 e5             	mov    %rsp,%rbp
    9854:	48 89 7d f8          	mov    %rdi,-0x8(%rbp)
    9858:	48 89 75 f0          	mov    %rsi,-0x10(%rbp)
    985c:	48 89 55 e8          	mov    %rdx,-0x18(%rbp)
    9860:	48 8b 45 f0          	mov    -0x10(%rbp),%rax
    9864:	48 8b 10             	mov    (%rax),%rdx
    9867:	48 8b 45 f8          	mov    -0x8(%rbp),%rax
    986b:	48 89 10             	mov    %rdx,(%rax)
    986e:	48 8b 45 e8          	mov    -0x18(%rbp),%rax
    9872:	48 8b 10             	mov    (%rax),%rdx
    9875:	48 8b 45 f8          	mov    -0x8(%rbp),%rax
    9879:	48 89 50 08          	mov    %rdx,0x8(%rax)
    987d:	90                   	nop
    987e:	5d                   	pop    %rbp
    987f:	c3                   	ret    

0000000000009880 <_ZNSt8_Rb_treeINSt7__cxx1112basic_stringIcSt11char_traitsIcESaIcEEESt4pairIKS5_S5_ESt10_Select1stIS8_ESt4lessIS5_ESaIS8_EE24_M_get_insert_unique_posERS7_>:
    9880:	f3 0f 1e fa          	endbr64 
    9884:	55                   	push   %rbp
    9885:	48 89 e5             	mov    %rsp,%rbp
    9888:	53                   	push   %rbx
    9889:	48 83 ec 68          	sub    $0x68,%rsp
    988d:	48 89 7d 98          	mov    %rdi,-0x68(%rbp)
    9891:	48 89 75 90          	mov    %rsi,-0x70(%rbp)
    9895:	64 48 8b 04 25 28 00 	mov    %fs:0x28,%rax
    989c:	00 00 
    989e:	48 89 45 e8          	mov    %rax,-0x18(%rbp)
    98a2:	31 c0                	xor    %eax,%eax
    98a4:	48 8b 45 98          	mov    -0x68(%rbp),%rax
    98a8:	48 89 c7             	mov    %rax,%rdi
    98ab:	e8 f2 d6 ff ff       	call   6fa2 <_ZNSt8_Rb_treeINSt7__cxx1112basic_stringIcSt11char_traitsIcESaIcEEESt4pairIKS5_S5_ESt10_Select1stIS8_ESt4lessIS5_ESaIS8_EE8_M_beginEv>
    98b0:	48 89 45 b0          	mov    %rax,-0x50(%rbp)
    98b4:	48 8b 45 98          	mov    -0x68(%rbp),%rax
    98b8:	48 89 c7             	mov    %rax,%rdi
    98bb:	e8 52 fd ff ff       	call   9612 <_ZNSt8_Rb_treeINSt7__cxx1112basic_stringIcSt11char_traitsIcESaIcEEESt4pairIKS5_S5_ESt10_Select1stIS8_ESt4lessIS5_ESaIS8_EE6_M_endEv>
    98c0:	48 89 45 b8          	mov    %rax,-0x48(%rbp)
    98c4:	c6 45 af 01          	movb   $0x1,-0x51(%rbp)
    98c8:	eb 51                	jmp    991b <_ZNSt8_Rb_treeINSt7__cxx1112basic_stringIcSt11char_traitsIcESaIcEEESt4pairIKS5_S5_ESt10_Select1stIS8_ESt4lessIS5_ESaIS8_EE24_M_get_insert_unique_posERS7_+0x9b>
    98ca:	48 8b 45 b0          	mov    -0x50(%rbp),%rax
    98ce:	48 89 45 b8          	mov    %rax,-0x48(%rbp)
    98d2:	48 8b 5d 98          	mov    -0x68(%rbp),%rbx
    98d6:	48 8b 45 b0          	mov    -0x50(%rbp),%rax
    98da:	48 89 c7             	mov    %rax,%rdi
    98dd:	e8 f0 01 00 00       	call   9ad2 <_ZNSt8_Rb_treeINSt7__cxx1112basic_stringIcSt11char_traitsIcESaIcEEESt4pairIKS5_S5_ESt10_Select1stIS8_ESt4lessIS5_ESaIS8_EE6_S_keyEPKSt13_Rb_tree_nodeIS8_E>
    98e2:	48 89 c2             	mov    %rax,%rdx
    98e5:	48 8b 45 90          	mov    -0x70(%rbp),%rax
    98e9:	48 89 c6             	mov    %rax,%rsi
    98ec:	48 89 df             	mov    %rbx,%rdi
    98ef:	e8 7c d7 ff ff       	call   7070 <_ZNKSt4lessINSt7__cxx1112basic_stringIcSt11char_traitsIcESaIcEEEEclERKS5_S8_>
    98f4:	88 45 af             	mov    %al,-0x51(%rbp)
    98f7:	80 7d af 00          	cmpb   $0x0,-0x51(%rbp)
    98fb:	74 0e                	je     990b <_ZNSt8_Rb_treeINSt7__cxx1112basic_stringIcSt11char_traitsIcESaIcEEESt4pairIKS5_S5_ESt10_Select1stIS8_ESt4lessIS5_ESaIS8_EE24_M_get_insert_unique_posERS7_+0x8b>
    98fd:	48 8b 45 b0          	mov    -0x50(%rbp),%rax
    9901:	48 89 c7             	mov    %rax,%rdi
    9904:	e8 7d ea ff ff       	call   8386 <_ZNSt8_Rb_treeINSt7__cxx1112basic_stringIcSt11char_traitsIcESaIcEEESt4pairIKS5_S5_ESt10_Select1stIS8_ESt4lessIS5_ESaIS8_EE7_S_leftEPSt18_Rb_tree_node_base>
    9909:	eb 0c                	jmp    9917 <_ZNSt8_Rb_treeINSt7__cxx1112basic_stringIcSt11char_traitsIcESaIcEEESt4pairIKS5_S5_ESt10_Select1stIS8_ESt4lessIS5_ESaIS8_EE24_M_get_insert_unique_posERS7_+0x97>
    990b:	48 8b 45 b0          	mov    -0x50(%rbp),%rax
    990f:	48 89 c7             	mov    %rax,%rdi
    9912:	e8 59 ea ff ff       	call   8370 <_ZNSt8_Rb_treeINSt7__cxx1112basic_stringIcSt11char_traitsIcESaIcEEESt4pairIKS5_S5_ESt10_Select1stIS8_ESt4lessIS5_ESaIS8_EE8_S_rightEPSt18_Rb_tree_node_base>
    9917:	48 89 45 b0          	mov    %rax,-0x50(%rbp)
    991b:	48 8b 45 b0          	mov    -0x50(%rbp),%rax
    991f:	48 85 c0             	test   %rax,%rax
    9922:	75 a6                	jne    98ca <_ZNSt8_Rb_treeINSt7__cxx1112basic_stringIcSt11char_traitsIcESaIcEEESt4pairIKS5_S5_ESt10_Select1stIS8_ESt4lessIS5_ESaIS8_EE24_M_get_insert_unique_posERS7_+0x4a>
    9924:	48 8b 55 b8          	mov    -0x48(%rbp),%rdx
    9928:	48 8d 45 c0          	lea    -0x40(%rbp),%rax
    992c:	48 89 d6             	mov    %rdx,%rsi
    992f:	48 89 c7             	mov    %rax,%rdi
    9932:	e8 17 f1 ff ff       	call   8a4e <_ZNSt17_Rb_tree_iteratorISt4pairIKNSt7__cxx1112basic_stringIcSt11char_traitsIcESaIcEEES6_EEC1EPSt18_Rb_tree_node_base>
    9937:	80 7d af 00          	cmpb   $0x0,-0x51(%rbp)
    993b:	74 54                	je     9991 <_ZNSt8_Rb_treeINSt7__cxx1112basic_stringIcSt11char_traitsIcESaIcEEESt4pairIKS5_S5_ESt10_Select1stIS8_ESt4lessIS5_ESaIS8_EE24_M_get_insert_unique_posERS7_+0x111>
    993d:	48 8b 45 98          	mov    -0x68(%rbp),%rax
    9941:	48 89 c7             	mov    %rax,%rdi
    9944:	e8 a7 0d 00 00       	call   a6f0 <_ZNSt8_Rb_treeINSt7__cxx1112basic_stringIcSt11char_traitsIcESaIcEEESt4pairIKS5_S5_ESt10_Select1stIS8_ESt4lessIS5_ESaIS8_EE5beginEv>
    9949:	48 89 45 d0          	mov    %rax,-0x30(%rbp)
    994d:	48 8d 55 d0          	lea    -0x30(%rbp),%rdx
    9951:	48 8d 45 c0          	lea    -0x40(%rbp),%rax
    9955:	48 89 d6             	mov    %rdx,%rsi
    9958:	48 89 c7             	mov    %rax,%rdi
    995b:	e8 a8 d6 ff ff       	call   7008 <_ZSteqRKSt17_Rb_tree_iteratorISt4pairIKNSt7__cxx1112basic_stringIcSt11char_traitsIcESaIcEEES6_EESB_>
    9960:	84 c0                	test   %al,%al
    9962:	74 21                	je     9985 <_ZNSt8_Rb_treeINSt7__cxx1112basic_stringIcSt11char_traitsIcESaIcEEESt4pairIKS5_S5_ESt10_Select1stIS8_ESt4lessIS5_ESaIS8_EE24_M_get_insert_unique_posERS7_+0x105>
    9964:	48 8d 55 b8          	lea    -0x48(%rbp),%rdx
    9968:	48 8d 4d b0          	lea    -0x50(%rbp),%rcx
    996c:	48 8d 45 d0          	lea    -0x30(%rbp),%rax
    9970:	48 89 ce             	mov    %rcx,%rsi
    9973:	48 89 c7             	mov    %rax,%rdi
    9976:	e8 c5 0d 00 00       	call   a740 <_ZNSt4pairIPSt18_Rb_tree_node_baseS1_EC1IRPSt13_Rb_tree_nodeIS_IKNSt7__cxx1112basic_stringIcSt11char_traitsIcESaIcEEESA_EERS1_Lb1EEEOT_OT0_>
    997b:	48 8b 45 d0          	mov    -0x30(%rbp),%rax
    997f:	48 8b 55 d8          	mov    -0x28(%rbp),%rdx
    9983:	eb 7d                	jmp    9a02 <_ZNSt8_Rb_treeINSt7__cxx1112basic_stringIcSt11char_traitsIcESaIcEEESt4pairIKS5_S5_ESt10_Select1stIS8_ESt4lessIS5_ESaIS8_EE24_M_get_insert_unique_posERS7_+0x182>
    9985:	48 8d 45 c0          	lea    -0x40(%rbp),%rax
    9989:	48 89 c7             	mov    %rax,%rdi
    998c:	e8 e9 00 00 00       	call   9a7a <_ZNSt17_Rb_tree_iteratorISt4pairIKNSt7__cxx1112basic_stringIcSt11char_traitsIcESaIcEEES6_EEmmEv>
    9991:	48 8b 5d 98          	mov    -0x68(%rbp),%rbx
    9995:	48 8b 45 c0          	mov    -0x40(%rbp),%rax
    9999:	48 89 c7             	mov    %rax,%rdi
    999c:	e8 ed f3 ff ff       	call   8d8e <_ZNSt8_Rb_treeINSt7__cxx1112basic_stringIcSt11char_traitsIcESaIcEEESt4pairIKS5_S5_ESt10_Select1stIS8_ESt4lessIS5_ESaIS8_EE6_S_keyEPKSt18_Rb_tree_node_base>
    99a1:	48 89 c1             	mov    %rax,%rcx
    99a4:	48 8b 45 90          	mov    -0x70(%rbp),%rax
    99a8:	48 89 c2             	mov    %rax,%rdx
    99ab:	48 89 ce             	mov    %rcx,%rsi
    99ae:	48 89 df             	mov    %rbx,%rdi
    99b1:	e8 ba d6 ff ff       	call   7070 <_ZNKSt4lessINSt7__cxx1112basic_stringIcSt11char_traitsIcESaIcEEEEclERKS5_S8_>
    99b6:	84 c0                	test   %al,%al
    99b8:	74 21                	je     99db <_ZNSt8_Rb_treeINSt7__cxx1112basic_stringIcSt11char_traitsIcESaIcEEESt4pairIKS5_S5_ESt10_Select1stIS8_ESt4lessIS5_ESaIS8_EE24_M_get_insert_unique_posERS7_+0x15b>
    99ba:	48 8d 55 b8          	lea    -0x48(%rbp),%rdx
    99be:	48 8d 4d b0          	lea    -0x50(%rbp),%rcx
    99c2:	48 8d 45 d0          	lea    -0x30(%rbp),%rax
    99c6:	48 89 ce             	mov    %rcx,%rsi
    99c9:	48 89 c7             	mov    %rax,%rdi
    99cc:	e8 6f 0d 00 00       	call   a740 <_ZNSt4pairIPSt18_Rb_tree_node_baseS1_EC1IRPSt13_Rb_tree_nodeIS_IKNSt7__cxx1112basic_stringIcSt11char_traitsIcESaIcEEESA_EERS1_Lb1EEEOT_OT0_>
    99d1:	48 8b 45 d0          	mov    -0x30(%rbp),%rax
    99d5:	48 8b 55 d8          	mov    -0x28(%rbp),%rdx
    99d9:	eb 27                	jmp    9a02 <_ZNSt8_Rb_treeINSt7__cxx1112basic_stringIcSt11char_traitsIcESaIcEEESt4pairIKS5_S5_ESt10_Select1stIS8_ESt4lessIS5_ESaIS8_EE24_M_get_insert_unique_posERS7_+0x182>
    99db:	48 c7 45 c8 00 00 00 	movq   $0x0,-0x38(%rbp)
    99e2:	00 
    99e3:	48 8d 55 c8          	lea    -0x38(%rbp),%rdx
    99e7:	48 8d 4d c0          	lea    -0x40(%rbp),%rcx
    99eb:	48 8d 45 d0          	lea    -0x30(%rbp),%rax
    99ef:	48 89 ce             	mov    %rcx,%rsi
    99f2:	48 89 c7             	mov    %rax,%rdi
    99f5:	e8 52 fe ff ff       	call   984c <_ZNSt4pairIPSt18_Rb_tree_node_baseS1_EC1IS1_S1_Lb1EEERKS1_S5_>
    99fa:	48 8b 45 d0          	mov    -0x30(%rbp),%rax
    99fe:	48 8b 55 d8          	mov    -0x28(%rbp),%rdx
    9a02:	48 8b 4d e8          	mov    -0x18(%rbp),%rcx
    9a06:	64 48 2b 0c 25 28 00 	sub    %fs:0x28,%rcx
    9a0d:	00 00 
    9a0f:	74 05                	je     9a16 <_ZNSt8_Rb_treeINSt7__cxx1112basic_stringIcSt11char_traitsIcESaIcEEESt4pairIKS5_S5_ESt10_Select1stIS8_ESt4lessIS5_ESaIS8_EE24_M_get_insert_unique_posERS7_+0x196>
    9a11:	e8 6a 9d ff ff       	call   3780 <_init+0x780>
    9a16:	48 8b 5d f8          	mov    -0x8(%rbp),%rbx
    9a1a:	c9                   	leave  
    9a1b:	c3                   	ret    

0000000000009a1c <_ZNSt8_Rb_treeINSt7__cxx1112basic_stringIcSt11char_traitsIcESaIcEEESt4pairIKS5_S5_ESt10_Select1stIS8_ESt4lessIS5_ESaIS8_EE11_M_leftmostEv>:
    9a1c:	f3 0f 1e fa          	endbr64 
    9a20:	55                   	push   %rbp
    9a21:	48 89 e5             	mov    %rsp,%rbp
    9a24:	48 89 7d f8          	mov    %rdi,-0x8(%rbp)
    9a28:	48 8b 45 f8          	mov    -0x8(%rbp),%rax
    9a2c:	48 83 c0 18          	add    $0x18,%rax
    9a30:	5d                   	pop    %rbp
    9a31:	c3                   	ret    

0000000000009a32 <_ZNSt4pairIPSt18_Rb_tree_node_baseS1_EC1IRS1_S4_Lb1EEEOT_OT0_>:
    9a32:	f3 0f 1e fa          	endbr64 
    9a36:	55                   	push   %rbp
    9a37:	48 89 e5             	mov    %rsp,%rbp
    9a3a:	48 83 ec 20          	sub    $0x20,%rsp
    9a3e:	48 89 7d f8          	mov    %rdi,-0x8(%rbp)
    9a42:	48 89 75 f0          	mov    %rsi,-0x10(%rbp)
    9a46:	48 89 55 e8          	mov    %rdx,-0x18(%rbp)
    9a4a:	48 8b 45 f0          	mov    -0x10(%rbp),%rax
    9a4e:	48 89 c7             	mov    %rax,%rdi
    9a51:	e8 32 0d 00 00       	call   a788 <_ZSt7forwardIRPSt18_Rb_tree_node_baseEOT_RNSt16remove_referenceIS3_E4typeE>
    9a56:	48 8b 10             	mov    (%rax),%rdx
    9a59:	48 8b 45 f8          	mov    -0x8(%rbp),%rax
    9a5d:	48 89 10             	mov    %rdx,(%rax)
    9a60:	48 8b 45 e8          	mov    -0x18(%rbp),%rax
    9a64:	48 89 c7             	mov    %rax,%rdi
    9a67:	e8 1c 0d 00 00       	call   a788 <_ZSt7forwardIRPSt18_Rb_tree_node_baseEOT_RNSt16remove_referenceIS3_E4typeE>
    9a6c:	48 8b 10             	mov    (%rax),%rdx
    9a6f:	48 8b 45 f8          	mov    -0x8(%rbp),%rax
    9a73:	48 89 50 08          	mov    %rdx,0x8(%rax)
    9a77:	90                   	nop
    9a78:	c9                   	leave  
    9a79:	c3                   	ret    

0000000000009a7a <_ZNSt17_Rb_tree_iteratorISt4pairIKNSt7__cxx1112basic_stringIcSt11char_traitsIcESaIcEEES6_EEmmEv>:
    9a7a:	f3 0f 1e fa          	endbr64 
    9a7e:	55                   	push   %rbp
    9a7f:	48 89 e5             	mov    %rsp,%rbp
    9a82:	48 83 ec 10          	sub    $0x10,%rsp
    9a86:	48 89 7d f8          	mov    %rdi,-0x8(%rbp)
    9a8a:	48 8b 45 f8          	mov    -0x8(%rbp),%rax
    9a8e:	48 8b 00             	mov    (%rax),%rax
    9a91:	48 89 c7             	mov    %rax,%rdi
    9a94:	e8 87 9c ff ff       	call   3720 <_init+0x720>
    9a99:	48 8b 55 f8          	mov    -0x8(%rbp),%rdx
    9a9d:	48 89 02             	mov    %rax,(%rdx)
    9aa0:	48 8b 45 f8          	mov    -0x8(%rbp),%rax
    9aa4:	c9                   	leave  
    9aa5:	c3                   	ret    

0000000000009aa6 <_ZNSt17_Rb_tree_iteratorISt4pairIKNSt7__cxx1112basic_stringIcSt11char_traitsIcESaIcEEES6_EEppEv>:
    9aa6:	f3 0f 1e fa          	endbr64 
    9aaa:	55                   	push   %rbp
    9aab:	48 89 e5             	mov    %rsp,%rbp
    9aae:	48 83 ec 10          	sub    $0x10,%rsp
    9ab2:	48 89 7d f8          	mov    %rdi,-0x8(%rbp)
    9ab6:	48 8b 45 f8          	mov    -0x8(%rbp),%rax
    9aba:	48 8b 00             	mov    (%rax),%rax
    9abd:	48 89 c7             	mov    %rax,%rdi
    9ac0:	e8 6b 9b ff ff       	call   3630 <_init+0x630>
    9ac5:	48 8b 55 f8          	mov    -0x8(%rbp),%rdx
    9ac9:	48 89 02             	mov    %rax,(%rdx)
    9acc:	48 8b 45 f8          	mov    -0x8(%rbp),%rax
    9ad0:	c9                   	leave  
    9ad1:	c3                   	ret    

0000000000009ad2 <_ZNSt8_Rb_treeINSt7__cxx1112basic_stringIcSt11char_traitsIcESaIcEEESt4pairIKS5_S5_ESt10_Select1stIS8_ESt4lessIS5_ESaIS8_EE6_S_keyEPKSt13_Rb_tree_nodeIS8_E>:
    9ad2:	f3 0f 1e fa          	endbr64 
    9ad6:	55                   	push   %rbp
    9ad7:	48 89 e5             	mov    %rsp,%rbp
    9ada:	48 83 ec 20          	sub    $0x20,%rsp
    9ade:	48 89 7d e8          	mov    %rdi,-0x18(%rbp)
    9ae2:	64 48 8b 04 25 28 00 	mov    %fs:0x28,%rax
    9ae9:	00 00 
    9aeb:	48 89 45 f8          	mov    %rax,-0x8(%rbp)
    9aef:	31 c0                	xor    %eax,%eax
    9af1:	48 8b 45 e8          	mov    -0x18(%rbp),%rax
    9af5:	48 89 c7             	mov    %rax,%rdi
    9af8:	e8 fd dc ff ff       	call   77fa <_ZNKSt13_Rb_tree_nodeISt4pairIKNSt7__cxx1112basic_stringIcSt11char_traitsIcESaIcEEES6_EE9_M_valptrEv>
    9afd:	48 89 c2             	mov    %rax,%rdx
    9b00:	48 8d 45 f7          	lea    -0x9(%rbp),%rax
    9b04:	48 89 d6             	mov    %rdx,%rsi
    9b07:	48 89 c7             	mov    %rax,%rdi
    9b0a:	e8 8b 0c 00 00       	call   a79a <_ZNKSt10_Select1stISt4pairIKNSt7__cxx1112basic_stringIcSt11char_traitsIcESaIcEEES6_EEclERKS8_>
    9b0f:	48 8b 55 f8          	mov    -0x8(%rbp),%rdx
    9b13:	64 48 2b 14 25 28 00 	sub    %fs:0x28,%rdx
    9b1a:	00 00 
    9b1c:	74 05                	je     9b23 <_ZNSt8_Rb_treeINSt7__cxx1112basic_stringIcSt11char_traitsIcESaIcEEESt4pairIKS5_S5_ESt10_Select1stIS8_ESt4lessIS5_ESaIS8_EE6_S_keyEPKSt13_Rb_tree_nodeIS8_E+0x51>
    9b1e:	e8 5d 9c ff ff       	call   3780 <_init+0x780>
    9b23:	c9                   	leave  
    9b24:	c3                   	ret    
    9b25:	90                   	nop

0000000000009b26 <_ZNSt8_Rb_treeINSt7__cxx1112basic_stringIcSt11char_traitsIcESaIcEEESt4pairIKS5_S5_ESt10_Select1stIS8_ESt4lessIS5_ESaIS8_EE14_M_insert_nodeEPSt18_Rb_tree_node_baseSG_PSt13_Rb_tree_nodeIS8_E>:
    9b26:	f3 0f 1e fa          	endbr64 
    9b2a:	55                   	push   %rbp
    9b2b:	48 89 e5             	mov    %rsp,%rbp
    9b2e:	41 54                	push   %r12
    9b30:	53                   	push   %rbx
    9b31:	48 83 ec 40          	sub    $0x40,%rsp
    9b35:	48 89 7d c8          	mov    %rdi,-0x38(%rbp)
    9b39:	48 89 75 c0          	mov    %rsi,-0x40(%rbp)
    9b3d:	48 89 55 b8          	mov    %rdx,-0x48(%rbp)
    9b41:	48 89 4d b0          	mov    %rcx,-0x50(%rbp)
    9b45:	64 48 8b 04 25 28 00 	mov    %fs:0x28,%rax
    9b4c:	00 00 
    9b4e:	48 89 45 e8          	mov    %rax,-0x18(%rbp)
    9b52:	31 c0                	xor    %eax,%eax
    9b54:	48 83 7d c0 00       	cmpq   $0x0,-0x40(%rbp)
    9b59:	75 43                	jne    9b9e <_ZNSt8_Rb_treeINSt7__cxx1112basic_stringIcSt11char_traitsIcESaIcEEESt4pairIKS5_S5_ESt10_Select1stIS8_ESt4lessIS5_ESaIS8_EE14_M_insert_nodeEPSt18_Rb_tree_node_baseSG_PSt13_Rb_tree_nodeIS8_E+0x78>
    9b5b:	48 8b 45 c8          	mov    -0x38(%rbp),%rax
    9b5f:	48 89 c7             	mov    %rax,%rdi
    9b62:	e8 ab fa ff ff       	call   9612 <_ZNSt8_Rb_treeINSt7__cxx1112basic_stringIcSt11char_traitsIcESaIcEEESt4pairIKS5_S5_ESt10_Select1stIS8_ESt4lessIS5_ESaIS8_EE6_M_endEv>
    9b67:	48 39 45 b8          	cmp    %rax,-0x48(%rbp)
    9b6b:	74 31                	je     9b9e <_ZNSt8_Rb_treeINSt7__cxx1112basic_stringIcSt11char_traitsIcESaIcEEESt4pairIKS5_S5_ESt10_Select1stIS8_ESt4lessIS5_ESaIS8_EE14_M_insert_nodeEPSt18_Rb_tree_node_baseSG_PSt13_Rb_tree_nodeIS8_E+0x78>
    9b6d:	48 8b 5d c8          	mov    -0x38(%rbp),%rbx
    9b71:	48 8b 45 b8          	mov    -0x48(%rbp),%rax
    9b75:	48 89 c7             	mov    %rax,%rdi
    9b78:	e8 11 f2 ff ff       	call   8d8e <_ZNSt8_Rb_treeINSt7__cxx1112basic_stringIcSt11char_traitsIcESaIcEEESt4pairIKS5_S5_ESt10_Select1stIS8_ESt4lessIS5_ESaIS8_EE6_S_keyEPKSt18_Rb_tree_node_base>
    9b7d:	49 89 c4             	mov    %rax,%r12
    9b80:	48 8b 45 b0          	mov    -0x50(%rbp),%rax
    9b84:	48 89 c7             	mov    %rax,%rdi
    9b87:	e8 46 ff ff ff       	call   9ad2 <_ZNSt8_Rb_treeINSt7__cxx1112basic_stringIcSt11char_traitsIcESaIcEEESt4pairIKS5_S5_ESt10_Select1stIS8_ESt4lessIS5_ESaIS8_EE6_S_keyEPKSt13_Rb_tree_nodeIS8_E>
    9b8c:	4c 89 e2             	mov    %r12,%rdx
    9b8f:	48 89 c6             	mov    %rax,%rsi
    9b92:	48 89 df             	mov    %rbx,%rdi
    9b95:	e8 d6 d4 ff ff       	call   7070 <_ZNKSt4lessINSt7__cxx1112basic_stringIcSt11char_traitsIcESaIcEEEEclERKS5_S8_>
    9b9a:	84 c0                	test   %al,%al
    9b9c:	74 07                	je     9ba5 <_ZNSt8_Rb_treeINSt7__cxx1112basic_stringIcSt11char_traitsIcESaIcEEESt4pairIKS5_S5_ESt10_Select1stIS8_ESt4lessIS5_ESaIS8_EE14_M_insert_nodeEPSt18_Rb_tree_node_baseSG_PSt13_Rb_tree_nodeIS8_E+0x7f>
    9b9e:	b8 01 00 00 00       	mov    $0x1,%eax
    9ba3:	eb 05                	jmp    9baa <_ZNSt8_Rb_treeINSt7__cxx1112basic_stringIcSt11char_traitsIcESaIcEEESt4pairIKS5_S5_ESt10_Select1stIS8_ESt4lessIS5_ESaIS8_EE14_M_insert_nodeEPSt18_Rb_tree_node_baseSG_PSt13_Rb_tree_nodeIS8_E+0x84>
    9ba5:	b8 00 00 00 00       	mov    $0x0,%eax
    9baa:	88 45 df             	mov    %al,-0x21(%rbp)
    9bad:	48 8b 45 c8          	mov    -0x38(%rbp),%rax
    9bb1:	48 8d 48 08          	lea    0x8(%rax),%rcx
    9bb5:	0f b6 45 df          	movzbl -0x21(%rbp),%eax
    9bb9:	48 8b 55 b8          	mov    -0x48(%rbp),%rdx
    9bbd:	48 8b 75 b0          	mov    -0x50(%rbp),%rsi
    9bc1:	89 c7                	mov    %eax,%edi
    9bc3:	e8 48 99 ff ff       	call   3510 <_init+0x510>
    9bc8:	48 8b 45 c8          	mov    -0x38(%rbp),%rax
    9bcc:	48 8b 40 28          	mov    0x28(%rax),%rax
    9bd0:	48 8d 50 01          	lea    0x1(%rax),%rdx
    9bd4:	48 8b 45 c8          	mov    -0x38(%rbp),%rax
    9bd8:	48 89 50 28          	mov    %rdx,0x28(%rax)
    9bdc:	48 8b 55 b0          	mov    -0x50(%rbp),%rdx
    9be0:	48 8d 45 e0          	lea    -0x20(%rbp),%rax
    9be4:	48 89 d6             	mov    %rdx,%rsi
    9be7:	48 89 c7             	mov    %rax,%rdi
    9bea:	e8 5f ee ff ff       	call   8a4e <_ZNSt17_Rb_tree_iteratorISt4pairIKNSt7__cxx1112basic_stringIcSt11char_traitsIcESaIcEEES6_EEC1EPSt18_Rb_tree_node_base>
    9bef:	48 8b 45 e0          	mov    -0x20(%rbp),%rax
    9bf3:	48 8b 55 e8          	mov    -0x18(%rbp),%rdx
    9bf7:	64 48 2b 14 25 28 00 	sub    %fs:0x28,%rdx
    9bfe:	00 00 
    9c00:	74 05                	je     9c07 <_ZNSt8_Rb_treeINSt7__cxx1112basic_stringIcSt11char_traitsIcESaIcEEESt4pairIKS5_S5_ESt10_Select1stIS8_ESt4lessIS5_ESaIS8_EE14_M_insert_nodeEPSt18_Rb_tree_node_baseSG_PSt13_Rb_tree_nodeIS8_E+0xe1>
    9c02:	e8 79 9b ff ff       	call   3780 <_init+0x780>
    9c07:	48 83 c4 40          	add    $0x40,%rsp
    9c0b:	5b                   	pop    %rbx
    9c0c:	41 5c                	pop    %r12
    9c0e:	5d                   	pop    %rbp
    9c0f:	c3                   	ret    

0000000000009c10 <_ZNSt8_Rb_treeINSt7__cxx1112basic_stringIcSt11char_traitsIcESaIcEEESt4pairIKS5_S5_ESt10_Select1stIS8_ESt4lessIS5_ESaIS8_EEC1ERKSE_>:
    9c10:	f3 0f 1e fa          	endbr64 
    9c14:	55                   	push   %rbp
    9c15:	48 89 e5             	mov    %rsp,%rbp
    9c18:	53                   	push   %rbx
    9c19:	48 83 ec 18          	sub    $0x18,%rsp
    9c1d:	48 89 7d e8          	mov    %rdi,-0x18(%rbp)
    9c21:	48 89 75 e0          	mov    %rsi,-0x20(%rbp)
    9c25:	48 8b 45 e8          	mov    -0x18(%rbp),%rax
    9c29:	48 8b 55 e0          	mov    -0x20(%rbp),%rdx
    9c2d:	48 89 d6             	mov    %rdx,%rsi
    9c30:	48 89 c7             	mov    %rax,%rdi
    9c33:	e8 78 0b 00 00       	call   a7b0 <_ZNSt8_Rb_treeINSt7__cxx1112basic_stringIcSt11char_traitsIcESaIcEEESt4pairIKS5_S5_ESt10_Select1stIS8_ESt4lessIS5_ESaIS8_EE13_Rb_tree_implISC_Lb1EEC1ERKSG_>
    9c38:	48 8b 45 e0          	mov    -0x20(%rbp),%rax
    9c3c:	48 89 c7             	mov    %rax,%rdi
    9c3f:	e8 24 0c 00 00       	call   a868 <_ZNKSt8_Rb_treeINSt7__cxx1112basic_stringIcSt11char_traitsIcESaIcEEESt4pairIKS5_S5_ESt10_Select1stIS8_ESt4lessIS5_ESaIS8_EE7_M_rootEv>
    9c44:	48 85 c0             	test   %rax,%rax
    9c47:	0f 95 c0             	setne  %al
    9c4a:	84 c0                	test   %al,%al
    9c4c:	74 45                	je     9c93 <_ZNSt8_Rb_treeINSt7__cxx1112basic_stringIcSt11char_traitsIcESaIcEEESt4pairIKS5_S5_ESt10_Select1stIS8_ESt4lessIS5_ESaIS8_EEC1ERKSE_+0x83>
    9c4e:	48 8b 55 e0          	mov    -0x20(%rbp),%rdx
    9c52:	48 8b 45 e8          	mov    -0x18(%rbp),%rax
    9c56:	48 89 d6             	mov    %rdx,%rsi
    9c59:	48 89 c7             	mov    %rax,%rdi
    9c5c:	e8 33 0c 00 00       	call   a894 <_ZNSt8_Rb_treeINSt7__cxx1112basic_stringIcSt11char_traitsIcESaIcEEESt4pairIKS5_S5_ESt10_Select1stIS8_ESt4lessIS5_ESaIS8_EE7_M_copyERKSE_>
    9c61:	48 89 c3             	mov    %rax,%rbx
    9c64:	48 8b 45 e8          	mov    -0x18(%rbp),%rax
    9c68:	48 89 c7             	mov    %rax,%rdi
    9c6b:	e8 0e 0c 00 00       	call   a87e <_ZNSt8_Rb_treeINSt7__cxx1112basic_stringIcSt11char_traitsIcESaIcEEESt4pairIKS5_S5_ESt10_Select1stIS8_ESt4lessIS5_ESaIS8_EE7_M_rootEv>
    9c70:	48 89 18             	mov    %rbx,(%rax)
    9c73:	eb 1e                	jmp    9c93 <_ZNSt8_Rb_treeINSt7__cxx1112basic_stringIcSt11char_traitsIcESaIcEEESt4pairIKS5_S5_ESt10_Select1stIS8_ESt4lessIS5_ESaIS8_EEC1ERKSE_+0x83>
    9c75:	f3 0f 1e fa          	endbr64 
    9c79:	48 89 c3             	mov    %rax,%rbx
    9c7c:	48 8b 45 e8          	mov    -0x18(%rbp),%rax
    9c80:	48 89 c7             	mov    %rax,%rdi
    9c83:	e8 5a be ff ff       	call   5ae2 <_ZNSt8_Rb_treeINSt7__cxx1112basic_stringIcSt11char_traitsIcESaIcEEESt4pairIKS5_S5_ESt10_Select1stIS8_ESt4lessIS5_ESaIS8_EE13_Rb_tree_implISC_Lb1EED1Ev>
    9c88:	48 89 d8             	mov    %rbx,%rax
    9c8b:	48 89 c7             	mov    %rax,%rdi
    9c8e:	e8 7d 9c ff ff       	call   3910 <_init+0x910>
    9c93:	90                   	nop
    9c94:	48 8b 5d f8          	mov    -0x8(%rbp),%rbx
    9c98:	c9                   	leave  
    9c99:	c3                   	ret    

0000000000009c9a <_ZNKSt6vectorISt3mapINSt7__cxx1112basic_stringIcSt11char_traitsIcESaIcEEES6_St4lessIS6_ESaISt4pairIKS6_S6_EEESaISD_EE8max_sizeEv>:
    9c9a:	f3 0f 1e fa          	endbr64 
    9c9e:	55                   	push   %rbp
    9c9f:	48 89 e5             	mov    %rsp,%rbp
    9ca2:	48 83 ec 10          	sub    $0x10,%rsp
    9ca6:	48 89 7d f8          	mov    %rdi,-0x8(%rbp)
    9caa:	48 8b 45 f8          	mov    -0x8(%rbp),%rax
    9cae:	48 89 c7             	mov    %rax,%rdi
    9cb1:	e8 fa 06 00 00       	call   a3b0 <_ZNKSt12_Vector_baseISt3mapINSt7__cxx1112basic_stringIcSt11char_traitsIcESaIcEEES6_St4lessIS6_ESaISt4pairIKS6_S6_EEESaISD_EE19_M_get_Tp_allocatorEv>
    9cb6:	48 89 c7             	mov    %rax,%rdi
    9cb9:	e8 39 0c 00 00       	call   a8f7 <_ZNSt6vectorISt3mapINSt7__cxx1112basic_stringIcSt11char_traitsIcESaIcEEES6_St4lessIS6_ESaISt4pairIKS6_S6_EEESaISD_EE11_S_max_sizeERKSE_>
    9cbe:	c9                   	leave  
    9cbf:	c3                   	ret    

0000000000009cc0 <_ZNKSt6vectorISt3mapINSt7__cxx1112basic_stringIcSt11char_traitsIcESaIcEEES6_St4lessIS6_ESaISt4pairIKS6_S6_EEESaISD_EE4sizeEv>:
    9cc0:	f3 0f 1e fa          	endbr64 
    9cc4:	55                   	push   %rbp
    9cc5:	48 89 e5             	mov    %rsp,%rbp
    9cc8:	48 89 7d f8          	mov    %rdi,-0x8(%rbp)
    9ccc:	48 8b 45 f8          	mov    -0x8(%rbp),%rax
    9cd0:	48 8b 50 08          	mov    0x8(%rax),%rdx
    9cd4:	48 8b 45 f8          	mov    -0x8(%rbp),%rax
    9cd8:	48 8b 00             	mov    (%rax),%rax
    9cdb:	48 29 c2             	sub    %rax,%rdx
    9cde:	48 c1 fa 04          	sar    $0x4,%rdx
    9ce2:	48 b8 ab aa aa aa aa 	movabs $0xaaaaaaaaaaaaaaab,%rax
    9ce9:	aa aa aa 
    9cec:	48 0f af c2          	imul   %rdx,%rax
    9cf0:	5d                   	pop    %rbp
    9cf1:	c3                   	ret    

0000000000009cf2 <_ZSt3maxImERKT_S2_S2_>:
    9cf2:	f3 0f 1e fa          	endbr64 
    9cf6:	55                   	push   %rbp
    9cf7:	48 89 e5             	mov    %rsp,%rbp
    9cfa:	48 89 7d f8          	mov    %rdi,-0x8(%rbp)
    9cfe:	48 89 75 f0          	mov    %rsi,-0x10(%rbp)
    9d02:	48 8b 45 f8          	mov    -0x8(%rbp),%rax
    9d06:	48 8b 10             	mov    (%rax),%rdx
    9d09:	48 8b 45 f0          	mov    -0x10(%rbp),%rax
    9d0d:	48 8b 00             	mov    (%rax),%rax
    9d10:	48 39 c2             	cmp    %rax,%rdx
    9d13:	73 06                	jae    9d1b <_ZSt3maxImERKT_S2_S2_+0x29>
    9d15:	48 8b 45 f0          	mov    -0x10(%rbp),%rax
    9d19:	eb 04                	jmp    9d1f <_ZSt3maxImERKT_S2_S2_+0x2d>
    9d1b:	48 8b 45 f8          	mov    -0x8(%rbp),%rax
    9d1f:	5d                   	pop    %rbp
    9d20:	c3                   	ret    

0000000000009d21 <_ZSt12__relocate_aIPSt3mapINSt7__cxx1112basic_stringIcSt11char_traitsIcESaIcEEES6_St4lessIS6_ESaISt4pairIKS6_S6_EEESE_SaISD_EET0_T_SH_SG_RT1_>:
    9d21:	f3 0f 1e fa          	endbr64 
    9d25:	55                   	push   %rbp
    9d26:	48 89 e5             	mov    %rsp,%rbp
    9d29:	41 54                	push   %r12
    9d2b:	53                   	push   %rbx
    9d2c:	48 83 ec 20          	sub    $0x20,%rsp
    9d30:	48 89 7d e8          	mov    %rdi,-0x18(%rbp)
    9d34:	48 89 75 e0          	mov    %rsi,-0x20(%rbp)
    9d38:	48 89 55 d8          	mov    %rdx,-0x28(%rbp)
    9d3c:	48 89 4d d0          	mov    %rcx,-0x30(%rbp)
    9d40:	48 8b 45 d8          	mov    -0x28(%rbp),%rax
    9d44:	48 89 c7             	mov    %rax,%rdi
    9d47:	e8 a0 0c 00 00       	call   a9ec <_ZSt12__niter_baseIPSt3mapINSt7__cxx1112basic_stringIcSt11char_traitsIcESaIcEEES6_St4lessIS6_ESaISt4pairIKS6_S6_EEEET_SF_>
    9d4c:	49 89 c4             	mov    %rax,%r12
    9d4f:	48 8b 45 e0          	mov    -0x20(%rbp),%rax
    9d53:	48 89 c7             	mov    %rax,%rdi
    9d56:	e8 91 0c 00 00       	call   a9ec <_ZSt12__niter_baseIPSt3mapINSt7__cxx1112basic_stringIcSt11char_traitsIcESaIcEEES6_St4lessIS6_ESaISt4pairIKS6_S6_EEEET_SF_>
    9d5b:	48 89 c3             	mov    %rax,%rbx
    9d5e:	48 8b 45 e8          	mov    -0x18(%rbp),%rax
    9d62:	48 89 c7             	mov    %rax,%rdi
    9d65:	e8 82 0c 00 00       	call   a9ec <_ZSt12__niter_baseIPSt3mapINSt7__cxx1112basic_stringIcSt11char_traitsIcESaIcEEES6_St4lessIS6_ESaISt4pairIKS6_S6_EEEET_SF_>
    9d6a:	48 89 c7             	mov    %rax,%rdi
    9d6d:	48 8b 45 d0          	mov    -0x30(%rbp),%rax
    9d71:	48 89 c1             	mov    %rax,%rcx
    9d74:	4c 89 e2             	mov    %r12,%rdx
    9d77:	48 89 de             	mov    %rbx,%rsi
    9d7a:	e8 7f 0c 00 00       	call   a9fe <_ZSt14__relocate_a_1IPSt3mapINSt7__cxx1112basic_stringIcSt11char_traitsIcESaIcEEES6_St4lessIS6_ESaISt4pairIKS6_S6_EEESE_SaISD_EET0_T_SH_SG_RT1_>
    9d7f:	48 83 c4 20          	add    $0x20,%rsp
    9d83:	5b                   	pop    %rbx
    9d84:	41 5c                	pop    %r12
    9d86:	5d                   	pop    %rbp
    9d87:	c3                   	ret    

0000000000009d88 <_ZNSt8_Rb_treeINSt7__cxx1112basic_stringIcSt11char_traitsIcESaIcEEESt4pairIKS5_S5_ESt10_Select1stIS8_ESt4lessIS5_ESaIS8_EE7_S_leftEPKSt18_Rb_tree_node_base>:
    9d88:	f3 0f 1e fa          	endbr64 
    9d8c:	55                   	push   %rbp
    9d8d:	48 89 e5             	mov    %rsp,%rbp
    9d90:	48 89 7d f8          	mov    %rdi,-0x8(%rbp)
    9d94:	48 8b 45 f8          	mov    -0x8(%rbp),%rax
    9d98:	48 8b 40 10          	mov    0x10(%rax),%rax
    9d9c:	5d                   	pop    %rbp
    9d9d:	c3                   	ret    

0000000000009d9e <_ZNSt8_Rb_treeINSt7__cxx1112basic_stringIcSt11char_traitsIcESaIcEEESt4pairIKS5_S5_ESt10_Select1stIS8_ESt4lessIS5_ESaIS8_EE8_S_rightEPKSt18_Rb_tree_node_base>:
    9d9e:	f3 0f 1e fa          	endbr64 
    9da2:	55                   	push   %rbp
    9da3:	48 89 e5             	mov    %rsp,%rbp
    9da6:	48 89 7d f8          	mov    %rdi,-0x8(%rbp)
    9daa:	48 8b 45 f8          	mov    -0x8(%rbp),%rax
    9dae:	48 8b 40 18          	mov    0x18(%rax),%rax
    9db2:	5d                   	pop    %rbp
    9db3:	c3                   	ret    

0000000000009db4 <_ZNK9__gnu_cxx16__aligned_membufISt4pairIKNSt7__cxx1112basic_stringIcSt11char_traitsIcESaIcEEES7_EE7_M_addrEv>:
    9db4:	f3 0f 1e fa          	endbr64 
    9db8:	55                   	push   %rbp
    9db9:	48 89 e5             	mov    %rsp,%rbp
    9dbc:	48 89 7d f8          	mov    %rdi,-0x8(%rbp)
    9dc0:	48 8b 45 f8          	mov    -0x8(%rbp),%rax
    9dc4:	5d                   	pop    %rbp
    9dc5:	c3                   	ret    

0000000000009dc6 <_ZNSt6vectorINSt7__cxx1112basic_stringIcSt11char_traitsIcESaIcEEESaIS5_EE11_S_max_sizeERKS6_>:
    9dc6:	f3 0f 1e fa          	endbr64 
    9dca:	55                   	push   %rbp
    9dcb:	48 89 e5             	mov    %rsp,%rbp
    9dce:	48 83 ec 40          	sub    $0x40,%rsp
    9dd2:	48 89 7d c8          	mov    %rdi,-0x38(%rbp)
    9dd6:	64 48 8b 04 25 28 00 	mov    %fs:0x28,%rax
    9ddd:	00 00 
    9ddf:	48 89 45 f8          	mov    %rax,-0x8(%rbp)
    9de3:	31 c0                	xor    %eax,%eax
    9de5:	48 b8 ff ff ff ff ff 	movabs $0x3ffffffffffffff,%rax
    9dec:	ff ff 03 
    9def:	48 89 45 d0          	mov    %rax,-0x30(%rbp)
    9df3:	48 8b 45 c8          	mov    -0x38(%rbp),%rax
    9df7:	48 89 45 e0          	mov    %rax,-0x20(%rbp)
    9dfb:	48 8b 45 e0          	mov    -0x20(%rbp),%rax
    9dff:	48 89 45 e8          	mov    %rax,-0x18(%rbp)
    9e03:	48 8b 45 e8          	mov    -0x18(%rbp),%rax
    9e07:	48 89 45 f0          	mov    %rax,-0x10(%rbp)
    9e0b:	48 b8 ff ff ff ff ff 	movabs $0x3ffffffffffffff,%rax
    9e12:	ff ff 03 
    9e15:	90                   	nop
    9e16:	90                   	nop
    9e17:	48 89 45 d8          	mov    %rax,-0x28(%rbp)
    9e1b:	48 8d 55 d8          	lea    -0x28(%rbp),%rdx
    9e1f:	48 8d 45 d0          	lea    -0x30(%rbp),%rax
    9e23:	48 89 d6             	mov    %rdx,%rsi
    9e26:	48 89 c7             	mov    %rax,%rdi
    9e29:	e8 d4 f8 ff ff       	call   9702 <_ZSt3minImERKT_S2_S2_>
    9e2e:	48 8b 00             	mov    (%rax),%rax
    9e31:	48 8b 55 f8          	mov    -0x8(%rbp),%rdx
    9e35:	64 48 2b 14 25 28 00 	sub    %fs:0x28,%rdx
    9e3c:	00 00 
    9e3e:	74 05                	je     9e45 <_ZNSt6vectorINSt7__cxx1112basic_stringIcSt11char_traitsIcESaIcEEESaIS5_EE11_S_max_sizeERKS6_+0x7f>
    9e40:	e8 3b 99 ff ff       	call   3780 <_init+0x780>
    9e45:	c9                   	leave  
    9e46:	c3                   	ret    

0000000000009e47 <_ZSt18uninitialized_copyIPKPKcPNSt7__cxx1112basic_stringIcSt11char_traitsIcESaIcEEEET0_T_SC_SB_>:
    9e47:	f3 0f 1e fa          	endbr64 
    9e4b:	55                   	push   %rbp
    9e4c:	48 89 e5             	mov    %rsp,%rbp
    9e4f:	48 83 ec 30          	sub    $0x30,%rsp
    9e53:	48 89 7d e8          	mov    %rdi,-0x18(%rbp)
    9e57:	48 89 75 e0          	mov    %rsi,-0x20(%rbp)
    9e5b:	48 89 55 d8          	mov    %rdx,-0x28(%rbp)
    9e5f:	c6 45 fe 01          	movb   $0x1,-0x2(%rbp)
    9e63:	c6 45 ff 00          	movb   $0x0,-0x1(%rbp)
    9e67:	48 8b 55 d8          	mov    -0x28(%rbp),%rdx
    9e6b:	48 8b 4d e0          	mov    -0x20(%rbp),%rcx
    9e6f:	48 8b 45 e8          	mov    -0x18(%rbp),%rax
    9e73:	48 89 ce             	mov    %rcx,%rsi
    9e76:	48 89 c7             	mov    %rax,%rdi
    9e79:	e8 61 0c 00 00       	call   aadf <_ZNSt20__uninitialized_copyILb0EE13__uninit_copyIPKPKcPNSt7__cxx1112basic_stringIcSt11char_traitsIcESaIcEEEEET0_T_SE_SD_>
    9e7e:	c9                   	leave  
    9e7f:	c3                   	ret    

0000000000009e80 <_ZNSt12_Destroy_auxILb0EE9__destroyIPNSt7__cxx1112basic_stringIcSt11char_traitsIcESaIcEEEEEvT_S9_>:
    9e80:	f3 0f 1e fa          	endbr64 
    9e84:	55                   	push   %rbp
    9e85:	48 89 e5             	mov    %rsp,%rbp
    9e88:	48 83 ec 10          	sub    $0x10,%rsp
    9e8c:	48 89 7d f8          	mov    %rdi,-0x8(%rbp)
    9e90:	48 89 75 f0          	mov    %rsi,-0x10(%rbp)
    9e94:	eb 19                	jmp    9eaf <_ZNSt12_Destroy_auxILb0EE9__destroyIPNSt7__cxx1112basic_stringIcSt11char_traitsIcESaIcEEEEEvT_S9_+0x2f>
    9e96:	48 8b 45 f8          	mov    -0x8(%rbp),%rax
    9e9a:	48 89 c7             	mov    %rax,%rdi
    9e9d:	e8 6e 0c 00 00       	call   ab10 <_ZSt11__addressofINSt7__cxx1112basic_stringIcSt11char_traitsIcESaIcEEEEPT_RS6_>
    9ea2:	48 89 c7             	mov    %rax,%rdi
    9ea5:	e8 78 0c 00 00       	call   ab22 <_ZSt8_DestroyINSt7__cxx1112basic_stringIcSt11char_traitsIcESaIcEEEEvPT_>
    9eaa:	48 83 45 f8 20       	addq   $0x20,-0x8(%rbp)
    9eaf:	48 8b 45 f8          	mov    -0x8(%rbp),%rax
    9eb3:	48 3b 45 f0          	cmp    -0x10(%rbp),%rax
    9eb7:	75 dd                	jne    9e96 <_ZNSt12_Destroy_auxILb0EE9__destroyIPNSt7__cxx1112basic_stringIcSt11char_traitsIcESaIcEEEEEvT_S9_+0x16>
    9eb9:	90                   	nop
    9eba:	90                   	nop
    9ebb:	c9                   	leave  
    9ebc:	c3                   	ret    
    9ebd:	90                   	nop

0000000000009ebe <_ZNSt15__new_allocatorINSt7__cxx1112basic_stringIcSt11char_traitsIcESaIcEEEE10deallocateEPS5_m>:
    9ebe:	f3 0f 1e fa          	endbr64 
    9ec2:	55                   	push   %rbp
    9ec3:	48 89 e5             	mov    %rsp,%rbp
    9ec6:	48 83 ec 20          	sub    $0x20,%rsp
    9eca:	48 89 7d f8          	mov    %rdi,-0x8(%rbp)
    9ece:	48 89 75 f0          	mov    %rsi,-0x10(%rbp)
    9ed2:	48 89 55 e8          	mov    %rdx,-0x18(%rbp)
    9ed6:	48 8b 45 e8          	mov    -0x18(%rbp),%rax
    9eda:	48 c1 e0 05          	shl    $0x5,%rax
    9ede:	48 89 c2             	mov    %rax,%rdx
    9ee1:	48 8b 45 f0          	mov    -0x10(%rbp),%rax
    9ee5:	48 89 d6             	mov    %rdx,%rsi
    9ee8:	48 89 c7             	mov    %rax,%rdi
    9eeb:	e8 00 98 ff ff       	call   36f0 <_init+0x6f0>
    9ef0:	c9                   	leave  
    9ef1:	c3                   	ret    

0000000000009ef2 <_ZNK9__gnu_cxx16__aligned_membufINSt7__cxx1112basic_stringIcSt11char_traitsIcESaIcEEEE7_M_addrEv>:
    9ef2:	f3 0f 1e fa          	endbr64 
    9ef6:	55                   	push   %rbp
    9ef7:	48 89 e5             	mov    %rsp,%rbp
    9efa:	48 89 7d f8          	mov    %rdi,-0x8(%rbp)
    9efe:	48 8b 45 f8          	mov    -0x8(%rbp),%rax
    9f02:	5d                   	pop    %rbp
    9f03:	c3                   	ret    

0000000000009f04 <_ZNKSt6vectorINSt7__cxx1112basic_stringIcSt11char_traitsIcESaIcEEESaIS5_EE8max_sizeEv>:
    9f04:	f3 0f 1e fa          	endbr64 
    9f08:	55                   	push   %rbp
    9f09:	48 89 e5             	mov    %rsp,%rbp
    9f0c:	48 83 ec 10          	sub    $0x10,%rsp
    9f10:	48 89 7d f8          	mov    %rdi,-0x8(%rbp)
    9f14:	48 8b 45 f8          	mov    -0x8(%rbp),%rax
    9f18:	48 89 c7             	mov    %rax,%rdi
    9f1b:	e8 22 0c 00 00       	call   ab42 <_ZNKSt12_Vector_baseINSt7__cxx1112basic_stringIcSt11char_traitsIcESaIcEEESaIS5_EE19_M_get_Tp_allocatorEv>
    9f20:	48 89 c7             	mov    %rax,%rdi
    9f23:	e8 9e fe ff ff       	call   9dc6 <_ZNSt6vectorINSt7__cxx1112basic_stringIcSt11char_traitsIcESaIcEEESaIS5_EE11_S_max_sizeERKS6_>
    9f28:	c9                   	leave  
    9f29:	c3                   	ret    

0000000000009f2a <_ZSt12__relocate_aIPNSt7__cxx1112basic_stringIcSt11char_traitsIcESaIcEEES6_SaIS5_EET0_T_S9_S8_RT1_>:
    9f2a:	f3 0f 1e fa          	endbr64 
    9f2e:	55                   	push   %rbp
    9f2f:	48 89 e5             	mov    %rsp,%rbp
    9f32:	41 54                	push   %r12
    9f34:	53                   	push   %rbx
    9f35:	48 83 ec 20          	sub    $0x20,%rsp
    9f39:	48 89 7d e8          	mov    %rdi,-0x18(%rbp)
    9f3d:	48 89 75 e0          	mov    %rsi,-0x20(%rbp)
    9f41:	48 89 55 d8          	mov    %rdx,-0x28(%rbp)
    9f45:	48 89 4d d0          	mov    %rcx,-0x30(%rbp)
    9f49:	48 8b 45 d8          	mov    -0x28(%rbp),%rax
    9f4d:	48 89 c7             	mov    %rax,%rdi
    9f50:	e8 ff 0b 00 00       	call   ab54 <_ZSt12__niter_baseIPNSt7__cxx1112basic_stringIcSt11char_traitsIcESaIcEEEET_S7_>
    9f55:	49 89 c4             	mov    %rax,%r12
    9f58:	48 8b 45 e0          	mov    -0x20(%rbp),%rax
    9f5c:	48 89 c7             	mov    %rax,%rdi
    9f5f:	e8 f0 0b 00 00       	call   ab54 <_ZSt12__niter_baseIPNSt7__cxx1112basic_stringIcSt11char_traitsIcESaIcEEEET_S7_>
    9f64:	48 89 c3             	mov    %rax,%rbx
    9f67:	48 8b 45 e8          	mov    -0x18(%rbp),%rax
    9f6b:	48 89 c7             	mov    %rax,%rdi
    9f6e:	e8 e1 0b 00 00       	call   ab54 <_ZSt12__niter_baseIPNSt7__cxx1112basic_stringIcSt11char_traitsIcESaIcEEEET_S7_>
    9f73:	48 89 c7             	mov    %rax,%rdi
    9f76:	48 8b 45 d0          	mov    -0x30(%rbp),%rax
    9f7a:	48 89 c1             	mov    %rax,%rcx
    9f7d:	4c 89 e2             	mov    %r12,%rdx
    9f80:	48 89 de             	mov    %rbx,%rsi
    9f83:	e8 de 0b 00 00       	call   ab66 <_ZSt14__relocate_a_1IPNSt7__cxx1112basic_stringIcSt11char_traitsIcESaIcEEES6_SaIS5_EET0_T_S9_S8_RT1_>
    9f88:	48 83 c4 20          	add    $0x20,%rsp
    9f8c:	5b                   	pop    %rbx
    9f8d:	41 5c                	pop    %r12
    9f8f:	5d                   	pop    %rbp
    9f90:	c3                   	ret    

0000000000009f91 <_ZSt18uninitialized_copyIPKNSt7__cxx1112basic_stringIcSt11char_traitsIcESaIcEEEPS5_ET0_T_SA_S9_>:
    9f91:	f3 0f 1e fa          	endbr64 
    9f95:	55                   	push   %rbp
    9f96:	48 89 e5             	mov    %rsp,%rbp
    9f99:	48 83 ec 30          	sub    $0x30,%rsp
    9f9d:	48 89 7d e8          	mov    %rdi,-0x18(%rbp)
    9fa1:	48 89 75 e0          	mov    %rsi,-0x20(%rbp)
    9fa5:	48 89 55 d8          	mov    %rdx,-0x28(%rbp)
    9fa9:	c6 45 fe 00          	movb   $0x0,-0x2(%rbp)
    9fad:	c6 45 ff 00          	movb   $0x0,-0x1(%rbp)
    9fb1:	48 8b 55 d8          	mov    -0x28(%rbp),%rdx
    9fb5:	48 8b 4d e0          	mov    -0x20(%rbp),%rcx
    9fb9:	48 8b 45 e8          	mov    -0x18(%rbp),%rax
    9fbd:	48 89 ce             	mov    %rcx,%rsi
    9fc0:	48 89 c7             	mov    %rax,%rdi
    9fc3:	e8 13 0c 00 00       	call   abdb <_ZNSt20__uninitialized_copyILb0EE13__uninit_copyIPKNSt7__cxx1112basic_stringIcSt11char_traitsIcESaIcEEEPS7_EET0_T_SC_SB_>
    9fc8:	c9                   	leave  
    9fc9:	c3                   	ret    

0000000000009fca <_ZSt7forwardIRKPKcEOT_RNSt16remove_referenceIS4_E4typeE>:
    9fca:	f3 0f 1e fa          	endbr64 
    9fce:	55                   	push   %rbp
    9fcf:	48 89 e5             	mov    %rsp,%rbp
    9fd2:	48 89 7d f8          	mov    %rdi,-0x8(%rbp)
    9fd6:	48 8b 45 f8          	mov    -0x8(%rbp),%rax
    9fda:	5d                   	pop    %rbp
    9fdb:	c3                   	ret    

0000000000009fdc <_ZNSt8_Rb_treeINSt7__cxx1112basic_stringIcSt11char_traitsIcESaIcEEES5_St9_IdentityIS5_ESt4lessIS5_ESaIS5_EE10_Auto_nodeC1IJRKPKcEEERSB_DpOT_>:
    9fdc:	f3 0f 1e fa          	endbr64 
    9fe0:	55                   	push   %rbp
    9fe1:	48 89 e5             	mov    %rsp,%rbp
    9fe4:	48 83 ec 20          	sub    $0x20,%rsp
    9fe8:	48 89 7d f8          	mov    %rdi,-0x8(%rbp)
    9fec:	48 89 75 f0          	mov    %rsi,-0x10(%rbp)
    9ff0:	48 89 55 e8          	mov    %rdx,-0x18(%rbp)
    9ff4:	48 8b 45 f8          	mov    -0x8(%rbp),%rax
    9ff8:	48 8b 55 f0          	mov    -0x10(%rbp),%rdx
    9ffc:	48 89 10             	mov    %rdx,(%rax)
    9fff:	48 8b 45 e8          	mov    -0x18(%rbp),%rax
    a003:	48 89 c7             	mov    %rax,%rdi
    a006:	e8 bf ff ff ff       	call   9fca <_ZSt7forwardIRKPKcEOT_RNSt16remove_referenceIS4_E4typeE>
    a00b:	48 89 c2             	mov    %rax,%rdx
    a00e:	48 8b 45 f0          	mov    -0x10(%rbp),%rax
    a012:	48 89 d6             	mov    %rdx,%rsi
    a015:	48 89 c7             	mov    %rax,%rdi
    a018:	e8 ef 0b 00 00       	call   ac0c <_ZNSt8_Rb_treeINSt7__cxx1112basic_stringIcSt11char_traitsIcESaIcEEES5_St9_IdentityIS5_ESt4lessIS5_ESaIS5_EE14_M_create_nodeIJRKPKcEEEPSt13_Rb_tree_nodeIS5_EDpOT_>
    a01d:	48 8b 55 f8          	mov    -0x8(%rbp),%rdx
    a021:	48 89 42 08          	mov    %rax,0x8(%rdx)
    a025:	90                   	nop
    a026:	c9                   	leave  
    a027:	c3                   	ret    

000000000000a028 <_ZNSt8_Rb_treeINSt7__cxx1112basic_stringIcSt11char_traitsIcESaIcEEES5_St9_IdentityIS5_ESt4lessIS5_ESaIS5_EE10_Auto_nodeD1Ev>:
    a028:	f3 0f 1e fa          	endbr64 
    a02c:	55                   	push   %rbp
    a02d:	48 89 e5             	mov    %rsp,%rbp
    a030:	48 83 ec 10          	sub    $0x10,%rsp
    a034:	48 89 7d f8          	mov    %rdi,-0x8(%rbp)
    a038:	48 8b 45 f8          	mov    -0x8(%rbp),%rax
    a03c:	48 8b 40 08          	mov    0x8(%rax),%rax
    a040:	48 85 c0             	test   %rax,%rax
    a043:	74 1a                	je     a05f <_ZNSt8_Rb_treeINSt7__cxx1112basic_stringIcSt11char_traitsIcESaIcEEES5_St9_IdentityIS5_ESt4lessIS5_ESaIS5_EE10_Auto_nodeD1Ev+0x37>
    a045:	48 8b 45 f8          	mov    -0x8(%rbp),%rax
    a049:	48 8b 00             	mov    (%rax),%rax
    a04c:	48 8b 55 f8          	mov    -0x8(%rbp),%rdx
    a050:	48 8b 52 08          	mov    0x8(%rdx),%rdx
    a054:	48 89 d6             	mov    %rdx,%rsi
    a057:	48 89 c7             	mov    %rax,%rdi
    a05a:	e8 47 f3 ff ff       	call   93a6 <_ZNSt8_Rb_treeINSt7__cxx1112basic_stringIcSt11char_traitsIcESaIcEEES5_St9_IdentityIS5_ESt4lessIS5_ESaIS5_EE12_M_drop_nodeEPSt13_Rb_tree_nodeIS5_E>
    a05f:	90                   	nop
    a060:	c9                   	leave  
    a061:	c3                   	ret    

000000000000a062 <_ZNSt8_Rb_treeINSt7__cxx1112basic_stringIcSt11char_traitsIcESaIcEEES5_St9_IdentityIS5_ESt4lessIS5_ESaIS5_EE24_M_get_insert_unique_posERKS5_>:
    a062:	f3 0f 1e fa          	endbr64 
    a066:	55                   	push   %rbp
    a067:	48 89 e5             	mov    %rsp,%rbp
    a06a:	53                   	push   %rbx
    a06b:	48 83 ec 68          	sub    $0x68,%rsp
    a06f:	48 89 7d 98          	mov    %rdi,-0x68(%rbp)
    a073:	48 89 75 90          	mov    %rsi,-0x70(%rbp)
    a077:	64 48 8b 04 25 28 00 	mov    %fs:0x28,%rax
    a07e:	00 00 
    a080:	48 89 45 e8          	mov    %rax,-0x18(%rbp)
    a084:	31 c0                	xor    %eax,%eax
    a086:	48 8b 45 98          	mov    -0x68(%rbp),%rax
    a08a:	48 89 c7             	mov    %rax,%rdi
    a08d:	e8 7c e1 ff ff       	call   820e <_ZNSt8_Rb_treeINSt7__cxx1112basic_stringIcSt11char_traitsIcESaIcEEES5_St9_IdentityIS5_ESt4lessIS5_ESaIS5_EE8_M_beginEv>
    a092:	48 89 45 b0          	mov    %rax,-0x50(%rbp)
    a096:	48 8b 45 98          	mov    -0x68(%rbp),%rax
    a09a:	48 89 c7             	mov    %rax,%rdi
    a09d:	e8 b6 0b 00 00       	call   ac58 <_ZNSt8_Rb_treeINSt7__cxx1112basic_stringIcSt11char_traitsIcESaIcEEES5_St9_IdentityIS5_ESt4lessIS5_ESaIS5_EE6_M_endEv>
    a0a2:	48 89 45 b8          	mov    %rax,-0x48(%rbp)
    a0a6:	c6 45 af 01          	movb   $0x1,-0x51(%rbp)
    a0aa:	eb 51                	jmp    a0fd <_ZNSt8_Rb_treeINSt7__cxx1112basic_stringIcSt11char_traitsIcESaIcEEES5_St9_IdentityIS5_ESt4lessIS5_ESaIS5_EE24_M_get_insert_unique_posERKS5_+0x9b>
    a0ac:	48 8b 45 b0          	mov    -0x50(%rbp),%rax
    a0b0:	48 89 45 b8          	mov    %rax,-0x48(%rbp)
    a0b4:	48 8b 5d 98          	mov    -0x68(%rbp),%rbx
    a0b8:	48 8b 45 b0          	mov    -0x50(%rbp),%rax
    a0bc:	48 89 c7             	mov    %rax,%rdi
    a0bf:	e8 aa 0b 00 00       	call   ac6e <_ZNSt8_Rb_treeINSt7__cxx1112basic_stringIcSt11char_traitsIcESaIcEEES5_St9_IdentityIS5_ESt4lessIS5_ESaIS5_EE6_S_keyEPKSt13_Rb_tree_nodeIS5_E>
    a0c4:	48 89 c2             	mov    %rax,%rdx
    a0c7:	48 8b 45 90          	mov    -0x70(%rbp),%rax
    a0cb:	48 89 c6             	mov    %rax,%rsi
    a0ce:	48 89 df             	mov    %rbx,%rdi
    a0d1:	e8 9a cf ff ff       	call   7070 <_ZNKSt4lessINSt7__cxx1112basic_stringIcSt11char_traitsIcESaIcEEEEclERKS5_S8_>
    a0d6:	88 45 af             	mov    %al,-0x51(%rbp)
    a0d9:	80 7d af 00          	cmpb   $0x0,-0x51(%rbp)
    a0dd:	74 0e                	je     a0ed <_ZNSt8_Rb_treeINSt7__cxx1112basic_stringIcSt11char_traitsIcESaIcEEES5_St9_IdentityIS5_ESt4lessIS5_ESaIS5_EE24_M_get_insert_unique_posERKS5_+0x8b>
    a0df:	48 8b 45 b0          	mov    -0x50(%rbp),%rax
    a0e3:	48 89 c7             	mov    %rax,%rdi
    a0e6:	e8 a5 f2 ff ff       	call   9390 <_ZNSt8_Rb_treeINSt7__cxx1112basic_stringIcSt11char_traitsIcESaIcEEES5_St9_IdentityIS5_ESt4lessIS5_ESaIS5_EE7_S_leftEPSt18_Rb_tree_node_base>
    a0eb:	eb 0c                	jmp    a0f9 <_ZNSt8_Rb_treeINSt7__cxx1112basic_stringIcSt11char_traitsIcESaIcEEES5_St9_IdentityIS5_ESt4lessIS5_ESaIS5_EE24_M_get_insert_unique_posERKS5_+0x97>
    a0ed:	48 8b 45 b0          	mov    -0x50(%rbp),%rax
    a0f1:	48 89 c7             	mov    %rax,%rdi
    a0f4:	e8 81 f2 ff ff       	call   937a <_ZNSt8_Rb_treeINSt7__cxx1112basic_stringIcSt11char_traitsIcESaIcEEES5_St9_IdentityIS5_ESt4lessIS5_ESaIS5_EE8_S_rightEPSt18_Rb_tree_node_base>
    a0f9:	48 89 45 b0          	mov    %rax,-0x50(%rbp)
    a0fd:	48 8b 45 b0          	mov    -0x50(%rbp),%rax
    a101:	48 85 c0             	test   %rax,%rax
    a104:	75 a6                	jne    a0ac <_ZNSt8_Rb_treeINSt7__cxx1112basic_stringIcSt11char_traitsIcESaIcEEES5_St9_IdentityIS5_ESt4lessIS5_ESaIS5_EE24_M_get_insert_unique_posERKS5_+0x4a>
    a106:	48 8b 55 b8          	mov    -0x48(%rbp),%rdx
    a10a:	48 8d 45 c0          	lea    -0x40(%rbp),%rax
    a10e:	48 89 d6             	mov    %rdx,%rsi
    a111:	48 89 c7             	mov    %rax,%rdi
    a114:	e8 cb 01 00 00       	call   a2e4 <_ZNSt17_Rb_tree_iteratorINSt7__cxx1112basic_stringIcSt11char_traitsIcESaIcEEEEC1EPSt18_Rb_tree_node_base>
    a119:	80 7d af 00          	cmpb   $0x0,-0x51(%rbp)
    a11d:	74 54                	je     a173 <_ZNSt8_Rb_treeINSt7__cxx1112basic_stringIcSt11char_traitsIcESaIcEEES5_St9_IdentityIS5_ESt4lessIS5_ESaIS5_EE24_M_get_insert_unique_posERKS5_+0x111>
    a11f:	48 8b 45 98          	mov    -0x68(%rbp),%rax
    a123:	48 89 c7             	mov    %rax,%rdi
    a126:	e8 97 0b 00 00       	call   acc2 <_ZNSt8_Rb_treeINSt7__cxx1112basic_stringIcSt11char_traitsIcESaIcEEES5_St9_IdentityIS5_ESt4lessIS5_ESaIS5_EE5beginEv>
    a12b:	48 89 45 d0          	mov    %rax,-0x30(%rbp)
    a12f:	48 8d 55 d0          	lea    -0x30(%rbp),%rdx
    a133:	48 8d 45 c0          	lea    -0x40(%rbp),%rax
    a137:	48 89 d6             	mov    %rdx,%rsi
    a13a:	48 89 c7             	mov    %rax,%rdi
    a13d:	e8 d0 0b 00 00       	call   ad12 <_ZSteqRKSt17_Rb_tree_iteratorINSt7__cxx1112basic_stringIcSt11char_traitsIcESaIcEEEES8_>
    a142:	84 c0                	test   %al,%al
    a144:	74 21                	je     a167 <_ZNSt8_Rb_treeINSt7__cxx1112basic_stringIcSt11char_traitsIcESaIcEEES5_St9_IdentityIS5_ESt4lessIS5_ESaIS5_EE24_M_get_insert_unique_posERKS5_+0x105>
    a146:	48 8d 55 b8          	lea    -0x48(%rbp),%rdx
    a14a:	48 8d 4d b0          	lea    -0x50(%rbp),%rcx
    a14e:	48 8d 45 d0          	lea    -0x30(%rbp),%rax
    a152:	48 89 ce             	mov    %rcx,%rsi
    a155:	48 89 c7             	mov    %rax,%rdi
    a158:	e8 db 0b 00 00       	call   ad38 <_ZNSt4pairIPSt18_Rb_tree_node_baseS1_EC1IRPSt13_Rb_tree_nodeINSt7__cxx1112basic_stringIcSt11char_traitsIcESaIcEEEERS1_Lb1EEEOT_OT0_>
    a15d:	48 8b 45 d0          	mov    -0x30(%rbp),%rax
    a161:	48 8b 55 d8          	mov    -0x28(%rbp),%rdx
    a165:	eb 7d                	jmp    a1e4 <_ZNSt8_Rb_treeINSt7__cxx1112basic_stringIcSt11char_traitsIcESaIcEEES5_St9_IdentityIS5_ESt4lessIS5_ESaIS5_EE24_M_get_insert_unique_posERKS5_+0x182>
    a167:	48 8d 45 c0          	lea    -0x40(%rbp),%rax
    a16b:	48 89 c7             	mov    %rax,%rdi
    a16e:	e8 0d 0c 00 00       	call   ad80 <_ZNSt17_Rb_tree_iteratorINSt7__cxx1112basic_stringIcSt11char_traitsIcESaIcEEEEmmEv>
    a173:	48 8b 5d 98          	mov    -0x68(%rbp),%rbx
    a177:	48 8b 45 c0          	mov    -0x40(%rbp),%rax
    a17b:	48 89 c7             	mov    %rax,%rdi
    a17e:	e8 29 0c 00 00       	call   adac <_ZNSt8_Rb_treeINSt7__cxx1112basic_stringIcSt11char_traitsIcESaIcEEES5_St9_IdentityIS5_ESt4lessIS5_ESaIS5_EE6_S_keyEPKSt18_Rb_tree_node_base>
    a183:	48 89 c1             	mov    %rax,%rcx
    a186:	48 8b 45 90          	mov    -0x70(%rbp),%rax
    a18a:	48 89 c2             	mov    %rax,%rdx
    a18d:	48 89 ce             	mov    %rcx,%rsi
    a190:	48 89 df             	mov    %rbx,%rdi
    a193:	e8 d8 ce ff ff       	call   7070 <_ZNKSt4lessINSt7__cxx1112basic_stringIcSt11char_traitsIcESaIcEEEEclERKS5_S8_>
    a198:	84 c0                	test   %al,%al
    a19a:	74 21                	je     a1bd <_ZNSt8_Rb_treeINSt7__cxx1112basic_stringIcSt11char_traitsIcESaIcEEES5_St9_IdentityIS5_ESt4lessIS5_ESaIS5_EE24_M_get_insert_unique_posERKS5_+0x15b>
    a19c:	48 8d 55 b8          	lea    -0x48(%rbp),%rdx
    a1a0:	48 8d 4d b0          	lea    -0x50(%rbp),%rcx
    a1a4:	48 8d 45 d0          	lea    -0x30(%rbp),%rax
    a1a8:	48 89 ce             	mov    %rcx,%rsi
    a1ab:	48 89 c7             	mov    %rax,%rdi
    a1ae:	e8 85 0b 00 00       	call   ad38 <_ZNSt4pairIPSt18_Rb_tree_node_baseS1_EC1IRPSt13_Rb_tree_nodeINSt7__cxx1112basic_stringIcSt11char_traitsIcESaIcEEEERS1_Lb1EEEOT_OT0_>
    a1b3:	48 8b 45 d0          	mov    -0x30(%rbp),%rax
    a1b7:	48 8b 55 d8          	mov    -0x28(%rbp),%rdx
    a1bb:	eb 27                	jmp    a1e4 <_ZNSt8_Rb_treeINSt7__cxx1112basic_stringIcSt11char_traitsIcESaIcEEES5_St9_IdentityIS5_ESt4lessIS5_ESaIS5_EE24_M_get_insert_unique_posERKS5_+0x182>
    a1bd:	48 c7 45 c8 00 00 00 	movq   $0x0,-0x38(%rbp)
    a1c4:	00 
    a1c5:	48 8d 55 c8          	lea    -0x38(%rbp),%rdx
    a1c9:	48 8d 4d c0          	lea    -0x40(%rbp),%rcx
    a1cd:	48 8d 45 d0          	lea    -0x30(%rbp),%rax
    a1d1:	48 89 ce             	mov    %rcx,%rsi
    a1d4:	48 89 c7             	mov    %rax,%rdi
    a1d7:	e8 70 f6 ff ff       	call   984c <_ZNSt4pairIPSt18_Rb_tree_node_baseS1_EC1IS1_S1_Lb1EEERKS1_S5_>
    a1dc:	48 8b 45 d0          	mov    -0x30(%rbp),%rax
    a1e0:	48 8b 55 d8          	mov    -0x28(%rbp),%rdx
    a1e4:	48 8b 4d e8          	mov    -0x18(%rbp),%rcx
    a1e8:	64 48 2b 0c 25 28 00 	sub    %fs:0x28,%rcx
    a1ef:	00 00 
    a1f1:	74 05                	je     a1f8 <_ZNSt8_Rb_treeINSt7__cxx1112basic_stringIcSt11char_traitsIcESaIcEEES5_St9_IdentityIS5_ESt4lessIS5_ESaIS5_EE24_M_get_insert_unique_posERKS5_+0x196>
    a1f3:	e8 88 95 ff ff       	call   3780 <_init+0x780>
    a1f8:	48 8b 5d f8          	mov    -0x8(%rbp),%rbx
    a1fc:	c9                   	leave  
    a1fd:	c3                   	ret    

000000000000a1fe <_ZNKSt8_Rb_treeINSt7__cxx1112basic_stringIcSt11char_traitsIcESaIcEEES5_St9_IdentityIS5_ESt4lessIS5_ESaIS5_EE10_Auto_node6_M_keyEv>:
    a1fe:	f3 0f 1e fa          	endbr64 
    a202:	55                   	push   %rbp
    a203:	48 89 e5             	mov    %rsp,%rbp
    a206:	48 83 ec 10          	sub    $0x10,%rsp
    a20a:	48 89 7d f8          	mov    %rdi,-0x8(%rbp)
    a20e:	48 8b 45 f8          	mov    -0x8(%rbp),%rax
    a212:	48 8b 40 08          	mov    0x8(%rax),%rax
    a216:	48 89 c7             	mov    %rax,%rdi
    a219:	e8 50 0a 00 00       	call   ac6e <_ZNSt8_Rb_treeINSt7__cxx1112basic_stringIcSt11char_traitsIcESaIcEEES5_St9_IdentityIS5_ESt4lessIS5_ESaIS5_EE6_S_keyEPKSt13_Rb_tree_nodeIS5_E>
    a21e:	c9                   	leave  
    a21f:	c3                   	ret    

000000000000a220 <_ZNSt8_Rb_treeINSt7__cxx1112basic_stringIcSt11char_traitsIcESaIcEEES5_St9_IdentityIS5_ESt4lessIS5_ESaIS5_EE10_Auto_node9_M_insertESt4pairIPSt18_Rb_tree_node_baseSF_E>:
    a220:	f3 0f 1e fa          	endbr64 
    a224:	55                   	push   %rbp
    a225:	48 89 e5             	mov    %rsp,%rbp
    a228:	48 83 ec 30          	sub    $0x30,%rsp
    a22c:	48 89 7d e8          	mov    %rdi,-0x18(%rbp)
    a230:	48 89 d1             	mov    %rdx,%rcx
    a233:	48 89 f0             	mov    %rsi,%rax
    a236:	48 89 fa             	mov    %rdi,%rdx
    a239:	48 89 ca             	mov    %rcx,%rdx
    a23c:	48 89 45 d0          	mov    %rax,-0x30(%rbp)
    a240:	48 89 55 d8          	mov    %rdx,-0x28(%rbp)
    a244:	64 48 8b 04 25 28 00 	mov    %fs:0x28,%rax
    a24b:	00 00 
    a24d:	48 89 45 f8          	mov    %rax,-0x8(%rbp)
    a251:	31 c0                	xor    %eax,%eax
    a253:	48 8b 45 e8          	mov    -0x18(%rbp),%rax
    a257:	48 8b 00             	mov    (%rax),%rax
    a25a:	48 8b 55 e8          	mov    -0x18(%rbp),%rdx
    a25e:	48 8b 4a 08          	mov    0x8(%rdx),%rcx
    a262:	48 8b 55 d8          	mov    -0x28(%rbp),%rdx
    a266:	48 8b 75 d0          	mov    -0x30(%rbp),%rsi
    a26a:	48 89 c7             	mov    %rax,%rdi
    a26d:	e8 58 0b 00 00       	call   adca <_ZNSt8_Rb_treeINSt7__cxx1112basic_stringIcSt11char_traitsIcESaIcEEES5_St9_IdentityIS5_ESt4lessIS5_ESaIS5_EE14_M_insert_nodeEPSt18_Rb_tree_node_baseSD_PSt13_Rb_tree_nodeIS5_E>
    a272:	48 89 45 f0          	mov    %rax,-0x10(%rbp)
    a276:	48 8b 45 e8          	mov    -0x18(%rbp),%rax
    a27a:	48 c7 40 08 00 00 00 	movq   $0x0,0x8(%rax)
    a281:	00 
    a282:	48 8b 45 f0          	mov    -0x10(%rbp),%rax
    a286:	48 8b 55 f8          	mov    -0x8(%rbp),%rdx
    a28a:	64 48 2b 14 25 28 00 	sub    %fs:0x28,%rdx
    a291:	00 00 
    a293:	74 05                	je     a29a <_ZNSt8_Rb_treeINSt7__cxx1112basic_stringIcSt11char_traitsIcESaIcEEES5_St9_IdentityIS5_ESt4lessIS5_ESaIS5_EE10_Auto_node9_M_insertESt4pairIPSt18_Rb_tree_node_baseSF_E+0x7a>
    a295:	e8 e6 94 ff ff       	call   3780 <_init+0x780>
    a29a:	c9                   	leave  
    a29b:	c3                   	ret    

000000000000a29c <_ZNSt4pairISt17_Rb_tree_iteratorINSt7__cxx1112basic_stringIcSt11char_traitsIcESaIcEEEEbEC1IS7_bLb1EEEOT_OT0_>:
    a29c:	f3 0f 1e fa          	endbr64 
    a2a0:	55                   	push   %rbp
    a2a1:	48 89 e5             	mov    %rsp,%rbp
    a2a4:	48 83 ec 20          	sub    $0x20,%rsp
    a2a8:	48 89 7d f8          	mov    %rdi,-0x8(%rbp)
    a2ac:	48 89 75 f0          	mov    %rsi,-0x10(%rbp)
    a2b0:	48 89 55 e8          	mov    %rdx,-0x18(%rbp)
    a2b4:	48 8b 45 f0          	mov    -0x10(%rbp),%rax
    a2b8:	48 89 c7             	mov    %rax,%rdi
    a2bb:	e8 f4 0b 00 00       	call   aeb4 <_ZSt7forwardISt17_Rb_tree_iteratorINSt7__cxx1112basic_stringIcSt11char_traitsIcESaIcEEEEEOT_RNSt16remove_referenceIS8_E4typeE>
    a2c0:	48 8b 55 f8          	mov    -0x8(%rbp),%rdx
    a2c4:	48 8b 00             	mov    (%rax),%rax
    a2c7:	48 89 02             	mov    %rax,(%rdx)
    a2ca:	48 8b 45 e8          	mov    -0x18(%rbp),%rax
    a2ce:	48 89 c7             	mov    %rax,%rdi
    a2d1:	e8 f0 0b 00 00       	call   aec6 <_ZSt7forwardIbEOT_RNSt16remove_referenceIS0_E4typeE>
    a2d6:	0f b6 10             	movzbl (%rax),%edx
    a2d9:	48 8b 45 f8          	mov    -0x8(%rbp),%rax
    a2dd:	88 50 08             	mov    %dl,0x8(%rax)
    a2e0:	90                   	nop
    a2e1:	c9                   	leave  
    a2e2:	c3                   	ret    
    a2e3:	90                   	nop

000000000000a2e4 <_ZNSt17_Rb_tree_iteratorINSt7__cxx1112basic_stringIcSt11char_traitsIcESaIcEEEEC1EPSt18_Rb_tree_node_base>:
    a2e4:	f3 0f 1e fa          	endbr64 
    a2e8:	55                   	push   %rbp
    a2e9:	48 89 e5             	mov    %rsp,%rbp
    a2ec:	48 89 7d f8          	mov    %rdi,-0x8(%rbp)
    a2f0:	48 89 75 f0          	mov    %rsi,-0x10(%rbp)
    a2f4:	48 8b 45 f8          	mov    -0x8(%rbp),%rax
    a2f8:	48 8b 55 f0          	mov    -0x10(%rbp),%rdx
    a2fc:	48 89 10             	mov    %rdx,(%rax)
    a2ff:	90                   	nop
    a300:	5d                   	pop    %rbp
    a301:	c3                   	ret    

000000000000a302 <_ZNSt8_Rb_treeINSt7__cxx1112basic_stringIcSt11char_traitsIcESaIcEEES5_St9_IdentityIS5_ESt4lessIS5_ESaIS5_EE15_M_destroy_nodeEPSt13_Rb_tree_nodeIS5_E>:
    a302:	f3 0f 1e fa          	endbr64 
    a306:	55                   	push   %rbp
    a307:	48 89 e5             	mov    %rsp,%rbp
    a30a:	53                   	push   %rbx
    a30b:	48 83 ec 38          	sub    $0x38,%rsp
    a30f:	48 89 7d c8          	mov    %rdi,-0x38(%rbp)
    a313:	48 89 75 c0          	mov    %rsi,-0x40(%rbp)
    a317:	48 8b 45 c0          	mov    -0x40(%rbp),%rax
    a31b:	48 89 c7             	mov    %rax,%rdi
    a31e:	e8 c7 0b 00 00       	call   aeea <_ZNSt13_Rb_tree_nodeINSt7__cxx1112basic_stringIcSt11char_traitsIcESaIcEEEE9_M_valptrEv>
    a323:	48 89 c3             	mov    %rax,%rbx
    a326:	48 8b 45 c8          	mov    -0x38(%rbp),%rax
    a32a:	48 89 c7             	mov    %rax,%rdi
    a32d:	e8 a6 0b 00 00       	call   aed8 <_ZNSt8_Rb_treeINSt7__cxx1112basic_stringIcSt11char_traitsIcESaIcEEES5_St9_IdentityIS5_ESt4lessIS5_ESaIS5_EE21_M_get_Node_allocatorEv>
    a332:	48 89 45 d0          	mov    %rax,-0x30(%rbp)
    a336:	48 89 5d d8          	mov    %rbx,-0x28(%rbp)
    a33a:	48 8b 45 d0          	mov    -0x30(%rbp),%rax
    a33e:	48 89 45 e0          	mov    %rax,-0x20(%rbp)
    a342:	48 8b 45 d8          	mov    -0x28(%rbp),%rax
    a346:	48 89 45 e8          	mov    %rax,-0x18(%rbp)
    a34a:	48 8b 45 e8          	mov    -0x18(%rbp),%rax
    a34e:	48 89 c7             	mov    %rax,%rdi
    a351:	e8 9a 92 ff ff       	call   35f0 <_init+0x5f0>
    a356:	90                   	nop
    a357:	90                   	nop
    a358:	90                   	nop
    a359:	48 8b 5d f8          	mov    -0x8(%rbp),%rbx
    a35d:	c9                   	leave  
    a35e:	c3                   	ret    
    a35f:	90                   	nop

000000000000a360 <_ZNSt8_Rb_treeINSt7__cxx1112basic_stringIcSt11char_traitsIcESaIcEEES5_St9_IdentityIS5_ESt4lessIS5_ESaIS5_EE11_M_put_nodeEPSt13_Rb_tree_nodeIS5_E>:
    a360:	f3 0f 1e fa          	endbr64 
    a364:	55                   	push   %rbp
    a365:	48 89 e5             	mov    %rsp,%rbp
    a368:	48 83 ec 30          	sub    $0x30,%rsp
    a36c:	48 89 7d d8          	mov    %rdi,-0x28(%rbp)
    a370:	48 89 75 d0          	mov    %rsi,-0x30(%rbp)
    a374:	48 8b 45 d8          	mov    -0x28(%rbp),%rax
    a378:	48 89 c7             	mov    %rax,%rdi
    a37b:	e8 58 0b 00 00       	call   aed8 <_ZNSt8_Rb_treeINSt7__cxx1112basic_stringIcSt11char_traitsIcESaIcEEES5_St9_IdentityIS5_ESt4lessIS5_ESaIS5_EE21_M_get_Node_allocatorEv>
    a380:	48 89 45 e8          	mov    %rax,-0x18(%rbp)
    a384:	48 8b 45 d0          	mov    -0x30(%rbp),%rax
    a388:	48 89 45 f0          	mov    %rax,-0x10(%rbp)
    a38c:	48 c7 45 f8 01 00 00 	movq   $0x1,-0x8(%rbp)
    a393:	00 
    a394:	48 8b 55 f8          	mov    -0x8(%rbp),%rdx
    a398:	48 8b 4d f0          	mov    -0x10(%rbp),%rcx
    a39c:	48 8b 45 e8          	mov    -0x18(%rbp),%rax
    a3a0:	48 89 ce             	mov    %rcx,%rsi
    a3a3:	48 89 c7             	mov    %rax,%rdi
    a3a6:	e8 e7 11 00 00       	call   b592 <_ZNSt15__new_allocatorISt13_Rb_tree_nodeINSt7__cxx1112basic_stringIcSt11char_traitsIcESaIcEEEEE10deallocateEPS7_m>
    a3ab:	90                   	nop
    a3ac:	90                   	nop
    a3ad:	c9                   	leave  
    a3ae:	c3                   	ret    
    a3af:	90                   	nop

000000000000a3b0 <_ZNKSt12_Vector_baseISt3mapINSt7__cxx1112basic_stringIcSt11char_traitsIcESaIcEEES6_St4lessIS6_ESaISt4pairIKS6_S6_EEESaISD_EE19_M_get_Tp_allocatorEv>:
    a3b0:	f3 0f 1e fa          	endbr64 
    a3b4:	55                   	push   %rbp
    a3b5:	48 89 e5             	mov    %rsp,%rbp
    a3b8:	48 89 7d f8          	mov    %rdi,-0x8(%rbp)
    a3bc:	48 8b 45 f8          	mov    -0x8(%rbp),%rax
    a3c0:	5d                   	pop    %rbp
    a3c1:	c3                   	ret    

000000000000a3c2 <_ZNSt12_Vector_baseISt3mapINSt7__cxx1112basic_stringIcSt11char_traitsIcESaIcEEES6_St4lessIS6_ESaISt4pairIKS6_S6_EEESaISD_EEC1ERKSE_>:
    a3c2:	f3 0f 1e fa          	endbr64 
    a3c6:	55                   	push   %rbp
    a3c7:	48 89 e5             	mov    %rsp,%rbp
    a3ca:	48 83 ec 10          	sub    $0x10,%rsp
    a3ce:	48 89 7d f8          	mov    %rdi,-0x8(%rbp)
    a3d2:	48 89 75 f0          	mov    %rsi,-0x10(%rbp)
    a3d6:	48 8b 45 f8          	mov    -0x8(%rbp),%rax
    a3da:	48 8b 55 f0          	mov    -0x10(%rbp),%rdx
    a3de:	48 89 d6             	mov    %rdx,%rsi
    a3e1:	48 89 c7             	mov    %rax,%rdi
    a3e4:	e8 23 0b 00 00       	call   af0c <_ZNSt12_Vector_baseISt3mapINSt7__cxx1112basic_stringIcSt11char_traitsIcESaIcEEES6_St4lessIS6_ESaISt4pairIKS6_S6_EEESaISD_EE12_Vector_implC1ERKSE_>
    a3e9:	90                   	nop
    a3ea:	c9                   	leave  
    a3eb:	c3                   	ret    

000000000000a3ec <_ZNSt12_Vector_baseISt3mapINSt7__cxx1112basic_stringIcSt11char_traitsIcESaIcEEES6_St4lessIS6_ESaISt4pairIKS6_S6_EEESaISD_EE17_Vector_impl_data12_M_copy_dataERKSG_>:
    a3ec:	f3 0f 1e fa          	endbr64 
    a3f0:	55                   	push   %rbp
    a3f1:	48 89 e5             	mov    %rsp,%rbp
    a3f4:	48 89 7d f8          	mov    %rdi,-0x8(%rbp)
    a3f8:	48 89 75 f0          	mov    %rsi,-0x10(%rbp)
    a3fc:	48 8b 45 f0          	mov    -0x10(%rbp),%rax
    a400:	48 8b 10             	mov    (%rax),%rdx
    a403:	48 8b 45 f8          	mov    -0x8(%rbp),%rax
    a407:	48 89 10             	mov    %rdx,(%rax)
    a40a:	48 8b 45 f0          	mov    -0x10(%rbp),%rax
    a40e:	48 8b 50 08          	mov    0x8(%rax),%rdx
    a412:	48 8b 45 f8          	mov    -0x8(%rbp),%rax
    a416:	48 89 50 08          	mov    %rdx,0x8(%rax)
    a41a:	48 8b 45 f0          	mov    -0x10(%rbp),%rax
    a41e:	48 8b 50 10          	mov    0x10(%rax),%rdx
    a422:	48 8b 45 f8          	mov    -0x8(%rbp),%rax
    a426:	48 89 50 10          	mov    %rdx,0x10(%rax)
    a42a:	90                   	nop
    a42b:	5d                   	pop    %rbp
    a42c:	c3                   	ret    

000000000000a42d <_ZSt4moveIRSaISt3mapINSt7__cxx1112basic_stringIcSt11char_traitsIcESaIcEEES6_St4lessIS6_ESaISt4pairIKS6_S6_EEEEEONSt16remove_referenceIT_E4typeEOSH_>:
    a42d:	f3 0f 1e fa          	endbr64 
    a431:	55                   	push   %rbp
    a432:	48 89 e5             	mov    %rsp,%rbp
    a435:	48 89 7d f8          	mov    %rdi,-0x8(%rbp)
    a439:	48 8b 45 f8          	mov    -0x8(%rbp),%rax
    a43d:	5d                   	pop    %rbp
    a43e:	c3                   	ret    

000000000000a43f <_ZSt11__addressofISt3mapINSt7__cxx1112basic_stringIcSt11char_traitsIcESaIcEEES6_St4lessIS6_ESaISt4pairIKS6_S6_EEEEPT_RSE_>:
    a43f:	f3 0f 1e fa          	endbr64 
    a443:	55                   	push   %rbp
    a444:	48 89 e5             	mov    %rsp,%rbp
    a447:	48 89 7d f8          	mov    %rdi,-0x8(%rbp)
    a44b:	48 8b 45 f8          	mov    -0x8(%rbp),%rax
    a44f:	5d                   	pop    %rbp
    a450:	c3                   	ret    

000000000000a451 <_ZSt8_DestroyISt3mapINSt7__cxx1112basic_stringIcSt11char_traitsIcESaIcEEES6_St4lessIS6_ESaISt4pairIKS6_S6_EEEEvPT_>:
    a451:	f3 0f 1e fa          	endbr64 
    a455:	55                   	push   %rbp
    a456:	48 89 e5             	mov    %rsp,%rbp
    a459:	48 83 ec 10          	sub    $0x10,%rsp
    a45d:	48 89 7d f8          	mov    %rdi,-0x8(%rbp)
    a461:	48 8b 45 f8          	mov    -0x8(%rbp),%rax
    a465:	48 89 c7             	mov    %rax,%rdi
    a468:	e8 dd b6 ff ff       	call   5b4a <_ZNSt3mapINSt7__cxx1112basic_stringIcSt11char_traitsIcESaIcEEES5_St4lessIS5_ESaISt4pairIKS5_S5_EEED1Ev>
    a46d:	90                   	nop
    a46e:	c9                   	leave  
    a46f:	c3                   	ret    

000000000000a470 <_ZNSt8_Rb_treeINSt7__cxx1112basic_stringIcSt11char_traitsIcESaIcEEESt4pairIKS5_S5_ESt10_Select1stIS8_ESt4lessIS5_ESaIS8_EE21_M_get_Node_allocatorEv>:
    a470:	f3 0f 1e fa          	endbr64 
    a474:	55                   	push   %rbp
    a475:	48 89 e5             	mov    %rsp,%rbp
    a478:	48 89 7d f8          	mov    %rdi,-0x8(%rbp)
    a47c:	48 8b 45 f8          	mov    -0x8(%rbp),%rax
    a480:	5d                   	pop    %rbp
    a481:	c3                   	ret    

000000000000a482 <_ZN9__gnu_cxx16__aligned_membufISt4pairIKNSt7__cxx1112basic_stringIcSt11char_traitsIcESaIcEEES7_EE7_M_addrEv>:
    a482:	f3 0f 1e fa          	endbr64 
    a486:	55                   	push   %rbp
    a487:	48 89 e5             	mov    %rsp,%rbp
    a48a:	48 89 7d f8          	mov    %rdi,-0x8(%rbp)
    a48e:	48 8b 45 f8          	mov    -0x8(%rbp),%rax
    a492:	5d                   	pop    %rbp
    a493:	c3                   	ret    

000000000000a494 <_ZNSt8_Rb_treeINSt7__cxx1112basic_stringIcSt11char_traitsIcESaIcEEESt4pairIKS5_S5_ESt10_Select1stIS8_ESt4lessIS5_ESaIS8_EE11_M_get_nodeEv>:
    a494:	f3 0f 1e fa          	endbr64 
    a498:	55                   	push   %rbp
    a499:	48 89 e5             	mov    %rsp,%rbp
    a49c:	48 83 ec 20          	sub    $0x20,%rsp
    a4a0:	48 89 7d e8          	mov    %rdi,-0x18(%rbp)
    a4a4:	48 8b 45 e8          	mov    -0x18(%rbp),%rax
    a4a8:	48 89 c7             	mov    %rax,%rdi
    a4ab:	e8 c0 ff ff ff       	call   a470 <_ZNSt8_Rb_treeINSt7__cxx1112basic_stringIcSt11char_traitsIcESaIcEEESt4pairIKS5_S5_ESt10_Select1stIS8_ESt4lessIS5_ESaIS8_EE21_M_get_Node_allocatorEv>
    a4b0:	48 89 45 f0          	mov    %rax,-0x10(%rbp)
    a4b4:	48 c7 45 f8 01 00 00 	movq   $0x1,-0x8(%rbp)
    a4bb:	00 
    a4bc:	48 8b 4d f8          	mov    -0x8(%rbp),%rcx
    a4c0:	48 8b 45 f0          	mov    -0x10(%rbp),%rax
    a4c4:	ba 00 00 00 00       	mov    $0x0,%edx
    a4c9:	48 89 ce             	mov    %rcx,%rsi
    a4cc:	48 89 c7             	mov    %rax,%rdi
    a4cf:	e8 f2 10 00 00       	call   b5c6 <_ZNSt15__new_allocatorISt13_Rb_tree_nodeISt4pairIKNSt7__cxx1112basic_stringIcSt11char_traitsIcESaIcEEES7_EEE8allocateEmPKv>
    a4d4:	90                   	nop
    a4d5:	c9                   	leave  
    a4d6:	c3                   	ret    
    a4d7:	90                   	nop

000000000000a4d8 <_ZNSt8_Rb_treeINSt7__cxx1112basic_stringIcSt11char_traitsIcESaIcEEESt4pairIKS5_S5_ESt10_Select1stIS8_ESt4lessIS5_ESaIS8_EE17_M_construct_nodeIJRKSt21piecewise_construct_tSt5tupleIJRS7_EESJ_IJEEEEEvPSt13_Rb_tree_nodeIS8_EDpOT_>:
    a4d8:	f3 0f 1e fa          	endbr64 
    a4dc:	55                   	push   %rbp
    a4dd:	48 89 e5             	mov    %rsp,%rbp
    a4e0:	41 56                	push   %r14
    a4e2:	41 55                	push   %r13
    a4e4:	41 54                	push   %r12
    a4e6:	53                   	push   %rbx
    a4e7:	48 81 ec 90 00 00 00 	sub    $0x90,%rsp
    a4ee:	48 89 bd 78 ff ff ff 	mov    %rdi,-0x88(%rbp)
    a4f5:	48 89 b5 70 ff ff ff 	mov    %rsi,-0x90(%rbp)
    a4fc:	48 89 95 68 ff ff ff 	mov    %rdx,-0x98(%rbp)
    a503:	48 89 8d 60 ff ff ff 	mov    %rcx,-0xa0(%rbp)
    a50a:	4c 89 85 58 ff ff ff 	mov    %r8,-0xa8(%rbp)
    a511:	64 48 8b 04 25 28 00 	mov    %fs:0x28,%rax
    a518:	00 00 
    a51a:	48 89 45 d8          	mov    %rax,-0x28(%rbp)
    a51e:	31 c0                	xor    %eax,%eax
    a520:	48 8b 85 70 ff ff ff 	mov    -0x90(%rbp),%rax
    a527:	48 89 c6             	mov    %rax,%rsi
    a52a:	bf 60 00 00 00       	mov    $0x60,%edi
    a52f:	e8 a2 b2 ff ff       	call   57d6 <_ZnwmPv>
    a534:	48 8b 85 58 ff ff ff 	mov    -0xa8(%rbp),%rax
    a53b:	48 89 c7             	mov    %rax,%rdi
    a53e:	e8 f9 df ff ff       	call   853c <_ZSt7forwardISt5tupleIJEEEOT_RNSt16remove_referenceIS2_E4typeE>
    a543:	48 89 c3             	mov    %rax,%rbx
    a546:	48 8b 85 60 ff ff ff 	mov    -0xa0(%rbp),%rax
    a54d:	48 89 c7             	mov    %rax,%rdi
    a550:	e8 d5 df ff ff       	call   852a <_ZSt7forwardISt5tupleIJRKNSt7__cxx1112basic_stringIcSt11char_traitsIcESaIcEEEEEEOT_RNSt16remove_referenceISA_E4typeE>
    a555:	49 89 c4             	mov    %rax,%r12
    a558:	48 8b 85 68 ff ff ff 	mov    -0x98(%rbp),%rax
    a55f:	48 89 c7             	mov    %rax,%rdi
    a562:	e8 b1 df ff ff       	call   8518 <_ZSt7forwardIRKSt21piecewise_construct_tEOT_RNSt16remove_referenceIS3_E4typeE>
    a567:	49 89 c5             	mov    %rax,%r13
    a56a:	48 8b 85 70 ff ff ff 	mov    -0x90(%rbp),%rax
    a571:	48 89 c7             	mov    %rax,%rdi
    a574:	e8 27 df ff ff       	call   84a0 <_ZNSt13_Rb_tree_nodeISt4pairIKNSt7__cxx1112basic_stringIcSt11char_traitsIcESaIcEEES6_EE9_M_valptrEv>
    a579:	49 89 c6             	mov    %rax,%r14
    a57c:	48 8b 85 78 ff ff ff 	mov    -0x88(%rbp),%rax
    a583:	48 89 c7             	mov    %rax,%rdi
    a586:	e8 e5 fe ff ff       	call   a470 <_ZNSt8_Rb_treeINSt7__cxx1112basic_stringIcSt11char_traitsIcESaIcEEESt4pairIKS5_S5_ESt10_Select1stIS8_ESt4lessIS5_ESaIS8_EE21_M_get_Node_allocatorEv>
    a58b:	48 89 45 88          	mov    %rax,-0x78(%rbp)
    a58f:	4c 89 75 90          	mov    %r14,-0x70(%rbp)
    a593:	4c 89 6d 98          	mov    %r13,-0x68(%rbp)
    a597:	4c 89 65 a0          	mov    %r12,-0x60(%rbp)
    a59b:	48 89 5d a8          	mov    %rbx,-0x58(%rbp)
    a59f:	48 8b 45 a8          	mov    -0x58(%rbp),%rax
    a5a3:	48 89 c7             	mov    %rax,%rdi
    a5a6:	e8 91 df ff ff       	call   853c <_ZSt7forwardISt5tupleIJEEEOT_RNSt16remove_referenceIS2_E4typeE>
    a5ab:	48 89 c3             	mov    %rax,%rbx
    a5ae:	48 8b 45 a0          	mov    -0x60(%rbp),%rax
    a5b2:	48 89 c7             	mov    %rax,%rdi
    a5b5:	e8 70 df ff ff       	call   852a <_ZSt7forwardISt5tupleIJRKNSt7__cxx1112basic_stringIcSt11char_traitsIcESaIcEEEEEEOT_RNSt16remove_referenceISA_E4typeE>
    a5ba:	49 89 c4             	mov    %rax,%r12
    a5bd:	48 8b 45 98          	mov    -0x68(%rbp),%rax
    a5c1:	48 89 c7             	mov    %rax,%rdi
    a5c4:	e8 4f df ff ff       	call   8518 <_ZSt7forwardIRKSt21piecewise_construct_tEOT_RNSt16remove_referenceIS3_E4typeE>
    a5c9:	48 8b 55 88          	mov    -0x78(%rbp),%rdx
    a5cd:	48 89 55 b0          	mov    %rdx,-0x50(%rbp)
    a5d1:	48 8b 55 90          	mov    -0x70(%rbp),%rdx
    a5d5:	48 89 55 b8          	mov    %rdx,-0x48(%rbp)
    a5d9:	48 89 45 c0          	mov    %rax,-0x40(%rbp)
    a5dd:	4c 89 65 c8          	mov    %r12,-0x38(%rbp)
    a5e1:	48 89 5d d0          	mov    %rbx,-0x30(%rbp)
    a5e5:	48 8b 5d b8          	mov    -0x48(%rbp),%rbx
    a5e9:	48 89 de             	mov    %rbx,%rsi
    a5ec:	bf 40 00 00 00       	mov    $0x40,%edi
    a5f1:	e8 e0 b1 ff ff       	call   57d6 <_ZnwmPv>
    a5f6:	49 89 c4             	mov    %rax,%r12
    a5f9:	41 be 01 00 00 00    	mov    $0x1,%r14d
    a5ff:	48 8b 45 d0          	mov    -0x30(%rbp),%rax
    a603:	48 89 c7             	mov    %rax,%rdi
    a606:	e8 31 df ff ff       	call   853c <_ZSt7forwardISt5tupleIJEEEOT_RNSt16remove_referenceIS2_E4typeE>
    a60b:	48 8b 45 c8          	mov    -0x38(%rbp),%rax
    a60f:	48 89 c7             	mov    %rax,%rdi
    a612:	e8 13 df ff ff       	call   852a <_ZSt7forwardISt5tupleIJRKNSt7__cxx1112basic_stringIcSt11char_traitsIcESaIcEEEEEEOT_RNSt16remove_referenceISA_E4typeE>
    a617:	48 89 c2             	mov    %rax,%rdx
    a61a:	48 8d 45 80          	lea    -0x80(%rbp),%rax
    a61e:	48 89 d6             	mov    %rdx,%rsi
    a621:	48 89 c7             	mov    %rax,%rdi
    a624:	e8 11 10 00 00       	call   b63a <_ZNSt5tupleIJRKNSt7__cxx1112basic_stringIcSt11char_traitsIcESaIcEEEEEC1EOS8_>
    a629:	48 8b 45 c0          	mov    -0x40(%rbp),%rax
    a62d:	48 89 c7             	mov    %rax,%rdi
    a630:	e8 e3 de ff ff       	call   8518 <_ZSt7forwardIRKSt21piecewise_construct_tEOT_RNSt16remove_referenceIS3_E4typeE>
    a635:	48 8d 45 80          	lea    -0x80(%rbp),%rax
    a639:	48 89 c6             	mov    %rax,%rsi
    a63c:	4c 89 e7             	mov    %r12,%rdi
    a63f:	e8 6e 13 00 00       	call   b9b2 <_ZNSt4pairIKNSt7__cxx1112basic_stringIcSt11char_traitsIcESaIcEEES5_EC1IJRS6_EJEEESt21piecewise_construct_tSt5tupleIJDpT_EESB_IJDpT0_EE>
    a644:	90                   	nop
    a645:	90                   	nop
    a646:	90                   	nop
    a647:	48 8b 45 d8          	mov    -0x28(%rbp),%rax
    a64b:	64 48 2b 04 25 28 00 	sub    %fs:0x28,%rax
    a652:	00 00 
    a654:	0f 84 86 00 00 00    	je     a6e0 <_ZNSt8_Rb_treeINSt7__cxx1112basic_stringIcSt11char_traitsIcESaIcEEESt4pairIKS5_S5_ESt10_Select1stIS8_ESt4lessIS5_ESaIS8_EE17_M_construct_nodeIJRKSt21piecewise_construct_tSt5tupleIJRS7_EESJ_IJEEEEEvPSt13_Rb_tree_nodeIS8_EDpOT_+0x208>
    a65a:	eb 7f                	jmp    a6db <_ZNSt8_Rb_treeINSt7__cxx1112basic_stringIcSt11char_traitsIcESaIcEEESt4pairIKS5_S5_ESt10_Select1stIS8_ESt4lessIS5_ESaIS8_EE17_M_construct_nodeIJRKSt21piecewise_construct_tSt5tupleIJRS7_EESJ_IJEEEEEvPSt13_Rb_tree_nodeIS8_EDpOT_+0x203>
    a65c:	f3 0f 1e fa          	endbr64 
    a660:	49 89 c5             	mov    %rax,%r13
    a663:	45 84 f6             	test   %r14b,%r14b
    a666:	74 0b                	je     a673 <_ZNSt8_Rb_treeINSt7__cxx1112basic_stringIcSt11char_traitsIcESaIcEEESt4pairIKS5_S5_ESt10_Select1stIS8_ESt4lessIS5_ESaIS8_EE17_M_construct_nodeIJRKSt21piecewise_construct_tSt5tupleIJRS7_EESJ_IJEEEEEvPSt13_Rb_tree_nodeIS8_EDpOT_+0x19b>
    a668:	48 89 de             	mov    %rbx,%rsi
    a66b:	4c 89 e7             	mov    %r12,%rdi
    a66e:	e8 79 b1 ff ff       	call   57ec <_ZdlPvS_>
    a673:	4c 89 e8             	mov    %r13,%rax
    a676:	48 89 c7             	mov    %rax,%rdi
    a679:	e8 02 8f ff ff       	call   3580 <_init+0x580>
    a67e:	48 8b 95 70 ff ff ff 	mov    -0x90(%rbp),%rdx
    a685:	48 8b 85 78 ff ff ff 	mov    -0x88(%rbp),%rax
    a68c:	48 89 d6             	mov    %rdx,%rsi
    a68f:	48 89 c7             	mov    %rax,%rdi
    a692:	e8 2b ef ff ff       	call   95c2 <_ZNSt8_Rb_treeINSt7__cxx1112basic_stringIcSt11char_traitsIcESaIcEEESt4pairIKS5_S5_ESt10_Select1stIS8_ESt4lessIS5_ESaIS8_EE11_M_put_nodeEPSt13_Rb_tree_nodeIS8_E>
    a697:	48 8b 45 d8          	mov    -0x28(%rbp),%rax
    a69b:	64 48 2b 04 25 28 00 	sub    %fs:0x28,%rax
    a6a2:	00 00 
    a6a4:	74 05                	je     a6ab <_ZNSt8_Rb_treeINSt7__cxx1112basic_stringIcSt11char_traitsIcESaIcEEESt4pairIKS5_S5_ESt10_Select1stIS8_ESt4lessIS5_ESaIS8_EE17_M_construct_nodeIJRKSt21piecewise_construct_tSt5tupleIJRS7_EESJ_IJEEEEEvPSt13_Rb_tree_nodeIS8_EDpOT_+0x1d3>
    a6a6:	e8 d5 90 ff ff       	call   3780 <_init+0x780>
    a6ab:	e8 90 91 ff ff       	call   3840 <_init+0x840>
    a6b0:	f3 0f 1e fa          	endbr64 
    a6b4:	48 89 c3             	mov    %rax,%rbx
    a6b7:	e8 04 92 ff ff       	call   38c0 <_init+0x8c0>
    a6bc:	48 89 d8             	mov    %rbx,%rax
    a6bf:	48 8b 55 d8          	mov    -0x28(%rbp),%rdx
    a6c3:	64 48 2b 14 25 28 00 	sub    %fs:0x28,%rdx
    a6ca:	00 00 
    a6cc:	74 05                	je     a6d3 <_ZNSt8_Rb_treeINSt7__cxx1112basic_stringIcSt11char_traitsIcESaIcEEESt4pairIKS5_S5_ESt10_Select1stIS8_ESt4lessIS5_ESaIS8_EE17_M_construct_nodeIJRKSt21piecewise_construct_tSt5tupleIJRS7_EESJ_IJEEEEEvPSt13_Rb_tree_nodeIS8_EDpOT_+0x1fb>
    a6ce:	e8 ad 90 ff ff       	call   3780 <_init+0x780>
    a6d3:	48 89 c7             	mov    %rax,%rdi
    a6d6:	e8 35 92 ff ff       	call   3910 <_init+0x910>
    a6db:	e8 a0 90 ff ff       	call   3780 <_init+0x780>
    a6e0:	48 81 c4 90 00 00 00 	add    $0x90,%rsp
    a6e7:	5b                   	pop    %rbx
    a6e8:	41 5c                	pop    %r12
    a6ea:	41 5d                	pop    %r13
    a6ec:	41 5e                	pop    %r14
    a6ee:	5d                   	pop    %rbp
    a6ef:	c3                   	ret    

000000000000a6f0 <_ZNSt8_Rb_treeINSt7__cxx1112basic_stringIcSt11char_traitsIcESaIcEEESt4pairIKS5_S5_ESt10_Select1stIS8_ESt4lessIS5_ESaIS8_EE5beginEv>:
    a6f0:	f3 0f 1e fa          	endbr64 
    a6f4:	55                   	push   %rbp
    a6f5:	48 89 e5             	mov    %rsp,%rbp
    a6f8:	48 83 ec 20          	sub    $0x20,%rsp
    a6fc:	48 89 7d e8          	mov    %rdi,-0x18(%rbp)
    a700:	64 48 8b 04 25 28 00 	mov    %fs:0x28,%rax
    a707:	00 00 
    a709:	48 89 45 f8          	mov    %rax,-0x8(%rbp)
    a70d:	31 c0                	xor    %eax,%eax
    a70f:	48 8b 45 e8          	mov    -0x18(%rbp),%rax
    a713:	48 8b 50 18          	mov    0x18(%rax),%rdx
    a717:	48 8d 45 f0          	lea    -0x10(%rbp),%rax
    a71b:	48 89 d6             	mov    %rdx,%rsi
    a71e:	48 89 c7             	mov    %rax,%rdi
    a721:	e8 28 e3 ff ff       	call   8a4e <_ZNSt17_Rb_tree_iteratorISt4pairIKNSt7__cxx1112basic_stringIcSt11char_traitsIcESaIcEEES6_EEC1EPSt18_Rb_tree_node_base>
    a726:	48 8b 45 f0          	mov    -0x10(%rbp),%rax
    a72a:	48 8b 55 f8          	mov    -0x8(%rbp),%rdx
    a72e:	64 48 2b 14 25 28 00 	sub    %fs:0x28,%rdx
    a735:	00 00 
    a737:	74 05                	je     a73e <_ZNSt8_Rb_treeINSt7__cxx1112basic_stringIcSt11char_traitsIcESaIcEEESt4pairIKS5_S5_ESt10_Select1stIS8_ESt4lessIS5_ESaIS8_EE5beginEv+0x4e>
    a739:	e8 42 90 ff ff       	call   3780 <_init+0x780>
    a73e:	c9                   	leave  
    a73f:	c3                   	ret    

000000000000a740 <_ZNSt4pairIPSt18_Rb_tree_node_baseS1_EC1IRPSt13_Rb_tree_nodeIS_IKNSt7__cxx1112basic_stringIcSt11char_traitsIcESaIcEEESA_EERS1_Lb1EEEOT_OT0_>:
    a740:	f3 0f 1e fa          	endbr64 
    a744:	55                   	push   %rbp
    a745:	48 89 e5             	mov    %rsp,%rbp
    a748:	48 83 ec 20          	sub    $0x20,%rsp
    a74c:	48 89 7d f8          	mov    %rdi,-0x8(%rbp)
    a750:	48 89 75 f0          	mov    %rsi,-0x10(%rbp)
    a754:	48 89 55 e8          	mov    %rdx,-0x18(%rbp)
    a758:	48 8b 45 f0          	mov    -0x10(%rbp),%rax
    a75c:	48 89 c7             	mov    %rax,%rdi
    a75f:	e8 5b 08 00 00       	call   afbf <_ZSt7forwardIRPSt13_Rb_tree_nodeISt4pairIKNSt7__cxx1112basic_stringIcSt11char_traitsIcESaIcEEES7_EEEOT_RNSt16remove_referenceISD_E4typeE>
    a764:	48 8b 10             	mov    (%rax),%rdx
    a767:	48 8b 45 f8          	mov    -0x8(%rbp),%rax
    a76b:	48 89 10             	mov    %rdx,(%rax)
    a76e:	48 8b 45 e8          	mov    -0x18(%rbp),%rax
    a772:	48 89 c7             	mov    %rax,%rdi
    a775:	e8 0e 00 00 00       	call   a788 <_ZSt7forwardIRPSt18_Rb_tree_node_baseEOT_RNSt16remove_referenceIS3_E4typeE>
    a77a:	48 8b 10             	mov    (%rax),%rdx
    a77d:	48 8b 45 f8          	mov    -0x8(%rbp),%rax
    a781:	48 89 50 08          	mov    %rdx,0x8(%rax)
    a785:	90                   	nop
    a786:	c9                   	leave  
    a787:	c3                   	ret    

000000000000a788 <_ZSt7forwardIRPSt18_Rb_tree_node_baseEOT_RNSt16remove_referenceIS3_E4typeE>:
    a788:	f3 0f 1e fa          	endbr64 
    a78c:	55                   	push   %rbp
    a78d:	48 89 e5             	mov    %rsp,%rbp
    a790:	48 89 7d f8          	mov    %rdi,-0x8(%rbp)
    a794:	48 8b 45 f8          	mov    -0x8(%rbp),%rax
    a798:	5d                   	pop    %rbp
    a799:	c3                   	ret    

000000000000a79a <_ZNKSt10_Select1stISt4pairIKNSt7__cxx1112basic_stringIcSt11char_traitsIcESaIcEEES6_EEclERKS8_>:
    a79a:	f3 0f 1e fa          	endbr64 
    a79e:	55                   	push   %rbp
    a79f:	48 89 e5             	mov    %rsp,%rbp
    a7a2:	48 89 7d f8          	mov    %rdi,-0x8(%rbp)
    a7a6:	48 89 75 f0          	mov    %rsi,-0x10(%rbp)
    a7aa:	48 8b 45 f0          	mov    -0x10(%rbp),%rax
    a7ae:	5d                   	pop    %rbp
    a7af:	c3                   	ret    

000000000000a7b0 <_ZNSt8_Rb_treeINSt7__cxx1112basic_stringIcSt11char_traitsIcESaIcEEESt4pairIKS5_S5_ESt10_Select1stIS8_ESt4lessIS5_ESaIS8_EE13_Rb_tree_implISC_Lb1EEC1ERKSG_>:
    a7b0:	f3 0f 1e fa          	endbr64 
    a7b4:	55                   	push   %rbp
    a7b5:	48 89 e5             	mov    %rsp,%rbp
    a7b8:	48 83 ec 70          	sub    $0x70,%rsp
    a7bc:	48 89 7d 98          	mov    %rdi,-0x68(%rbp)
    a7c0:	48 89 75 90          	mov    %rsi,-0x70(%rbp)
    a7c4:	64 48 8b 04 25 28 00 	mov    %fs:0x28,%rax
    a7cb:	00 00 
    a7cd:	48 89 45 f8          	mov    %rax,-0x8(%rbp)
    a7d1:	31 c0                	xor    %eax,%eax
    a7d3:	48 8b 45 90          	mov    -0x70(%rbp),%rax
    a7d7:	48 89 45 b0          	mov    %rax,-0x50(%rbp)
    a7db:	48 8d 45 af          	lea    -0x51(%rbp),%rax
    a7df:	48 8b 55 b0          	mov    -0x50(%rbp),%rdx
    a7e3:	48 89 55 b8          	mov    %rdx,-0x48(%rbp)
    a7e7:	48 89 45 c0          	mov    %rax,-0x40(%rbp)
    a7eb:	48 8b 45 b8          	mov    -0x48(%rbp),%rax
    a7ef:	48 89 45 c8          	mov    %rax,-0x38(%rbp)
    a7f3:	48 8b 45 c0          	mov    -0x40(%rbp),%rax
    a7f7:	48 89 45 d0          	mov    %rax,-0x30(%rbp)
    a7fb:	48 8b 45 c8          	mov    -0x38(%rbp),%rax
    a7ff:	48 89 45 d8          	mov    %rax,-0x28(%rbp)
    a803:	90                   	nop
    a804:	90                   	nop
    a805:	90                   	nop
    a806:	90                   	nop
    a807:	48 8b 45 98          	mov    -0x68(%rbp),%rax
    a80b:	48 89 45 e0          	mov    %rax,-0x20(%rbp)
    a80f:	48 8b 45 e0          	mov    -0x20(%rbp),%rax
    a813:	48 89 45 e8          	mov    %rax,-0x18(%rbp)
    a817:	48 8d 45 af          	lea    -0x51(%rbp),%rax
    a81b:	48 89 45 f0          	mov    %rax,-0x10(%rbp)
    a81f:	90                   	nop
    a820:	90                   	nop
    a821:	48 8d 45 af          	lea    -0x51(%rbp),%rax
    a825:	48 89 c7             	mov    %rax,%rdi
    a828:	e8 fb c6 ff ff       	call   6f28 <_ZNSt15__new_allocatorISt13_Rb_tree_nodeISt4pairIKNSt7__cxx1112basic_stringIcSt11char_traitsIcESaIcEEES7_EEED1Ev>
    a82d:	90                   	nop
    a82e:	48 8b 45 98          	mov    -0x68(%rbp),%rax
    a832:	48 8b 55 90          	mov    -0x70(%rbp),%rdx
    a836:	48 89 d6             	mov    %rdx,%rsi
    a839:	48 89 c7             	mov    %rax,%rdi
    a83c:	e8 91 07 00 00       	call   afd2 <_ZNSt20_Rb_tree_key_compareISt4lessINSt7__cxx1112basic_stringIcSt11char_traitsIcESaIcEEEEEC1ERKS7_>
    a841:	48 8b 45 98          	mov    -0x68(%rbp),%rax
    a845:	48 83 c0 08          	add    $0x8,%rax
    a849:	48 89 c7             	mov    %rax,%rdi
    a84c:	e8 ef b0 ff ff       	call   5940 <_ZNSt15_Rb_tree_headerC1Ev>
    a851:	90                   	nop
    a852:	48 8b 45 f8          	mov    -0x8(%rbp),%rax
    a856:	64 48 2b 04 25 28 00 	sub    %fs:0x28,%rax
    a85d:	00 00 
    a85f:	74 05                	je     a866 <_ZNSt8_Rb_treeINSt7__cxx1112basic_stringIcSt11char_traitsIcESaIcEEESt4pairIKS5_S5_ESt10_Select1stIS8_ESt4lessIS5_ESaIS8_EE13_Rb_tree_implISC_Lb1EEC1ERKSG_+0xb6>
    a861:	e8 1a 8f ff ff       	call   3780 <_init+0x780>
    a866:	c9                   	leave  
    a867:	c3                   	ret    

000000000000a868 <_ZNKSt8_Rb_treeINSt7__cxx1112basic_stringIcSt11char_traitsIcESaIcEEESt4pairIKS5_S5_ESt10_Select1stIS8_ESt4lessIS5_ESaIS8_EE7_M_rootEv>:
    a868:	f3 0f 1e fa          	endbr64 
    a86c:	55                   	push   %rbp
    a86d:	48 89 e5             	mov    %rsp,%rbp
    a870:	48 89 7d f8          	mov    %rdi,-0x8(%rbp)
    a874:	48 8b 45 f8          	mov    -0x8(%rbp),%rax
    a878:	48 8b 40 10          	mov    0x10(%rax),%rax
    a87c:	5d                   	pop    %rbp
    a87d:	c3                   	ret    

000000000000a87e <_ZNSt8_Rb_treeINSt7__cxx1112basic_stringIcSt11char_traitsIcESaIcEEESt4pairIKS5_S5_ESt10_Select1stIS8_ESt4lessIS5_ESaIS8_EE7_M_rootEv>:
    a87e:	f3 0f 1e fa          	endbr64 
    a882:	55                   	push   %rbp
    a883:	48 89 e5             	mov    %rsp,%rbp
    a886:	48 89 7d f8          	mov    %rdi,-0x8(%rbp)
    a88a:	48 8b 45 f8          	mov    -0x8(%rbp),%rax
    a88e:	48 83 c0 10          	add    $0x10,%rax
    a892:	5d                   	pop    %rbp
    a893:	c3                   	ret    

000000000000a894 <_ZNSt8_Rb_treeINSt7__cxx1112basic_stringIcSt11char_traitsIcESaIcEEESt4pairIKS5_S5_ESt10_Select1stIS8_ESt4lessIS5_ESaIS8_EE7_M_copyERKSE_>:
    a894:	f3 0f 1e fa          	endbr64 
    a898:	55                   	push   %rbp
    a899:	48 89 e5             	mov    %rsp,%rbp
    a89c:	48 83 ec 20          	sub    $0x20,%rsp
    a8a0:	48 89 7d e8          	mov    %rdi,-0x18(%rbp)
    a8a4:	48 89 75 e0          	mov    %rsi,-0x20(%rbp)
    a8a8:	64 48 8b 04 25 28 00 	mov    %fs:0x28,%rax
    a8af:	00 00 
    a8b1:	48 89 45 f8          	mov    %rax,-0x8(%rbp)
    a8b5:	31 c0                	xor    %eax,%eax
    a8b7:	48 8b 55 e8          	mov    -0x18(%rbp),%rdx
    a8bb:	48 8d 45 f0          	lea    -0x10(%rbp),%rax
    a8bf:	48 89 d6             	mov    %rdx,%rsi
    a8c2:	48 89 c7             	mov    %rax,%rdi
    a8c5:	e8 1c 07 00 00       	call   afe6 <_ZNSt8_Rb_treeINSt7__cxx1112basic_stringIcSt11char_traitsIcESaIcEEESt4pairIKS5_S5_ESt10_Select1stIS8_ESt4lessIS5_ESaIS8_EE11_Alloc_nodeC1ERSE_>
    a8ca:	48 8d 55 f0          	lea    -0x10(%rbp),%rdx
    a8ce:	48 8b 4d e0          	mov    -0x20(%rbp),%rcx
    a8d2:	48 8b 45 e8          	mov    -0x18(%rbp),%rax
    a8d6:	48 89 ce             	mov    %rcx,%rsi
    a8d9:	48 89 c7             	mov    %rax,%rdi
    a8dc:	e8 23 07 00 00       	call   b004 <_ZNSt8_Rb_treeINSt7__cxx1112basic_stringIcSt11char_traitsIcESaIcEEESt4pairIKS5_S5_ESt10_Select1stIS8_ESt4lessIS5_ESaIS8_EE7_M_copyILb0ENSE_11_Alloc_nodeEEEPSt13_Rb_tree_nodeIS8_ERKSE_RT0_>
    a8e1:	48 8b 55 f8          	mov    -0x8(%rbp),%rdx
    a8e5:	64 48 2b 14 25 28 00 	sub    %fs:0x28,%rdx
    a8ec:	00 00 
    a8ee:	74 05                	je     a8f5 <_ZNSt8_Rb_treeINSt7__cxx1112basic_stringIcSt11char_traitsIcESaIcEEESt4pairIKS5_S5_ESt10_Select1stIS8_ESt4lessIS5_ESaIS8_EE7_M_copyERKSE_+0x61>
    a8f0:	e8 8b 8e ff ff       	call   3780 <_init+0x780>
    a8f5:	c9                   	leave  
    a8f6:	c3                   	ret    

000000000000a8f7 <_ZNSt6vectorISt3mapINSt7__cxx1112basic_stringIcSt11char_traitsIcESaIcEEES6_St4lessIS6_ESaISt4pairIKS6_S6_EEESaISD_EE11_S_max_sizeERKSE_>:
    a8f7:	f3 0f 1e fa          	endbr64 
    a8fb:	55                   	push   %rbp
    a8fc:	48 89 e5             	mov    %rsp,%rbp
    a8ff:	48 83 ec 40          	sub    $0x40,%rsp
    a903:	48 89 7d c8          	mov    %rdi,-0x38(%rbp)
    a907:	64 48 8b 04 25 28 00 	mov    %fs:0x28,%rax
    a90e:	00 00 
    a910:	48 89 45 f8          	mov    %rax,-0x8(%rbp)
    a914:	31 c0                	xor    %eax,%eax
    a916:	48 b8 aa aa aa aa aa 	movabs $0x2aaaaaaaaaaaaaa,%rax
    a91d:	aa aa 02 
    a920:	48 89 45 d0          	mov    %rax,-0x30(%rbp)
    a924:	48 8b 45 c8          	mov    -0x38(%rbp),%rax
    a928:	48 89 45 e0          	mov    %rax,-0x20(%rbp)
    a92c:	48 8b 45 e0          	mov    -0x20(%rbp),%rax
    a930:	48 89 45 e8          	mov    %rax,-0x18(%rbp)
    a934:	48 8b 45 e8          	mov    -0x18(%rbp),%rax
    a938:	48 89 45 f0          	mov    %rax,-0x10(%rbp)
    a93c:	48 b8 aa aa aa aa aa 	movabs $0x2aaaaaaaaaaaaaa,%rax
    a943:	aa aa 02 
    a946:	90                   	nop
    a947:	90                   	nop
    a948:	48 89 45 d8          	mov    %rax,-0x28(%rbp)
    a94c:	48 8d 55 d8          	lea    -0x28(%rbp),%rdx
    a950:	48 8d 45 d0          	lea    -0x30(%rbp),%rax
    a954:	48 89 d6             	mov    %rdx,%rsi
    a957:	48 89 c7             	mov    %rax,%rdi
    a95a:	e8 a3 ed ff ff       	call   9702 <_ZSt3minImERKT_S2_S2_>
    a95f:	48 8b 00             	mov    (%rax),%rax
    a962:	48 8b 55 f8          	mov    -0x8(%rbp),%rdx
    a966:	64 48 2b 14 25 28 00 	sub    %fs:0x28,%rdx
    a96d:	00 00 
    a96f:	74 05                	je     a976 <_ZNSt6vectorISt3mapINSt7__cxx1112basic_stringIcSt11char_traitsIcESaIcEEES6_St4lessIS6_ESaISt4pairIKS6_S6_EEESaISD_EE11_S_max_sizeERKSE_+0x7f>
    a971:	e8 0a 8e ff ff       	call   3780 <_init+0x780>
    a976:	c9                   	leave  
    a977:	c3                   	ret    

000000000000a978 <_ZNSt15__new_allocatorISt3mapINSt7__cxx1112basic_stringIcSt11char_traitsIcESaIcEEES6_St4lessIS6_ESaISt4pairIKS6_S6_EEEE8allocateEmPKv>:
    a978:	f3 0f 1e fa          	endbr64 
    a97c:	55                   	push   %rbp
    a97d:	48 89 e5             	mov    %rsp,%rbp
    a980:	48 83 ec 30          	sub    $0x30,%rsp
    a984:	48 89 7d e8          	mov    %rdi,-0x18(%rbp)
    a988:	48 89 75 e0          	mov    %rsi,-0x20(%rbp)
    a98c:	48 89 55 d8          	mov    %rdx,-0x28(%rbp)
    a990:	48 8b 45 e8          	mov    -0x18(%rbp),%rax
    a994:	48 89 45 f8          	mov    %rax,-0x8(%rbp)
    a998:	48 b8 aa aa aa aa aa 	movabs $0x2aaaaaaaaaaaaaa,%rax
    a99f:	aa aa 02 
    a9a2:	48 3b 45 e0          	cmp    -0x20(%rbp),%rax
    a9a6:	0f 92 c0             	setb   %al
    a9a9:	0f b6 c0             	movzbl %al,%eax
    a9ac:	48 85 c0             	test   %rax,%rax
    a9af:	0f 95 c0             	setne  %al
    a9b2:	84 c0                	test   %al,%al
    a9b4:	74 1a                	je     a9d0 <_ZNSt15__new_allocatorISt3mapINSt7__cxx1112basic_stringIcSt11char_traitsIcESaIcEEES6_St4lessIS6_ESaISt4pairIKS6_S6_EEEE8allocateEmPKv+0x58>
    a9b6:	48 b8 55 55 55 55 55 	movabs $0x555555555555555,%rax
    a9bd:	55 55 05 
    a9c0:	48 3b 45 e0          	cmp    -0x20(%rbp),%rax
    a9c4:	73 05                	jae    a9cb <_ZNSt15__new_allocatorISt3mapINSt7__cxx1112basic_stringIcSt11char_traitsIcESaIcEEES6_St4lessIS6_ESaISt4pairIKS6_S6_EEEE8allocateEmPKv+0x53>
    a9c6:	e8 a5 8c ff ff       	call   3670 <_init+0x670>
    a9cb:	e8 90 8b ff ff       	call   3560 <_init+0x560>
    a9d0:	48 8b 55 e0          	mov    -0x20(%rbp),%rdx
    a9d4:	48 89 d0             	mov    %rdx,%rax
    a9d7:	48 01 c0             	add    %rax,%rax
    a9da:	48 01 d0             	add    %rdx,%rax
    a9dd:	48 c1 e0 04          	shl    $0x4,%rax
    a9e1:	48 89 c7             	mov    %rax,%rdi
    a9e4:	e8 f7 8c ff ff       	call   36e0 <_init+0x6e0>
    a9e9:	90                   	nop
    a9ea:	c9                   	leave  
    a9eb:	c3                   	ret    

000000000000a9ec <_ZSt12__niter_baseIPSt3mapINSt7__cxx1112basic_stringIcSt11char_traitsIcESaIcEEES6_St4lessIS6_ESaISt4pairIKS6_S6_EEEET_SF_>:
    a9ec:	f3 0f 1e fa          	endbr64 
    a9f0:	55                   	push   %rbp
    a9f1:	48 89 e5             	mov    %rsp,%rbp
    a9f4:	48 89 7d f8          	mov    %rdi,-0x8(%rbp)
    a9f8:	48 8b 45 f8          	mov    -0x8(%rbp),%rax
    a9fc:	5d                   	pop    %rbp
    a9fd:	c3                   	ret    

000000000000a9fe <_ZSt14__relocate_a_1IPSt3mapINSt7__cxx1112basic_stringIcSt11char_traitsIcESaIcEEES6_St4lessIS6_ESaISt4pairIKS6_S6_EEESE_SaISD_EET0_T_SH_SG_RT1_>:
    a9fe:	f3 0f 1e fa          	endbr64 
    aa02:	55                   	push   %rbp
    aa03:	48 89 e5             	mov    %rsp,%rbp
    aa06:	53                   	push   %rbx
    aa07:	48 83 ec 38          	sub    $0x38,%rsp
    aa0b:	48 89 7d d8          	mov    %rdi,-0x28(%rbp)
    aa0f:	48 89 75 d0          	mov    %rsi,-0x30(%rbp)
    aa13:	48 89 55 c8          	mov    %rdx,-0x38(%rbp)
    aa17:	48 89 4d c0          	mov    %rcx,-0x40(%rbp)
    aa1b:	48 8b 45 c8          	mov    -0x38(%rbp),%rax
    aa1f:	48 89 45 e8          	mov    %rax,-0x18(%rbp)
    aa23:	eb 3a                	jmp    aa5f <_ZSt14__relocate_a_1IPSt3mapINSt7__cxx1112basic_stringIcSt11char_traitsIcESaIcEEES6_St4lessIS6_ESaISt4pairIKS6_S6_EEESE_SaISD_EET0_T_SH_SG_RT1_+0x61>
    aa25:	48 8b 45 d8          	mov    -0x28(%rbp),%rax
    aa29:	48 89 c7             	mov    %rax,%rdi
    aa2c:	e8 0e fa ff ff       	call   a43f <_ZSt11__addressofISt3mapINSt7__cxx1112basic_stringIcSt11char_traitsIcESaIcEEES6_St4lessIS6_ESaISt4pairIKS6_S6_EEEEPT_RSE_>
    aa31:	48 89 c3             	mov    %rax,%rbx
    aa34:	48 8b 45 e8          	mov    -0x18(%rbp),%rax
    aa38:	48 89 c7             	mov    %rax,%rdi
    aa3b:	e8 ff f9 ff ff       	call   a43f <_ZSt11__addressofISt3mapINSt7__cxx1112basic_stringIcSt11char_traitsIcESaIcEEES6_St4lessIS6_ESaISt4pairIKS6_S6_EEEEPT_RSE_>
    aa40:	48 89 c1             	mov    %rax,%rcx
    aa43:	48 8b 45 c0          	mov    -0x40(%rbp),%rax
    aa47:	48 89 c2             	mov    %rax,%rdx
    aa4a:	48 89 de             	mov    %rbx,%rsi
    aa4d:	48 89 cf             	mov    %rcx,%rdi
    aa50:	e8 56 06 00 00       	call   b0ab <_ZSt19__relocate_object_aISt3mapINSt7__cxx1112basic_stringIcSt11char_traitsIcESaIcEEES6_St4lessIS6_ESaISt4pairIKS6_S6_EEESD_SaISD_EEvPT_PT0_RT1_>
    aa55:	48 83 45 d8 30       	addq   $0x30,-0x28(%rbp)
    aa5a:	48 83 45 e8 30       	addq   $0x30,-0x18(%rbp)
    aa5f:	48 8b 45 d8          	mov    -0x28(%rbp),%rax
    aa63:	48 3b 45 d0          	cmp    -0x30(%rbp),%rax
    aa67:	75 bc                	jne    aa25 <_ZSt14__relocate_a_1IPSt3mapINSt7__cxx1112basic_stringIcSt11char_traitsIcESaIcEEES6_St4lessIS6_ESaISt4pairIKS6_S6_EEESE_SaISD_EET0_T_SH_SG_RT1_+0x27>
    aa69:	48 8b 45 e8          	mov    -0x18(%rbp),%rax
    aa6d:	48 8b 5d f8          	mov    -0x8(%rbp),%rbx
    aa71:	c9                   	leave  
    aa72:	c3                   	ret    
    aa73:	90                   	nop

000000000000aa74 <_ZNSt15__new_allocatorINSt7__cxx1112basic_stringIcSt11char_traitsIcESaIcEEEE8allocateEmPKv>:
    aa74:	f3 0f 1e fa          	endbr64 
    aa78:	55                   	push   %rbp
    aa79:	48 89 e5             	mov    %rsp,%rbp
    aa7c:	48 83 ec 30          	sub    $0x30,%rsp
    aa80:	48 89 7d e8          	mov    %rdi,-0x18(%rbp)
    aa84:	48 89 75 e0          	mov    %rsi,-0x20(%rbp)
    aa88:	48 89 55 d8          	mov    %rdx,-0x28(%rbp)
    aa8c:	48 8b 45 e8          	mov    -0x18(%rbp),%rax
    aa90:	48 89 45 f8          	mov    %rax,-0x8(%rbp)
    aa94:	48 b8 ff ff ff ff ff 	movabs $0x3ffffffffffffff,%rax
    aa9b:	ff ff 03 
    aa9e:	48 3b 45 e0          	cmp    -0x20(%rbp),%rax
    aaa2:	0f 92 c0             	setb   %al
    aaa5:	0f b6 c0             	movzbl %al,%eax
    aaa8:	48 85 c0             	test   %rax,%rax
    aaab:	0f 95 c0             	setne  %al
    aaae:	84 c0                	test   %al,%al
    aab0:	74 1a                	je     aacc <_ZNSt15__new_allocatorINSt7__cxx1112basic_stringIcSt11char_traitsIcESaIcEEEE8allocateEmPKv+0x58>
    aab2:	48 b8 ff ff ff ff ff 	movabs $0x7ffffffffffffff,%rax
    aab9:	ff ff 07 
    aabc:	48 3b 45 e0          	cmp    -0x20(%rbp),%rax
    aac0:	73 05                	jae    aac7 <_ZNSt15__new_allocatorINSt7__cxx1112basic_stringIcSt11char_traitsIcESaIcEEEE8allocateEmPKv+0x53>
    aac2:	e8 a9 8b ff ff       	call   3670 <_init+0x670>
    aac7:	e8 94 8a ff ff       	call   3560 <_init+0x560>
    aacc:	48 8b 45 e0          	mov    -0x20(%rbp),%rax
    aad0:	48 c1 e0 05          	shl    $0x5,%rax
    aad4:	48 89 c7             	mov    %rax,%rdi
    aad7:	e8 04 8c ff ff       	call   36e0 <_init+0x6e0>
    aadc:	90                   	nop
    aadd:	c9                   	leave  
    aade:	c3                   	ret    

000000000000aadf <_ZNSt20__uninitialized_copyILb0EE13__uninit_copyIPKPKcPNSt7__cxx1112basic_stringIcSt11char_traitsIcESaIcEEEEET0_T_SE_SD_>:
    aadf:	f3 0f 1e fa          	endbr64 
    aae3:	55                   	push   %rbp
    aae4:	48 89 e5             	mov    %rsp,%rbp
    aae7:	48 83 ec 20          	sub    $0x20,%rsp
    aaeb:	48 89 7d f8          	mov    %rdi,-0x8(%rbp)
    aaef:	48 89 75 f0          	mov    %rsi,-0x10(%rbp)
    aaf3:	48 89 55 e8          	mov    %rdx,-0x18(%rbp)
    aaf7:	48 8b 55 e8          	mov    -0x18(%rbp),%rdx
    aafb:	48 8b 4d f0          	mov    -0x10(%rbp),%rcx
    aaff:	48 8b 45 f8          	mov    -0x8(%rbp),%rax
    ab03:	48 89 ce             	mov    %rcx,%rsi
    ab06:	48 89 c7             	mov    %rax,%rdi
    ab09:	e8 60 06 00 00       	call   b16e <_ZSt16__do_uninit_copyIPKPKcPNSt7__cxx1112basic_stringIcSt11char_traitsIcESaIcEEEET0_T_SC_SB_>
    ab0e:	c9                   	leave  
    ab0f:	c3                   	ret    

000000000000ab10 <_ZSt11__addressofINSt7__cxx1112basic_stringIcSt11char_traitsIcESaIcEEEEPT_RS6_>:
    ab10:	f3 0f 1e fa          	endbr64 
    ab14:	55                   	push   %rbp
    ab15:	48 89 e5             	mov    %rsp,%rbp
    ab18:	48 89 7d f8          	mov    %rdi,-0x8(%rbp)
    ab1c:	48 8b 45 f8          	mov    -0x8(%rbp),%rax
    ab20:	5d                   	pop    %rbp
    ab21:	c3                   	ret    

000000000000ab22 <_ZSt8_DestroyINSt7__cxx1112basic_stringIcSt11char_traitsIcESaIcEEEEvPT_>:
    ab22:	f3 0f 1e fa          	endbr64 
    ab26:	55                   	push   %rbp
    ab27:	48 89 e5             	mov    %rsp,%rbp
    ab2a:	48 83 ec 10          	sub    $0x10,%rsp
    ab2e:	48 89 7d f8          	mov    %rdi,-0x8(%rbp)
    ab32:	48 8b 45 f8          	mov    -0x8(%rbp),%rax
    ab36:	48 89 c7             	mov    %rax,%rdi
    ab39:	e8 b2 8a ff ff       	call   35f0 <_init+0x5f0>
    ab3e:	90                   	nop
    ab3f:	c9                   	leave  
    ab40:	c3                   	ret    
    ab41:	90                   	nop

000000000000ab42 <_ZNKSt12_Vector_baseINSt7__cxx1112basic_stringIcSt11char_traitsIcESaIcEEESaIS5_EE19_M_get_Tp_allocatorEv>:
    ab42:	f3 0f 1e fa          	endbr64 
    ab46:	55                   	push   %rbp
    ab47:	48 89 e5             	mov    %rsp,%rbp
    ab4a:	48 89 7d f8          	mov    %rdi,-0x8(%rbp)
    ab4e:	48 8b 45 f8          	mov    -0x8(%rbp),%rax
    ab52:	5d                   	pop    %rbp
    ab53:	c3                   	ret    

000000000000ab54 <_ZSt12__niter_baseIPNSt7__cxx1112basic_stringIcSt11char_traitsIcESaIcEEEET_S7_>:
    ab54:	f3 0f 1e fa          	endbr64 
    ab58:	55                   	push   %rbp
    ab59:	48 89 e5             	mov    %rsp,%rbp
    ab5c:	48 89 7d f8          	mov    %rdi,-0x8(%rbp)
    ab60:	48 8b 45 f8          	mov    -0x8(%rbp),%rax
    ab64:	5d                   	pop    %rbp
    ab65:	c3                   	ret    

000000000000ab66 <_ZSt14__relocate_a_1IPNSt7__cxx1112basic_stringIcSt11char_traitsIcESaIcEEES6_SaIS5_EET0_T_S9_S8_RT1_>:
    ab66:	f3 0f 1e fa          	endbr64 
    ab6a:	55                   	push   %rbp
    ab6b:	48 89 e5             	mov    %rsp,%rbp
    ab6e:	53                   	push   %rbx
    ab6f:	48 83 ec 38          	sub    $0x38,%rsp
    ab73:	48 89 7d d8          	mov    %rdi,-0x28(%rbp)
    ab77:	48 89 75 d0          	mov    %rsi,-0x30(%rbp)
    ab7b:	48 89 55 c8          	mov    %rdx,-0x38(%rbp)
    ab7f:	48 89 4d c0          	mov    %rcx,-0x40(%rbp)
    ab83:	48 8b 45 c8          	mov    -0x38(%rbp),%rax
    ab87:	48 89 45 e8          	mov    %rax,-0x18(%rbp)
    ab8b:	eb 3a                	jmp    abc7 <_ZSt14__relocate_a_1IPNSt7__cxx1112basic_stringIcSt11char_traitsIcESaIcEEES6_SaIS5_EET0_T_S9_S8_RT1_+0x61>
    ab8d:	48 8b 45 d8          	mov    -0x28(%rbp),%rax
    ab91:	48 89 c7             	mov    %rax,%rdi
    ab94:	e8 77 ff ff ff       	call   ab10 <_ZSt11__addressofINSt7__cxx1112basic_stringIcSt11char_traitsIcESaIcEEEEPT_RS6_>
    ab99:	48 89 c3             	mov    %rax,%rbx
    ab9c:	48 8b 45 e8          	mov    -0x18(%rbp),%rax
    aba0:	48 89 c7             	mov    %rax,%rdi
    aba3:	e8 68 ff ff ff       	call   ab10 <_ZSt11__addressofINSt7__cxx1112basic_stringIcSt11char_traitsIcESaIcEEEEPT_RS6_>
    aba8:	48 89 c1             	mov    %rax,%rcx
    abab:	48 8b 45 c0          	mov    -0x40(%rbp),%rax
    abaf:	48 89 c2             	mov    %rax,%rdx
    abb2:	48 89 de             	mov    %rbx,%rsi
    abb5:	48 89 cf             	mov    %rcx,%rdi
    abb8:	e8 4d 06 00 00       	call   b20a <_ZSt19__relocate_object_aINSt7__cxx1112basic_stringIcSt11char_traitsIcESaIcEEES5_SaIS5_EEvPT_PT0_RT1_>
    abbd:	48 83 45 d8 20       	addq   $0x20,-0x28(%rbp)
    abc2:	48 83 45 e8 20       	addq   $0x20,-0x18(%rbp)
    abc7:	48 8b 45 d8          	mov    -0x28(%rbp),%rax
    abcb:	48 3b 45 d0          	cmp    -0x30(%rbp),%rax
    abcf:	75 bc                	jne    ab8d <_ZSt14__relocate_a_1IPNSt7__cxx1112basic_stringIcSt11char_traitsIcESaIcEEES6_SaIS5_EET0_T_S9_S8_RT1_+0x27>
    abd1:	48 8b 45 e8          	mov    -0x18(%rbp),%rax
    abd5:	48 8b 5d f8          	mov    -0x8(%rbp),%rbx
    abd9:	c9                   	leave  
    abda:	c3                   	ret    

000000000000abdb <_ZNSt20__uninitialized_copyILb0EE13__uninit_copyIPKNSt7__cxx1112basic_stringIcSt11char_traitsIcESaIcEEEPS7_EET0_T_SC_SB_>:
    abdb:	f3 0f 1e fa          	endbr64 
    abdf:	55                   	push   %rbp
    abe0:	48 89 e5             	mov    %rsp,%rbp
    abe3:	48 83 ec 20          	sub    $0x20,%rsp
    abe7:	48 89 7d f8          	mov    %rdi,-0x8(%rbp)
    abeb:	48 89 75 f0          	mov    %rsi,-0x10(%rbp)
    abef:	48 89 55 e8          	mov    %rdx,-0x18(%rbp)
    abf3:	48 8b 55 e8          	mov    -0x18(%rbp),%rdx
    abf7:	48 8b 4d f0          	mov    -0x10(%rbp),%rcx
    abfb:	48 8b 45 f8          	mov    -0x8(%rbp),%rax
    abff:	48 89 ce             	mov    %rcx,%rsi
    ac02:	48 89 c7             	mov    %rax,%rdi
    ac05:	e8 c3 06 00 00       	call   b2cd <_ZSt16__do_uninit_copyIPKNSt7__cxx1112basic_stringIcSt11char_traitsIcESaIcEEEPS5_ET0_T_SA_S9_>
    ac0a:	c9                   	leave  
    ac0b:	c3                   	ret    

000000000000ac0c <_ZNSt8_Rb_treeINSt7__cxx1112basic_stringIcSt11char_traitsIcESaIcEEES5_St9_IdentityIS5_ESt4lessIS5_ESaIS5_EE14_M_create_nodeIJRKPKcEEEPSt13_Rb_tree_nodeIS5_EDpOT_>:
    ac0c:	f3 0f 1e fa          	endbr64 
    ac10:	55                   	push   %rbp
    ac11:	48 89 e5             	mov    %rsp,%rbp
    ac14:	48 83 ec 20          	sub    $0x20,%rsp
    ac18:	48 89 7d e8          	mov    %rdi,-0x18(%rbp)
    ac1c:	48 89 75 e0          	mov    %rsi,-0x20(%rbp)
    ac20:	48 8b 45 e8          	mov    -0x18(%rbp),%rax
    ac24:	48 89 c7             	mov    %rax,%rdi
    ac27:	e8 3e 07 00 00       	call   b36a <_ZNSt8_Rb_treeINSt7__cxx1112basic_stringIcSt11char_traitsIcESaIcEEES5_St9_IdentityIS5_ESt4lessIS5_ESaIS5_EE11_M_get_nodeEv>
    ac2c:	48 89 45 f8          	mov    %rax,-0x8(%rbp)
    ac30:	48 8b 45 e0          	mov    -0x20(%rbp),%rax
    ac34:	48 89 c7             	mov    %rax,%rdi
    ac37:	e8 8e f3 ff ff       	call   9fca <_ZSt7forwardIRKPKcEOT_RNSt16remove_referenceIS4_E4typeE>
    ac3c:	48 89 c2             	mov    %rax,%rdx
    ac3f:	48 8b 4d f8          	mov    -0x8(%rbp),%rcx
    ac43:	48 8b 45 e8          	mov    -0x18(%rbp),%rax
    ac47:	48 89 ce             	mov    %rcx,%rsi
    ac4a:	48 89 c7             	mov    %rax,%rdi
    ac4d:	e8 5c 07 00 00       	call   b3ae <_ZNSt8_Rb_treeINSt7__cxx1112basic_stringIcSt11char_traitsIcESaIcEEES5_St9_IdentityIS5_ESt4lessIS5_ESaIS5_EE17_M_construct_nodeIJRKPKcEEEvPSt13_Rb_tree_nodeIS5_EDpOT_>
    ac52:	48 8b 45 f8          	mov    -0x8(%rbp),%rax
    ac56:	c9                   	leave  
    ac57:	c3                   	ret    

000000000000ac58 <_ZNSt8_Rb_treeINSt7__cxx1112basic_stringIcSt11char_traitsIcESaIcEEES5_St9_IdentityIS5_ESt4lessIS5_ESaIS5_EE6_M_endEv>:
    ac58:	f3 0f 1e fa          	endbr64 
    ac5c:	55                   	push   %rbp
    ac5d:	48 89 e5             	mov    %rsp,%rbp
    ac60:	48 89 7d f8          	mov    %rdi,-0x8(%rbp)
    ac64:	48 8b 45 f8          	mov    -0x8(%rbp),%rax
    ac68:	48 83 c0 08          	add    $0x8,%rax
    ac6c:	5d                   	pop    %rbp
    ac6d:	c3                   	ret    

000000000000ac6e <_ZNSt8_Rb_treeINSt7__cxx1112basic_stringIcSt11char_traitsIcESaIcEEES5_St9_IdentityIS5_ESt4lessIS5_ESaIS5_EE6_S_keyEPKSt13_Rb_tree_nodeIS5_E>:
    ac6e:	f3 0f 1e fa          	endbr64 
    ac72:	55                   	push   %rbp
    ac73:	48 89 e5             	mov    %rsp,%rbp
    ac76:	48 83 ec 20          	sub    $0x20,%rsp
    ac7a:	48 89 7d e8          	mov    %rdi,-0x18(%rbp)
    ac7e:	64 48 8b 04 25 28 00 	mov    %fs:0x28,%rax
    ac85:	00 00 
    ac87:	48 89 45 f8          	mov    %rax,-0x8(%rbp)
    ac8b:	31 c0                	xor    %eax,%eax
    ac8d:	48 8b 45 e8          	mov    -0x18(%rbp),%rax
    ac91:	48 89 c7             	mov    %rax,%rdi
    ac94:	e8 07 cf ff ff       	call   7ba0 <_ZNKSt13_Rb_tree_nodeINSt7__cxx1112basic_stringIcSt11char_traitsIcESaIcEEEE9_M_valptrEv>
    ac99:	48 89 c2             	mov    %rax,%rdx
    ac9c:	48 8d 45 f7          	lea    -0x9(%rbp),%rax
    aca0:	48 89 d6             	mov    %rdx,%rsi
    aca3:	48 89 c7             	mov    %rax,%rdi
    aca6:	e8 a1 08 00 00       	call   b54c <_ZNKSt9_IdentityINSt7__cxx1112basic_stringIcSt11char_traitsIcESaIcEEEEclERKS5_>
    acab:	48 8b 55 f8          	mov    -0x8(%rbp),%rdx
    acaf:	64 48 2b 14 25 28 00 	sub    %fs:0x28,%rdx
    acb6:	00 00 
    acb8:	74 05                	je     acbf <_ZNSt8_Rb_treeINSt7__cxx1112basic_stringIcSt11char_traitsIcESaIcEEES5_St9_IdentityIS5_ESt4lessIS5_ESaIS5_EE6_S_keyEPKSt13_Rb_tree_nodeIS5_E+0x51>
    acba:	e8 c1 8a ff ff       	call   3780 <_init+0x780>
    acbf:	c9                   	leave  
    acc0:	c3                   	ret    
    acc1:	90                   	nop

000000000000acc2 <_ZNSt8_Rb_treeINSt7__cxx1112basic_stringIcSt11char_traitsIcESaIcEEES5_St9_IdentityIS5_ESt4lessIS5_ESaIS5_EE5beginEv>:
    acc2:	f3 0f 1e fa          	endbr64 
    acc6:	55                   	push   %rbp
    acc7:	48 89 e5             	mov    %rsp,%rbp
    acca:	48 83 ec 20          	sub    $0x20,%rsp
    acce:	48 89 7d e8          	mov    %rdi,-0x18(%rbp)
    acd2:	64 48 8b 04 25 28 00 	mov    %fs:0x28,%rax
    acd9:	00 00 
    acdb:	48 89 45 f8          	mov    %rax,-0x8(%rbp)
    acdf:	31 c0                	xor    %eax,%eax
    ace1:	48 8b 45 e8          	mov    -0x18(%rbp),%rax
    ace5:	48 8b 50 18          	mov    0x18(%rax),%rdx
    ace9:	48 8d 45 f0          	lea    -0x10(%rbp),%rax
    aced:	48 89 d6             	mov    %rdx,%rsi
    acf0:	48 89 c7             	mov    %rax,%rdi
    acf3:	e8 ec f5 ff ff       	call   a2e4 <_ZNSt17_Rb_tree_iteratorINSt7__cxx1112basic_stringIcSt11char_traitsIcESaIcEEEEC1EPSt18_Rb_tree_node_base>
    acf8:	48 8b 45 f0          	mov    -0x10(%rbp),%rax
    acfc:	48 8b 55 f8          	mov    -0x8(%rbp),%rdx
    ad00:	64 48 2b 14 25 28 00 	sub    %fs:0x28,%rdx
    ad07:	00 00 
    ad09:	74 05                	je     ad10 <_ZNSt8_Rb_treeINSt7__cxx1112basic_stringIcSt11char_traitsIcESaIcEEES5_St9_IdentityIS5_ESt4lessIS5_ESaIS5_EE5beginEv+0x4e>
    ad0b:	e8 70 8a ff ff       	call   3780 <_init+0x780>
    ad10:	c9                   	leave  
    ad11:	c3                   	ret    

000000000000ad12 <_ZSteqRKSt17_Rb_tree_iteratorINSt7__cxx1112basic_stringIcSt11char_traitsIcESaIcEEEES8_>:
    ad12:	f3 0f 1e fa          	endbr64 
    ad16:	55                   	push   %rbp
    ad17:	48 89 e5             	mov    %rsp,%rbp
    ad1a:	48 89 7d f8          	mov    %rdi,-0x8(%rbp)
    ad1e:	48 89 75 f0          	mov    %rsi,-0x10(%rbp)
    ad22:	48 8b 45 f8          	mov    -0x8(%rbp),%rax
    ad26:	48 8b 10             	mov    (%rax),%rdx
    ad29:	48 8b 45 f0          	mov    -0x10(%rbp),%rax
    ad2d:	48 8b 00             	mov    (%rax),%rax
    ad30:	48 39 c2             	cmp    %rax,%rdx
    ad33:	0f 94 c0             	sete   %al
    ad36:	5d                   	pop    %rbp
    ad37:	c3                   	ret    

000000000000ad38 <_ZNSt4pairIPSt18_Rb_tree_node_baseS1_EC1IRPSt13_Rb_tree_nodeINSt7__cxx1112basic_stringIcSt11char_traitsIcESaIcEEEERS1_Lb1EEEOT_OT0_>:
    ad38:	f3 0f 1e fa          	endbr64 
    ad3c:	55                   	push   %rbp
    ad3d:	48 89 e5             	mov    %rsp,%rbp
    ad40:	48 83 ec 20          	sub    $0x20,%rsp
    ad44:	48 89 7d f8          	mov    %rdi,-0x8(%rbp)
    ad48:	48 89 75 f0          	mov    %rsi,-0x10(%rbp)
    ad4c:	48 89 55 e8          	mov    %rdx,-0x18(%rbp)
    ad50:	48 8b 45 f0          	mov    -0x10(%rbp),%rax
    ad54:	48 89 c7             	mov    %rax,%rdi
    ad57:	e8 06 08 00 00       	call   b562 <_ZSt7forwardIRPSt13_Rb_tree_nodeINSt7__cxx1112basic_stringIcSt11char_traitsIcESaIcEEEEEOT_RNSt16remove_referenceISA_E4typeE>
    ad5c:	48 8b 10             	mov    (%rax),%rdx
    ad5f:	48 8b 45 f8          	mov    -0x8(%rbp),%rax
    ad63:	48 89 10             	mov    %rdx,(%rax)
    ad66:	48 8b 45 e8          	mov    -0x18(%rbp),%rax
    ad6a:	48 89 c7             	mov    %rax,%rdi
    ad6d:	e8 16 fa ff ff       	call   a788 <_ZSt7forwardIRPSt18_Rb_tree_node_baseEOT_RNSt16remove_referenceIS3_E4typeE>
    ad72:	48 8b 10             	mov    (%rax),%rdx
    ad75:	48 8b 45 f8          	mov    -0x8(%rbp),%rax
    ad79:	48 89 50 08          	mov    %rdx,0x8(%rax)
    ad7d:	90                   	nop
    ad7e:	c9                   	leave  
    ad7f:	c3                   	ret    

000000000000ad80 <_ZNSt17_Rb_tree_iteratorINSt7__cxx1112basic_stringIcSt11char_traitsIcESaIcEEEEmmEv>:
    ad80:	f3 0f 1e fa          	endbr64 
    ad84:	55                   	push   %rbp
    ad85:	48 89 e5             	mov    %rsp,%rbp
    ad88:	48 83 ec 10          	sub    $0x10,%rsp
    ad8c:	48 89 7d f8          	mov    %rdi,-0x8(%rbp)
    ad90:	48 8b 45 f8          	mov    -0x8(%rbp),%rax
    ad94:	48 8b 00             	mov    (%rax),%rax
    ad97:	48 89 c7             	mov    %rax,%rdi
    ad9a:	e8 81 89 ff ff       	call   3720 <_init+0x720>
    ad9f:	48 8b 55 f8          	mov    -0x8(%rbp),%rdx
    ada3:	48 89 02             	mov    %rax,(%rdx)
    ada6:	48 8b 45 f8          	mov    -0x8(%rbp),%rax
    adaa:	c9                   	leave  
    adab:	c3                   	ret    

000000000000adac <_ZNSt8_Rb_treeINSt7__cxx1112basic_stringIcSt11char_traitsIcESaIcEEES5_St9_IdentityIS5_ESt4lessIS5_ESaIS5_EE6_S_keyEPKSt18_Rb_tree_node_base>:
    adac:	f3 0f 1e fa          	endbr64 
    adb0:	55                   	push   %rbp
    adb1:	48 89 e5             	mov    %rsp,%rbp
    adb4:	48 83 ec 10          	sub    $0x10,%rsp
    adb8:	48 89 7d f8          	mov    %rdi,-0x8(%rbp)
    adbc:	48 8b 45 f8          	mov    -0x8(%rbp),%rax
    adc0:	48 89 c7             	mov    %rax,%rdi
    adc3:	e8 a6 fe ff ff       	call   ac6e <_ZNSt8_Rb_treeINSt7__cxx1112basic_stringIcSt11char_traitsIcESaIcEEES5_St9_IdentityIS5_ESt4lessIS5_ESaIS5_EE6_S_keyEPKSt13_Rb_tree_nodeIS5_E>
    adc8:	c9                   	leave  
    adc9:	c3                   	ret    

000000000000adca <_ZNSt8_Rb_treeINSt7__cxx1112basic_stringIcSt11char_traitsIcESaIcEEES5_St9_IdentityIS5_ESt4lessIS5_ESaIS5_EE14_M_insert_nodeEPSt18_Rb_tree_node_baseSD_PSt13_Rb_tree_nodeIS5_E>:
    adca:	f3 0f 1e fa          	endbr64 
    adce:	55                   	push   %rbp
    adcf:	48 89 e5             	mov    %rsp,%rbp
    add2:	41 54                	push   %r12
    add4:	53                   	push   %rbx
    add5:	48 83 ec 40          	sub    $0x40,%rsp
    add9:	48 89 7d c8          	mov    %rdi,-0x38(%rbp)
    addd:	48 89 75 c0          	mov    %rsi,-0x40(%rbp)
    ade1:	48 89 55 b8          	mov    %rdx,-0x48(%rbp)
    ade5:	48 89 4d b0          	mov    %rcx,-0x50(%rbp)
    ade9:	64 48 8b 04 25 28 00 	mov    %fs:0x28,%rax
    adf0:	00 00 
    adf2:	48 89 45 e8          	mov    %rax,-0x18(%rbp)
    adf6:	31 c0                	xor    %eax,%eax
    adf8:	48 83 7d c0 00       	cmpq   $0x0,-0x40(%rbp)
    adfd:	75 43                	jne    ae42 <_ZNSt8_Rb_treeINSt7__cxx1112basic_stringIcSt11char_traitsIcESaIcEEES5_St9_IdentityIS5_ESt4lessIS5_ESaIS5_EE14_M_insert_nodeEPSt18_Rb_tree_node_baseSD_PSt13_Rb_tree_nodeIS5_E+0x78>
    adff:	48 8b 45 c8          	mov    -0x38(%rbp),%rax
    ae03:	48 89 c7             	mov    %rax,%rdi
    ae06:	e8 4d fe ff ff       	call   ac58 <_ZNSt8_Rb_treeINSt7__cxx1112basic_stringIcSt11char_traitsIcESaIcEEES5_St9_IdentityIS5_ESt4lessIS5_ESaIS5_EE6_M_endEv>
    ae0b:	48 39 45 b8          	cmp    %rax,-0x48(%rbp)
    ae0f:	74 31                	je     ae42 <_ZNSt8_Rb_treeINSt7__cxx1112basic_stringIcSt11char_traitsIcESaIcEEES5_St9_IdentityIS5_ESt4lessIS5_ESaIS5_EE14_M_insert_nodeEPSt18_Rb_tree_node_baseSD_PSt13_Rb_tree_nodeIS5_E+0x78>
    ae11:	48 8b 5d c8          	mov    -0x38(%rbp),%rbx
    ae15:	48 8b 45 b8          	mov    -0x48(%rbp),%rax
    ae19:	48 89 c7             	mov    %rax,%rdi
    ae1c:	e8 8b ff ff ff       	call   adac <_ZNSt8_Rb_treeINSt7__cxx1112basic_stringIcSt11char_traitsIcESaIcEEES5_St9_IdentityIS5_ESt4lessIS5_ESaIS5_EE6_S_keyEPKSt18_Rb_tree_node_base>
    ae21:	49 89 c4             	mov    %rax,%r12
    ae24:	48 8b 45 b0          	mov    -0x50(%rbp),%rax
    ae28:	48 89 c7             	mov    %rax,%rdi
    ae2b:	e8 3e fe ff ff       	call   ac6e <_ZNSt8_Rb_treeINSt7__cxx1112basic_stringIcSt11char_traitsIcESaIcEEES5_St9_IdentityIS5_ESt4lessIS5_ESaIS5_EE6_S_keyEPKSt13_Rb_tree_nodeIS5_E>
    ae30:	4c 89 e2             	mov    %r12,%rdx
    ae33:	48 89 c6             	mov    %rax,%rsi
    ae36:	48 89 df             	mov    %rbx,%rdi
    ae39:	e8 32 c2 ff ff       	call   7070 <_ZNKSt4lessINSt7__cxx1112basic_stringIcSt11char_traitsIcESaIcEEEEclERKS5_S8_>
    ae3e:	84 c0                	test   %al,%al
    ae40:	74 07                	je     ae49 <_ZNSt8_Rb_treeINSt7__cxx1112basic_stringIcSt11char_traitsIcESaIcEEES5_St9_IdentityIS5_ESt4lessIS5_ESaIS5_EE14_M_insert_nodeEPSt18_Rb_tree_node_baseSD_PSt13_Rb_tree_nodeIS5_E+0x7f>
    ae42:	b8 01 00 00 00       	mov    $0x1,%eax
    ae47:	eb 05                	jmp    ae4e <_ZNSt8_Rb_treeINSt7__cxx1112basic_stringIcSt11char_traitsIcESaIcEEES5_St9_IdentityIS5_ESt4lessIS5_ESaIS5_EE14_M_insert_nodeEPSt18_Rb_tree_node_baseSD_PSt13_Rb_tree_nodeIS5_E+0x84>
    ae49:	b8 00 00 00 00       	mov    $0x0,%eax
    ae4e:	88 45 df             	mov    %al,-0x21(%rbp)
    ae51:	48 8b 45 c8          	mov    -0x38(%rbp),%rax
    ae55:	48 8d 48 08          	lea    0x8(%rax),%rcx
    ae59:	0f b6 45 df          	movzbl -0x21(%rbp),%eax
    ae5d:	48 8b 55 b8          	mov    -0x48(%rbp),%rdx
    ae61:	48 8b 75 b0          	mov    -0x50(%rbp),%rsi
    ae65:	89 c7                	mov    %eax,%edi
    ae67:	e8 a4 86 ff ff       	call   3510 <_init+0x510>
    ae6c:	48 8b 45 c8          	mov    -0x38(%rbp),%rax
    ae70:	48 8b 40 28          	mov    0x28(%rax),%rax
    ae74:	48 8d 50 01          	lea    0x1(%rax),%rdx
    ae78:	48 8b 45 c8          	mov    -0x38(%rbp),%rax
    ae7c:	48 89 50 28          	mov    %rdx,0x28(%rax)
    ae80:	48 8b 55 b0          	mov    -0x50(%rbp),%rdx
    ae84:	48 8d 45 e0          	lea    -0x20(%rbp),%rax
    ae88:	48 89 d6             	mov    %rdx,%rsi
    ae8b:	48 89 c7             	mov    %rax,%rdi
    ae8e:	e8 51 f4 ff ff       	call   a2e4 <_ZNSt17_Rb_tree_iteratorINSt7__cxx1112basic_stringIcSt11char_traitsIcESaIcEEEEC1EPSt18_Rb_tree_node_base>
    ae93:	48 8b 45 e0          	mov    -0x20(%rbp),%rax
    ae97:	48 8b 55 e8          	mov    -0x18(%rbp),%rdx
    ae9b:	64 48 2b 14 25 28 00 	sub    %fs:0x28,%rdx
    aea2:	00 00 
    aea4:	74 05                	je     aeab <_ZNSt8_Rb_treeINSt7__cxx1112basic_stringIcSt11char_traitsIcESaIcEEES5_St9_IdentityIS5_ESt4lessIS5_ESaIS5_EE14_M_insert_nodeEPSt18_Rb_tree_node_baseSD_PSt13_Rb_tree_nodeIS5_E+0xe1>
    aea6:	e8 d5 88 ff ff       	call   3780 <_init+0x780>
    aeab:	48 83 c4 40          	add    $0x40,%rsp
    aeaf:	5b                   	pop    %rbx
    aeb0:	41 5c                	pop    %r12
    aeb2:	5d                   	pop    %rbp
    aeb3:	c3                   	ret    

000000000000aeb4 <_ZSt7forwardISt17_Rb_tree_iteratorINSt7__cxx1112basic_stringIcSt11char_traitsIcESaIcEEEEEOT_RNSt16remove_referenceIS8_E4typeE>:
    aeb4:	f3 0f 1e fa          	endbr64 
    aeb8:	55                   	push   %rbp
    aeb9:	48 89 e5             	mov    %rsp,%rbp
    aebc:	48 89 7d f8          	mov    %rdi,-0x8(%rbp)
    aec0:	48 8b 45 f8          	mov    -0x8(%rbp),%rax
    aec4:	5d                   	pop    %rbp
    aec5:	c3                   	ret    

000000000000aec6 <_ZSt7forwardIbEOT_RNSt16remove_referenceIS0_E4typeE>:
    aec6:	f3 0f 1e fa          	endbr64 
    aeca:	55                   	push   %rbp
    aecb:	48 89 e5             	mov    %rsp,%rbp
    aece:	48 89 7d f8          	mov    %rdi,-0x8(%rbp)
    aed2:	48 8b 45 f8          	mov    -0x8(%rbp),%rax
    aed6:	5d                   	pop    %rbp
    aed7:	c3                   	ret    

000000000000aed8 <_ZNSt8_Rb_treeINSt7__cxx1112basic_stringIcSt11char_traitsIcESaIcEEES5_St9_IdentityIS5_ESt4lessIS5_ESaIS5_EE21_M_get_Node_allocatorEv>:
    aed8:	f3 0f 1e fa          	endbr64 
    aedc:	55                   	push   %rbp
    aedd:	48 89 e5             	mov    %rsp,%rbp
    aee0:	48 89 7d f8          	mov    %rdi,-0x8(%rbp)
    aee4:	48 8b 45 f8          	mov    -0x8(%rbp),%rax
    aee8:	5d                   	pop    %rbp
    aee9:	c3                   	ret    

000000000000aeea <_ZNSt13_Rb_tree_nodeINSt7__cxx1112basic_stringIcSt11char_traitsIcESaIcEEEE9_M_valptrEv>:
    aeea:	f3 0f 1e fa          	endbr64 
    aeee:	55                   	push   %rbp
    aeef:	48 89 e5             	mov    %rsp,%rbp
    aef2:	48 83 ec 10          	sub    $0x10,%rsp
    aef6:	48 89 7d f8          	mov    %rdi,-0x8(%rbp)
    aefa:	48 8b 45 f8          	mov    -0x8(%rbp),%rax
    aefe:	48 83 c0 20          	add    $0x20,%rax
    af02:	48 89 c7             	mov    %rax,%rdi
    af05:	e8 6a 06 00 00       	call   b574 <_ZN9__gnu_cxx16__aligned_membufINSt7__cxx1112basic_stringIcSt11char_traitsIcESaIcEEEE6_M_ptrEv>
    af0a:	c9                   	leave  
    af0b:	c3                   	ret    

000000000000af0c <_ZNSt12_Vector_baseISt3mapINSt7__cxx1112basic_stringIcSt11char_traitsIcESaIcEEES6_St4lessIS6_ESaISt4pairIKS6_S6_EEESaISD_EE12_Vector_implC1ERKSE_>:
    af0c:	f3 0f 1e fa          	endbr64 
    af10:	55                   	push   %rbp
    af11:	48 89 e5             	mov    %rsp,%rbp
    af14:	48 83 ec 30          	sub    $0x30,%rsp
    af18:	48 89 7d d8          	mov    %rdi,-0x28(%rbp)
    af1c:	48 89 75 d0          	mov    %rsi,-0x30(%rbp)
    af20:	48 8b 45 d8          	mov    -0x28(%rbp),%rax
    af24:	48 89 45 e0          	mov    %rax,-0x20(%rbp)
    af28:	48 8b 45 d0          	mov    -0x30(%rbp),%rax
    af2c:	48 89 45 e8          	mov    %rax,-0x18(%rbp)
    af30:	48 8b 45 e0          	mov    -0x20(%rbp),%rax
    af34:	48 89 45 f0          	mov    %rax,-0x10(%rbp)
    af38:	48 8b 45 e8          	mov    -0x18(%rbp),%rax
    af3c:	48 89 45 f8          	mov    %rax,-0x8(%rbp)
    af40:	90                   	nop
    af41:	90                   	nop
    af42:	48 8b 45 d8          	mov    -0x28(%rbp),%rax
    af46:	48 89 c7             	mov    %rax,%rdi
    af49:	e8 24 bf ff ff       	call   6e72 <_ZNSt12_Vector_baseISt3mapINSt7__cxx1112basic_stringIcSt11char_traitsIcESaIcEEES6_St4lessIS6_ESaISt4pairIKS6_S6_EEESaISD_EE17_Vector_impl_dataC1Ev>
    af4e:	90                   	nop
    af4f:	c9                   	leave  
    af50:	c3                   	ret    
    af51:	90                   	nop

000000000000af52 <_ZNSt4pairIKNSt7__cxx1112basic_stringIcSt11char_traitsIcESaIcEEES5_ED1Ev>:
    af52:	f3 0f 1e fa          	endbr64 
    af56:	55                   	push   %rbp
    af57:	48 89 e5             	mov    %rsp,%rbp
    af5a:	48 83 ec 10          	sub    $0x10,%rsp
    af5e:	48 89 7d f8          	mov    %rdi,-0x8(%rbp)
    af62:	48 8b 45 f8          	mov    -0x8(%rbp),%rax
    af66:	48 83 c0 20          	add    $0x20,%rax
    af6a:	48 89 c7             	mov    %rax,%rdi
    af6d:	e8 7e 86 ff ff       	call   35f0 <_init+0x5f0>
    af72:	48 8b 45 f8          	mov    -0x8(%rbp),%rax
    af76:	48 89 c7             	mov    %rax,%rdi
    af79:	e8 72 86 ff ff       	call   35f0 <_init+0x5f0>
    af7e:	90                   	nop
    af7f:	c9                   	leave  
    af80:	c3                   	ret    
    af81:	90                   	nop

000000000000af82 <_ZNSt15__new_allocatorISt13_Rb_tree_nodeISt4pairIKNSt7__cxx1112basic_stringIcSt11char_traitsIcESaIcEEES7_EEE10deallocateEPSA_m>:
    af82:	f3 0f 1e fa          	endbr64 
    af86:	55                   	push   %rbp
    af87:	48 89 e5             	mov    %rsp,%rbp
    af8a:	48 83 ec 20          	sub    $0x20,%rsp
    af8e:	48 89 7d f8          	mov    %rdi,-0x8(%rbp)
    af92:	48 89 75 f0          	mov    %rsi,-0x10(%rbp)
    af96:	48 89 55 e8          	mov    %rdx,-0x18(%rbp)
    af9a:	48 8b 55 e8          	mov    -0x18(%rbp),%rdx
    af9e:	48 89 d0             	mov    %rdx,%rax
    afa1:	48 01 c0             	add    %rax,%rax
    afa4:	48 01 d0             	add    %rdx,%rax
    afa7:	48 c1 e0 05          	shl    $0x5,%rax
    afab:	48 89 c2             	mov    %rax,%rdx
    afae:	48 8b 45 f0          	mov    -0x10(%rbp),%rax
    afb2:	48 89 d6             	mov    %rdx,%rsi
    afb5:	48 89 c7             	mov    %rax,%rdi
    afb8:	e8 33 87 ff ff       	call   36f0 <_init+0x6f0>
    afbd:	c9                   	leave  
    afbe:	c3                   	ret    

000000000000afbf <_ZSt7forwardIRPSt13_Rb_tree_nodeISt4pairIKNSt7__cxx1112basic_stringIcSt11char_traitsIcESaIcEEES7_EEEOT_RNSt16remove_referenceISD_E4typeE>:
    afbf:	f3 0f 1e fa          	endbr64 
    afc3:	55                   	push   %rbp
    afc4:	48 89 e5             	mov    %rsp,%rbp
    afc7:	48 89 7d f8          	mov    %rdi,-0x8(%rbp)
    afcb:	48 8b 45 f8          	mov    -0x8(%rbp),%rax
    afcf:	5d                   	pop    %rbp
    afd0:	c3                   	ret    
    afd1:	90                   	nop

000000000000afd2 <_ZNSt20_Rb_tree_key_compareISt4lessINSt7__cxx1112basic_stringIcSt11char_traitsIcESaIcEEEEEC1ERKS7_>:
    afd2:	f3 0f 1e fa          	endbr64 
    afd6:	55                   	push   %rbp
    afd7:	48 89 e5             	mov    %rsp,%rbp
    afda:	48 89 7d f8          	mov    %rdi,-0x8(%rbp)
    afde:	48 89 75 f0          	mov    %rsi,-0x10(%rbp)
    afe2:	90                   	nop
    afe3:	5d                   	pop    %rbp
    afe4:	c3                   	ret    
    afe5:	90                   	nop

000000000000afe6 <_ZNSt8_Rb_treeINSt7__cxx1112basic_stringIcSt11char_traitsIcESaIcEEESt4pairIKS5_S5_ESt10_Select1stIS8_ESt4lessIS5_ESaIS8_EE11_Alloc_nodeC1ERSE_>:
    afe6:	f3 0f 1e fa          	endbr64 
    afea:	55                   	push   %rbp
    afeb:	48 89 e5             	mov    %rsp,%rbp
    afee:	48 89 7d f8          	mov    %rdi,-0x8(%rbp)
    aff2:	48 89 75 f0          	mov    %rsi,-0x10(%rbp)
    aff6:	48 8b 45 f8          	mov    -0x8(%rbp),%rax
    affa:	48 8b 55 f0          	mov    -0x10(%rbp),%rdx
    affe:	48 89 10             	mov    %rdx,(%rax)
    b001:	90                   	nop
    b002:	5d                   	pop    %rbp
    b003:	c3                   	ret    

000000000000b004 <_ZNSt8_Rb_treeINSt7__cxx1112basic_stringIcSt11char_traitsIcESaIcEEESt4pairIKS5_S5_ESt10_Select1stIS8_ESt4lessIS5_ESaIS8_EE7_M_copyILb0ENSE_11_Alloc_nodeEEEPSt13_Rb_tree_nodeIS8_ERKSE_RT0_>:
    b004:	f3 0f 1e fa          	endbr64 
    b008:	55                   	push   %rbp
    b009:	48 89 e5             	mov    %rsp,%rbp
    b00c:	53                   	push   %rbx
    b00d:	48 83 ec 38          	sub    $0x38,%rsp
    b011:	48 89 7d d8          	mov    %rdi,-0x28(%rbp)
    b015:	48 89 75 d0          	mov    %rsi,-0x30(%rbp)
    b019:	48 89 55 c8          	mov    %rdx,-0x38(%rbp)
    b01d:	48 8b 45 d8          	mov    -0x28(%rbp),%rax
    b021:	48 89 c7             	mov    %rax,%rdi
    b024:	e8 e9 e5 ff ff       	call   9612 <_ZNSt8_Rb_treeINSt7__cxx1112basic_stringIcSt11char_traitsIcESaIcEEESt4pairIKS5_S5_ESt10_Select1stIS8_ESt4lessIS5_ESaIS8_EE6_M_endEv>
    b029:	48 89 c3             	mov    %rax,%rbx
    b02c:	48 8b 45 d0          	mov    -0x30(%rbp),%rax
    b030:	48 89 c7             	mov    %rax,%rdi
    b033:	e8 a2 d3 ff ff       	call   83da <_ZNKSt8_Rb_treeINSt7__cxx1112basic_stringIcSt11char_traitsIcESaIcEEESt4pairIKS5_S5_ESt10_Select1stIS8_ESt4lessIS5_ESaIS8_EE9_M_mbeginEv>
    b038:	48 89 c6             	mov    %rax,%rsi
    b03b:	48 8b 55 c8          	mov    -0x38(%rbp),%rdx
    b03f:	48 8b 45 d8          	mov    -0x28(%rbp),%rax
    b043:	48 89 d1             	mov    %rdx,%rcx
    b046:	48 89 da             	mov    %rbx,%rdx
    b049:	48 89 c7             	mov    %rax,%rdi
    b04c:	e8 13 06 00 00       	call   b664 <_ZNSt8_Rb_treeINSt7__cxx1112basic_stringIcSt11char_traitsIcESaIcEEESt4pairIKS5_S5_ESt10_Select1stIS8_ESt4lessIS5_ESaIS8_EE7_M_copyILb0ENSE_11_Alloc_nodeEEEPSt13_Rb_tree_nodeIS8_ESJ_PSt18_Rb_tree_node_baseRT0_>
    b051:	48 89 45 e8          	mov    %rax,-0x18(%rbp)
    b055:	48 8b 45 e8          	mov    -0x18(%rbp),%rax
    b059:	48 89 c7             	mov    %rax,%rdi
    b05c:	e8 71 07 00 00       	call   b7d2 <_ZNSt8_Rb_treeINSt7__cxx1112basic_stringIcSt11char_traitsIcESaIcEEESt4pairIKS5_S5_ESt10_Select1stIS8_ESt4lessIS5_ESaIS8_EE10_S_minimumEPSt18_Rb_tree_node_base>
    b061:	48 89 c3             	mov    %rax,%rbx
    b064:	48 8b 45 d8          	mov    -0x28(%rbp),%rax
    b068:	48 89 c7             	mov    %rax,%rdi
    b06b:	e8 ac e9 ff ff       	call   9a1c <_ZNSt8_Rb_treeINSt7__cxx1112basic_stringIcSt11char_traitsIcESaIcEEESt4pairIKS5_S5_ESt10_Select1stIS8_ESt4lessIS5_ESaIS8_EE11_M_leftmostEv>
    b070:	48 89 18             	mov    %rbx,(%rax)
    b073:	48 8b 45 e8          	mov    -0x18(%rbp),%rax
    b077:	48 89 c7             	mov    %rax,%rdi
    b07a:	e8 71 07 00 00       	call   b7f0 <_ZNSt8_Rb_treeINSt7__cxx1112basic_stringIcSt11char_traitsIcESaIcEEESt4pairIKS5_S5_ESt10_Select1stIS8_ESt4lessIS5_ESaIS8_EE10_S_maximumEPSt18_Rb_tree_node_base>
    b07f:	48 89 c3             	mov    %rax,%rbx
    b082:	48 8b 45 d8          	mov    -0x28(%rbp),%rax
    b086:	48 89 c7             	mov    %rax,%rdi
    b089:	e8 a8 e7 ff ff       	call   9836 <_ZNSt8_Rb_treeINSt7__cxx1112basic_stringIcSt11char_traitsIcESaIcEEESt4pairIKS5_S5_ESt10_Select1stIS8_ESt4lessIS5_ESaIS8_EE12_M_rightmostEv>
    b08e:	48 89 18             	mov    %rbx,(%rax)
    b091:	48 8b 45 d0          	mov    -0x30(%rbp),%rax
    b095:	48 8b 50 28          	mov    0x28(%rax),%rdx
    b099:	48 8b 45 d8          	mov    -0x28(%rbp),%rax
    b09d:	48 89 50 28          	mov    %rdx,0x28(%rax)
    b0a1:	48 8b 45 e8          	mov    -0x18(%rbp),%rax
    b0a5:	48 8b 5d f8          	mov    -0x8(%rbp),%rbx
    b0a9:	c9                   	leave  
    b0aa:	c3                   	ret    

000000000000b0ab <_ZSt19__relocate_object_aISt3mapINSt7__cxx1112basic_stringIcSt11char_traitsIcESaIcEEES6_St4lessIS6_ESaISt4pairIKS6_S6_EEESD_SaISD_EEvPT_PT0_RT1_>:
    b0ab:	f3 0f 1e fa          	endbr64 
    b0af:	55                   	push   %rbp
    b0b0:	48 89 e5             	mov    %rsp,%rbp
    b0b3:	53                   	push   %rbx
    b0b4:	48 83 ec 78          	sub    $0x78,%rsp
    b0b8:	48 89 7d 98          	mov    %rdi,-0x68(%rbp)
    b0bc:	48 89 75 90          	mov    %rsi,-0x70(%rbp)
    b0c0:	48 89 55 88          	mov    %rdx,-0x78(%rbp)
    b0c4:	48 8b 45 90          	mov    -0x70(%rbp),%rax
    b0c8:	48 89 c7             	mov    %rax,%rdi
    b0cb:	e8 3e 07 00 00       	call   b80e <_ZSt4moveIRSt3mapINSt7__cxx1112basic_stringIcSt11char_traitsIcESaIcEEES6_St4lessIS6_ESaISt4pairIKS6_S6_EEEEONSt16remove_referenceIT_E4typeEOSG_>
    b0d0:	48 8b 55 88          	mov    -0x78(%rbp),%rdx
    b0d4:	48 89 55 c0          	mov    %rdx,-0x40(%rbp)
    b0d8:	48 8b 55 98          	mov    -0x68(%rbp),%rdx
    b0dc:	48 89 55 c8          	mov    %rdx,-0x38(%rbp)
    b0e0:	48 89 45 d0          	mov    %rax,-0x30(%rbp)
    b0e4:	48 8b 45 d0          	mov    -0x30(%rbp),%rax
    b0e8:	48 89 c7             	mov    %rax,%rdi
    b0eb:	e8 5c 09 00 00       	call   ba4c <_ZSt7forwardISt3mapINSt7__cxx1112basic_stringIcSt11char_traitsIcESaIcEEES6_St4lessIS6_ESaISt4pairIKS6_S6_EEEEOT_RNSt16remove_referenceISE_E4typeE>
    b0f0:	48 8b 55 c0          	mov    -0x40(%rbp),%rdx
    b0f4:	48 89 55 d8          	mov    %rdx,-0x28(%rbp)
    b0f8:	48 8b 55 c8          	mov    -0x38(%rbp),%rdx
    b0fc:	48 89 55 e0          	mov    %rdx,-0x20(%rbp)
    b100:	48 89 45 e8          	mov    %rax,-0x18(%rbp)
    b104:	48 8b 45 e0          	mov    -0x20(%rbp),%rax
    b108:	48 89 c6             	mov    %rax,%rsi
    b10b:	bf 30 00 00 00       	mov    $0x30,%edi
    b110:	e8 c1 a6 ff ff       	call   57d6 <_ZnwmPv>
    b115:	48 89 c3             	mov    %rax,%rbx
    b118:	48 8b 45 e8          	mov    -0x18(%rbp),%rax
    b11c:	48 89 c7             	mov    %rax,%rdi
    b11f:	e8 28 09 00 00       	call   ba4c <_ZSt7forwardISt3mapINSt7__cxx1112basic_stringIcSt11char_traitsIcESaIcEEES6_St4lessIS6_ESaISt4pairIKS6_S6_EEEEOT_RNSt16remove_referenceISE_E4typeE>
    b124:	48 89 c6             	mov    %rax,%rsi
    b127:	48 89 df             	mov    %rbx,%rdi
    b12a:	e8 c1 09 00 00       	call   baf0 <_ZNSt3mapINSt7__cxx1112basic_stringIcSt11char_traitsIcESaIcEEES5_St4lessIS5_ESaISt4pairIKS5_S5_EEEC1EOSC_>
    b12f:	90                   	nop
    b130:	90                   	nop
    b131:	48 8b 45 90          	mov    -0x70(%rbp),%rax
    b135:	48 89 c7             	mov    %rax,%rdi
    b138:	e8 02 f3 ff ff       	call   a43f <_ZSt11__addressofISt3mapINSt7__cxx1112basic_stringIcSt11char_traitsIcESaIcEEES6_St4lessIS6_ESaISt4pairIKS6_S6_EEEEPT_RSE_>
    b13d:	48 8b 55 88          	mov    -0x78(%rbp),%rdx
    b141:	48 89 55 a0          	mov    %rdx,-0x60(%rbp)
    b145:	48 89 45 a8          	mov    %rax,-0x58(%rbp)
    b149:	48 8b 45 a0          	mov    -0x60(%rbp),%rax
    b14d:	48 89 45 b0          	mov    %rax,-0x50(%rbp)
    b151:	48 8b 45 a8          	mov    -0x58(%rbp),%rax
    b155:	48 89 45 b8          	mov    %rax,-0x48(%rbp)
    b159:	48 8b 45 b8          	mov    -0x48(%rbp),%rax
    b15d:	48 89 c7             	mov    %rax,%rdi
    b160:	e8 e5 a9 ff ff       	call   5b4a <_ZNSt3mapINSt7__cxx1112basic_stringIcSt11char_traitsIcESaIcEEES5_St4lessIS5_ESaISt4pairIKS5_S5_EEED1Ev>
    b165:	90                   	nop
    b166:	90                   	nop
    b167:	90                   	nop
    b168:	48 8b 5d f8          	mov    -0x8(%rbp),%rbx
    b16c:	c9                   	leave  
    b16d:	c3                   	ret    

000000000000b16e <_ZSt16__do_uninit_copyIPKPKcPNSt7__cxx1112basic_stringIcSt11char_traitsIcESaIcEEEET0_T_SC_SB_>:
    b16e:	f3 0f 1e fa          	endbr64 
    b172:	55                   	push   %rbp
    b173:	48 89 e5             	mov    %rsp,%rbp
    b176:	53                   	push   %rbx
    b177:	48 83 ec 38          	sub    $0x38,%rsp
    b17b:	48 89 7d d8          	mov    %rdi,-0x28(%rbp)
    b17f:	48 89 75 d0          	mov    %rsi,-0x30(%rbp)
    b183:	48 89 55 c8          	mov    %rdx,-0x38(%rbp)
    b187:	48 8b 45 c8          	mov    -0x38(%rbp),%rax
    b18b:	48 89 45 e8          	mov    %rax,-0x18(%rbp)
    b18f:	eb 28                	jmp    b1b9 <_ZSt16__do_uninit_copyIPKPKcPNSt7__cxx1112basic_stringIcSt11char_traitsIcESaIcEEEET0_T_SC_SB_+0x4b>
    b191:	48 8b 45 e8          	mov    -0x18(%rbp),%rax
    b195:	48 89 c7             	mov    %rax,%rdi
    b198:	e8 73 f9 ff ff       	call   ab10 <_ZSt11__addressofINSt7__cxx1112basic_stringIcSt11char_traitsIcESaIcEEEEPT_RS6_>
    b19d:	48 89 c2             	mov    %rax,%rdx
    b1a0:	48 8b 45 d8          	mov    -0x28(%rbp),%rax
    b1a4:	48 89 c6             	mov    %rax,%rsi
    b1a7:	48 89 d7             	mov    %rdx,%rdi
    b1aa:	e8 71 06 00 00       	call   b820 <_ZSt10_ConstructINSt7__cxx1112basic_stringIcSt11char_traitsIcESaIcEEEJRKPKcEEvPT_DpOT0_>
    b1af:	48 83 45 d8 08       	addq   $0x8,-0x28(%rbp)
    b1b4:	48 83 45 e8 20       	addq   $0x20,-0x18(%rbp)
    b1b9:	48 8b 45 d8          	mov    -0x28(%rbp),%rax
    b1bd:	48 3b 45 d0          	cmp    -0x30(%rbp),%rax
    b1c1:	75 ce                	jne    b191 <_ZSt16__do_uninit_copyIPKPKcPNSt7__cxx1112basic_stringIcSt11char_traitsIcESaIcEEEET0_T_SC_SB_+0x23>
    b1c3:	48 8b 45 e8          	mov    -0x18(%rbp),%rax
    b1c7:	eb 3b                	jmp    b204 <_ZSt16__do_uninit_copyIPKPKcPNSt7__cxx1112basic_stringIcSt11char_traitsIcESaIcEEEET0_T_SC_SB_+0x96>
    b1c9:	f3 0f 1e fa          	endbr64 
    b1cd:	48 89 c7             	mov    %rax,%rdi
    b1d0:	e8 ab 83 ff ff       	call   3580 <_init+0x580>
    b1d5:	48 8b 55 e8          	mov    -0x18(%rbp),%rdx
    b1d9:	48 8b 45 c8          	mov    -0x38(%rbp),%rax
    b1dd:	48 89 d6             	mov    %rdx,%rsi
    b1e0:	48 89 c7             	mov    %rax,%rdi
    b1e3:	e8 6a dd ff ff       	call   8f52 <_ZSt8_DestroyIPNSt7__cxx1112basic_stringIcSt11char_traitsIcESaIcEEEEvT_S7_>
    b1e8:	e8 53 86 ff ff       	call   3840 <_init+0x840>
    b1ed:	f3 0f 1e fa          	endbr64 
    b1f1:	48 89 c3             	mov    %rax,%rbx
    b1f4:	e8 c7 86 ff ff       	call   38c0 <_init+0x8c0>
    b1f9:	48 89 d8             	mov    %rbx,%rax
    b1fc:	48 89 c7             	mov    %rax,%rdi
    b1ff:	e8 0c 87 ff ff       	call   3910 <_init+0x910>
    b204:	48 8b 5d f8          	mov    -0x8(%rbp),%rbx
    b208:	c9                   	leave  
    b209:	c3                   	ret    

000000000000b20a <_ZSt19__relocate_object_aINSt7__cxx1112basic_stringIcSt11char_traitsIcESaIcEEES5_SaIS5_EEvPT_PT0_RT1_>:
    b20a:	f3 0f 1e fa          	endbr64 
    b20e:	55                   	push   %rbp
    b20f:	48 89 e5             	mov    %rsp,%rbp
    b212:	53                   	push   %rbx
    b213:	48 83 ec 78          	sub    $0x78,%rsp
    b217:	48 89 7d 98          	mov    %rdi,-0x68(%rbp)
    b21b:	48 89 75 90          	mov    %rsi,-0x70(%rbp)
    b21f:	48 89 55 88          	mov    %rdx,-0x78(%rbp)
    b223:	48 8b 45 90          	mov    -0x70(%rbp),%rax
    b227:	48 89 c7             	mov    %rax,%rdi
    b22a:	e8 1e bc ff ff       	call   6e4d <_ZSt4moveIRNSt7__cxx1112basic_stringIcSt11char_traitsIcESaIcEEEEONSt16remove_referenceIT_E4typeEOS8_>
    b22f:	48 8b 55 88          	mov    -0x78(%rbp),%rdx
    b233:	48 89 55 c0          	mov    %rdx,-0x40(%rbp)
    b237:	48 8b 55 98          	mov    -0x68(%rbp),%rdx
    b23b:	48 89 55 c8          	mov    %rdx,-0x38(%rbp)
    b23f:	48 89 45 d0          	mov    %rax,-0x30(%rbp)
    b243:	48 8b 45 d0          	mov    -0x30(%rbp),%rax
    b247:	48 89 c7             	mov    %rax,%rdi
    b24a:	e8 cb 08 00 00       	call   bb1a <_ZSt7forwardINSt7__cxx1112basic_stringIcSt11char_traitsIcESaIcEEEEOT_RNSt16remove_referenceIS6_E4typeE>
    b24f:	48 8b 55 c0          	mov    -0x40(%rbp),%rdx
    b253:	48 89 55 d8          	mov    %rdx,-0x28(%rbp)
    b257:	48 8b 55 c8          	mov    -0x38(%rbp),%rdx
    b25b:	48 89 55 e0          	mov    %rdx,-0x20(%rbp)
    b25f:	48 89 45 e8          	mov    %rax,-0x18(%rbp)
    b263:	48 8b 45 e0          	mov    -0x20(%rbp),%rax
    b267:	48 89 c6             	mov    %rax,%rsi
    b26a:	bf 20 00 00 00       	mov    $0x20,%edi
    b26f:	e8 62 a5 ff ff       	call   57d6 <_ZnwmPv>
    b274:	48 89 c3             	mov    %rax,%rbx
    b277:	48 8b 45 e8          	mov    -0x18(%rbp),%rax
    b27b:	48 89 c7             	mov    %rax,%rdi
    b27e:	e8 97 08 00 00       	call   bb1a <_ZSt7forwardINSt7__cxx1112basic_stringIcSt11char_traitsIcESaIcEEEEOT_RNSt16remove_referenceIS6_E4typeE>
    b283:	48 89 c6             	mov    %rax,%rsi
    b286:	48 89 df             	mov    %rbx,%rdi
    b289:	e8 52 83 ff ff       	call   35e0 <_init+0x5e0>
    b28e:	90                   	nop
    b28f:	90                   	nop
    b290:	48 8b 45 90          	mov    -0x70(%rbp),%rax
    b294:	48 89 c7             	mov    %rax,%rdi
    b297:	e8 74 f8 ff ff       	call   ab10 <_ZSt11__addressofINSt7__cxx1112basic_stringIcSt11char_traitsIcESaIcEEEEPT_RS6_>
    b29c:	48 8b 55 88          	mov    -0x78(%rbp),%rdx
    b2a0:	48 89 55 a0          	mov    %rdx,-0x60(%rbp)
    b2a4:	48 89 45 a8          	mov    %rax,-0x58(%rbp)
    b2a8:	48 8b 45 a0          	mov    -0x60(%rbp),%rax
    b2ac:	48 89 45 b0          	mov    %rax,-0x50(%rbp)
    b2b0:	48 8b 45 a8          	mov    -0x58(%rbp),%rax
    b2b4:	48 89 45 b8          	mov    %rax,-0x48(%rbp)
    b2b8:	48 8b 45 b8          	mov    -0x48(%rbp),%rax
    b2bc:	48 89 c7             	mov    %rax,%rdi
    b2bf:	e8 2c 83 ff ff       	call   35f0 <_init+0x5f0>
    b2c4:	90                   	nop
    b2c5:	90                   	nop
    b2c6:	90                   	nop
    b2c7:	48 8b 5d f8          	mov    -0x8(%rbp),%rbx
    b2cb:	c9                   	leave  
    b2cc:	c3                   	ret    

000000000000b2cd <_ZSt16__do_uninit_copyIPKNSt7__cxx1112basic_stringIcSt11char_traitsIcESaIcEEEPS5_ET0_T_SA_S9_>:
    b2cd:	f3 0f 1e fa          	endbr64 
    b2d1:	55                   	push   %rbp
    b2d2:	48 89 e5             	mov    %rsp,%rbp
    b2d5:	53                   	push   %rbx
    b2d6:	48 83 ec 38          	sub    $0x38,%rsp
    b2da:	48 89 7d d8          	mov    %rdi,-0x28(%rbp)
    b2de:	48 89 75 d0          	mov    %rsi,-0x30(%rbp)
    b2e2:	48 89 55 c8          	mov    %rdx,-0x38(%rbp)
    b2e6:	48 8b 45 c8          	mov    -0x38(%rbp),%rax
    b2ea:	48 89 45 e8          	mov    %rax,-0x18(%rbp)
    b2ee:	eb 28                	jmp    b318 <_ZSt16__do_uninit_copyIPKNSt7__cxx1112basic_stringIcSt11char_traitsIcESaIcEEEPS5_ET0_T_SA_S9_+0x4b>
    b2f0:	48 8b 45 e8          	mov    -0x18(%rbp),%rax
    b2f4:	48 89 c7             	mov    %rax,%rdi
    b2f7:	e8 14 f8 ff ff       	call   ab10 <_ZSt11__addressofINSt7__cxx1112basic_stringIcSt11char_traitsIcESaIcEEEEPT_RS6_>
    b2fc:	48 89 c2             	mov    %rax,%rdx
    b2ff:	48 8b 45 d8          	mov    -0x28(%rbp),%rax
    b303:	48 89 c6             	mov    %rax,%rsi
    b306:	48 89 d7             	mov    %rdx,%rdi
    b309:	e8 f2 05 00 00       	call   b900 <_ZSt10_ConstructINSt7__cxx1112basic_stringIcSt11char_traitsIcESaIcEEEJRKS5_EEvPT_DpOT0_>
    b30e:	48 83 45 d8 20       	addq   $0x20,-0x28(%rbp)
    b313:	48 83 45 e8 20       	addq   $0x20,-0x18(%rbp)
    b318:	48 8b 45 d8          	mov    -0x28(%rbp),%rax
    b31c:	48 3b 45 d0          	cmp    -0x30(%rbp),%rax
    b320:	75 ce                	jne    b2f0 <_ZSt16__do_uninit_copyIPKNSt7__cxx1112basic_stringIcSt11char_traitsIcESaIcEEEPS5_ET0_T_SA_S9_+0x23>
    b322:	48 8b 45 e8          	mov    -0x18(%rbp),%rax
    b326:	eb 3b                	jmp    b363 <_ZSt16__do_uninit_copyIPKNSt7__cxx1112basic_stringIcSt11char_traitsIcESaIcEEEPS5_ET0_T_SA_S9_+0x96>
    b328:	f3 0f 1e fa          	endbr64 
    b32c:	48 89 c7             	mov    %rax,%rdi
    b32f:	e8 4c 82 ff ff       	call   3580 <_init+0x580>
    b334:	48 8b 55 e8          	mov    -0x18(%rbp),%rdx
    b338:	48 8b 45 c8          	mov    -0x38(%rbp),%rax
    b33c:	48 89 d6             	mov    %rdx,%rsi
    b33f:	48 89 c7             	mov    %rax,%rdi
    b342:	e8 0b dc ff ff       	call   8f52 <_ZSt8_DestroyIPNSt7__cxx1112basic_stringIcSt11char_traitsIcESaIcEEEEvT_S7_>
    b347:	e8 f4 84 ff ff       	call   3840 <_init+0x840>
    b34c:	f3 0f 1e fa          	endbr64 
    b350:	48 89 c3             	mov    %rax,%rbx
    b353:	e8 68 85 ff ff       	call   38c0 <_init+0x8c0>
    b358:	48 89 d8             	mov    %rbx,%rax
    b35b:	48 89 c7             	mov    %rax,%rdi
    b35e:	e8 ad 85 ff ff       	call   3910 <_init+0x910>
    b363:	48 8b 5d f8          	mov    -0x8(%rbp),%rbx
    b367:	c9                   	leave  
    b368:	c3                   	ret    
    b369:	90                   	nop

000000000000b36a <_ZNSt8_Rb_treeINSt7__cxx1112basic_stringIcSt11char_traitsIcESaIcEEES5_St9_IdentityIS5_ESt4lessIS5_ESaIS5_EE11_M_get_nodeEv>:
    b36a:	f3 0f 1e fa          	endbr64 
    b36e:	55                   	push   %rbp
    b36f:	48 89 e5             	mov    %rsp,%rbp
    b372:	48 83 ec 20          	sub    $0x20,%rsp
    b376:	48 89 7d e8          	mov    %rdi,-0x18(%rbp)
    b37a:	48 8b 45 e8          	mov    -0x18(%rbp),%rax
    b37e:	48 89 c7             	mov    %rax,%rdi
    b381:	e8 52 fb ff ff       	call   aed8 <_ZNSt8_Rb_treeINSt7__cxx1112basic_stringIcSt11char_traitsIcESaIcEEES5_St9_IdentityIS5_ESt4lessIS5_ESaIS5_EE21_M_get_Node_allocatorEv>
    b386:	48 89 45 f0          	mov    %rax,-0x10(%rbp)
    b38a:	48 c7 45 f8 01 00 00 	movq   $0x1,-0x8(%rbp)
    b391:	00 
    b392:	48 8b 4d f8          	mov    -0x8(%rbp),%rcx
    b396:	48 8b 45 f0          	mov    -0x10(%rbp),%rax
    b39a:	ba 00 00 00 00       	mov    $0x0,%edx
    b39f:	48 89 ce             	mov    %rcx,%rsi
    b3a2:	48 89 c7             	mov    %rax,%rdi
    b3a5:	e8 82 07 00 00       	call   bb2c <_ZNSt15__new_allocatorISt13_Rb_tree_nodeINSt7__cxx1112basic_stringIcSt11char_traitsIcESaIcEEEEE8allocateEmPKv>
    b3aa:	90                   	nop
    b3ab:	c9                   	leave  
    b3ac:	c3                   	ret    
    b3ad:	90                   	nop

000000000000b3ae <_ZNSt8_Rb_treeINSt7__cxx1112basic_stringIcSt11char_traitsIcESaIcEEES5_St9_IdentityIS5_ESt4lessIS5_ESaIS5_EE17_M_construct_nodeIJRKPKcEEEvPSt13_Rb_tree_nodeIS5_EDpOT_>:
    b3ae:	f3 0f 1e fa          	endbr64 
    b3b2:	55                   	push   %rbp
    b3b3:	48 89 e5             	mov    %rsp,%rbp
    b3b6:	41 56                	push   %r14
    b3b8:	41 55                	push   %r13
    b3ba:	41 54                	push   %r12
    b3bc:	53                   	push   %rbx
    b3bd:	48 83 ec 70          	sub    $0x70,%rsp
    b3c1:	48 89 7d 88          	mov    %rdi,-0x78(%rbp)
    b3c5:	48 89 75 80          	mov    %rsi,-0x80(%rbp)
    b3c9:	48 89 95 78 ff ff ff 	mov    %rdx,-0x88(%rbp)
    b3d0:	64 48 8b 04 25 28 00 	mov    %fs:0x28,%rax
    b3d7:	00 00 
    b3d9:	48 89 45 d8          	mov    %rax,-0x28(%rbp)
    b3dd:	31 c0                	xor    %eax,%eax
    b3df:	48 8b 45 80          	mov    -0x80(%rbp),%rax
    b3e3:	48 89 c6             	mov    %rax,%rsi
    b3e6:	bf 40 00 00 00       	mov    $0x40,%edi
    b3eb:	e8 e6 a3 ff ff       	call   57d6 <_ZnwmPv>
    b3f0:	48 8b 85 78 ff ff ff 	mov    -0x88(%rbp),%rax
    b3f7:	48 89 c7             	mov    %rax,%rdi
    b3fa:	e8 cb eb ff ff       	call   9fca <_ZSt7forwardIRKPKcEOT_RNSt16remove_referenceIS4_E4typeE>
    b3ff:	48 89 c3             	mov    %rax,%rbx
    b402:	48 8b 45 80          	mov    -0x80(%rbp),%rax
    b406:	48 89 c7             	mov    %rax,%rdi
    b409:	e8 dc fa ff ff       	call   aeea <_ZNSt13_Rb_tree_nodeINSt7__cxx1112basic_stringIcSt11char_traitsIcESaIcEEEE9_M_valptrEv>
    b40e:	49 89 c4             	mov    %rax,%r12
    b411:	48 8b 45 88          	mov    -0x78(%rbp),%rax
    b415:	48 89 c7             	mov    %rax,%rdi
    b418:	e8 bb fa ff ff       	call   aed8 <_ZNSt8_Rb_treeINSt7__cxx1112basic_stringIcSt11char_traitsIcESaIcEEES5_St9_IdentityIS5_ESt4lessIS5_ESaIS5_EE21_M_get_Node_allocatorEv>
    b41d:	48 89 45 a0          	mov    %rax,-0x60(%rbp)
    b421:	4c 89 65 a8          	mov    %r12,-0x58(%rbp)
    b425:	48 89 5d b0          	mov    %rbx,-0x50(%rbp)
    b429:	48 8b 45 b0          	mov    -0x50(%rbp),%rax
    b42d:	48 89 c7             	mov    %rax,%rdi
    b430:	e8 95 eb ff ff       	call   9fca <_ZSt7forwardIRKPKcEOT_RNSt16remove_referenceIS4_E4typeE>
    b435:	48 8b 55 a0          	mov    -0x60(%rbp),%rdx
    b439:	48 89 55 b8          	mov    %rdx,-0x48(%rbp)
    b43d:	48 8b 55 a8          	mov    -0x58(%rbp),%rdx
    b441:	48 89 55 c0          	mov    %rdx,-0x40(%rbp)
    b445:	48 89 45 c8          	mov    %rax,-0x38(%rbp)
    b449:	48 8b 5d c0          	mov    -0x40(%rbp),%rbx
    b44d:	48 89 de             	mov    %rbx,%rsi
    b450:	bf 20 00 00 00       	mov    $0x20,%edi
    b455:	e8 7c a3 ff ff       	call   57d6 <_ZnwmPv>
    b45a:	49 89 c4             	mov    %rax,%r12
    b45d:	41 be 01 00 00 00    	mov    $0x1,%r14d
    b463:	48 8d 45 9f          	lea    -0x61(%rbp),%rax
    b467:	48 89 45 d0          	mov    %rax,-0x30(%rbp)
    b46b:	90                   	nop
    b46c:	90                   	nop
    b46d:	48 8b 45 c8          	mov    -0x38(%rbp),%rax
    b471:	48 89 c7             	mov    %rax,%rdi
    b474:	e8 51 eb ff ff       	call   9fca <_ZSt7forwardIRKPKcEOT_RNSt16remove_referenceIS4_E4typeE>
    b479:	48 8b 00             	mov    (%rax),%rax
    b47c:	48 8d 55 9f          	lea    -0x61(%rbp),%rdx
    b480:	48 89 c6             	mov    %rax,%rsi
    b483:	4c 89 e7             	mov    %r12,%rdi
    b486:	e8 67 ae ff ff       	call   62f2 <_ZNSt7__cxx1112basic_stringIcSt11char_traitsIcESaIcEEC1IS3_EEPKcRKS3_>
    b48b:	48 8d 45 9f          	lea    -0x61(%rbp),%rax
    b48f:	48 89 c7             	mov    %rax,%rdi
    b492:	e8 41 b8 ff ff       	call   6cd8 <_ZNSt15__new_allocatorIcED1Ev>
    b497:	90                   	nop
    b498:	90                   	nop
    b499:	90                   	nop
    b49a:	90                   	nop
    b49b:	48 8b 45 d8          	mov    -0x28(%rbp),%rax
    b49f:	64 48 2b 04 25 28 00 	sub    %fs:0x28,%rax
    b4a6:	00 00 
    b4a8:	0f 84 90 00 00 00    	je     b53e <_ZNSt8_Rb_treeINSt7__cxx1112basic_stringIcSt11char_traitsIcESaIcEEES5_St9_IdentityIS5_ESt4lessIS5_ESaIS5_EE17_M_construct_nodeIJRKPKcEEEvPSt13_Rb_tree_nodeIS5_EDpOT_+0x190>
    b4ae:	e9 86 00 00 00       	jmp    b539 <_ZNSt8_Rb_treeINSt7__cxx1112basic_stringIcSt11char_traitsIcESaIcEEES5_St9_IdentityIS5_ESt4lessIS5_ESaIS5_EE17_M_construct_nodeIJRKPKcEEEvPSt13_Rb_tree_nodeIS5_EDpOT_+0x18b>
    b4b3:	f3 0f 1e fa          	endbr64 
    b4b7:	49 89 c5             	mov    %rax,%r13
    b4ba:	48 8d 45 9f          	lea    -0x61(%rbp),%rax
    b4be:	48 89 c7             	mov    %rax,%rdi
    b4c1:	e8 12 b8 ff ff       	call   6cd8 <_ZNSt15__new_allocatorIcED1Ev>
    b4c6:	90                   	nop
    b4c7:	45 84 f6             	test   %r14b,%r14b
    b4ca:	74 0b                	je     b4d7 <_ZNSt8_Rb_treeINSt7__cxx1112basic_stringIcSt11char_traitsIcESaIcEEES5_St9_IdentityIS5_ESt4lessIS5_ESaIS5_EE17_M_construct_nodeIJRKPKcEEEvPSt13_Rb_tree_nodeIS5_EDpOT_+0x129>
    b4cc:	48 89 de             	mov    %rbx,%rsi
    b4cf:	4c 89 e7             	mov    %r12,%rdi
    b4d2:	e8 15 a3 ff ff       	call   57ec <_ZdlPvS_>
    b4d7:	4c 89 e8             	mov    %r13,%rax
    b4da:	48 89 c7             	mov    %rax,%rdi
    b4dd:	e8 9e 80 ff ff       	call   3580 <_init+0x580>
    b4e2:	48 8b 55 80          	mov    -0x80(%rbp),%rdx
    b4e6:	48 8b 45 88          	mov    -0x78(%rbp),%rax
    b4ea:	48 89 d6             	mov    %rdx,%rsi
    b4ed:	48 89 c7             	mov    %rax,%rdi
    b4f0:	e8 6b ee ff ff       	call   a360 <_ZNSt8_Rb_treeINSt7__cxx1112basic_stringIcSt11char_traitsIcESaIcEEES5_St9_IdentityIS5_ESt4lessIS5_ESaIS5_EE11_M_put_nodeEPSt13_Rb_tree_nodeIS5_E>
    b4f5:	48 8b 45 d8          	mov    -0x28(%rbp),%rax
    b4f9:	64 48 2b 04 25 28 00 	sub    %fs:0x28,%rax
    b500:	00 00 
    b502:	74 05                	je     b509 <_ZNSt8_Rb_treeINSt7__cxx1112basic_stringIcSt11char_traitsIcESaIcEEES5_St9_IdentityIS5_ESt4lessIS5_ESaIS5_EE17_M_construct_nodeIJRKPKcEEEvPSt13_Rb_tree_nodeIS5_EDpOT_+0x15b>
    b504:	e8 77 82 ff ff       	call   3780 <_init+0x780>
    b509:	e8 32 83 ff ff       	call   3840 <_init+0x840>
    b50e:	f3 0f 1e fa          	endbr64 
    b512:	48 89 c3             	mov    %rax,%rbx
    b515:	e8 a6 83 ff ff       	call   38c0 <_init+0x8c0>
    b51a:	48 89 d8             	mov    %rbx,%rax
    b51d:	48 8b 55 d8          	mov    -0x28(%rbp),%rdx
    b521:	64 48 2b 14 25 28 00 	sub    %fs:0x28,%rdx
    b528:	00 00 
    b52a:	74 05                	je     b531 <_ZNSt8_Rb_treeINSt7__cxx1112basic_stringIcSt11char_traitsIcESaIcEEES5_St9_IdentityIS5_ESt4lessIS5_ESaIS5_EE17_M_construct_nodeIJRKPKcEEEvPSt13_Rb_tree_nodeIS5_EDpOT_+0x183>
    b52c:	e8 4f 82 ff ff       	call   3780 <_init+0x780>
    b531:	48 89 c7             	mov    %rax,%rdi
    b534:	e8 d7 83 ff ff       	call   3910 <_init+0x910>
    b539:	e8 42 82 ff ff       	call   3780 <_init+0x780>
    b53e:	48 83 c4 70          	add    $0x70,%rsp
    b542:	5b                   	pop    %rbx
    b543:	41 5c                	pop    %r12
    b545:	41 5d                	pop    %r13
    b547:	41 5e                	pop    %r14
    b549:	5d                   	pop    %rbp
    b54a:	c3                   	ret    
    b54b:	90                   	nop

000000000000b54c <_ZNKSt9_IdentityINSt7__cxx1112basic_stringIcSt11char_traitsIcESaIcEEEEclERKS5_>:
    b54c:	f3 0f 1e fa          	endbr64 
    b550:	55                   	push   %rbp
    b551:	48 89 e5             	mov    %rsp,%rbp
    b554:	48 89 7d f8          	mov    %rdi,-0x8(%rbp)
    b558:	48 89 75 f0          	mov    %rsi,-0x10(%rbp)
    b55c:	48 8b 45 f0          	mov    -0x10(%rbp),%rax
    b560:	5d                   	pop    %rbp
    b561:	c3                   	ret    

000000000000b562 <_ZSt7forwardIRPSt13_Rb_tree_nodeINSt7__cxx1112basic_stringIcSt11char_traitsIcESaIcEEEEEOT_RNSt16remove_referenceISA_E4typeE>:
    b562:	f3 0f 1e fa          	endbr64 
    b566:	55                   	push   %rbp
    b567:	48 89 e5             	mov    %rsp,%rbp
    b56a:	48 89 7d f8          	mov    %rdi,-0x8(%rbp)
    b56e:	48 8b 45 f8          	mov    -0x8(%rbp),%rax
    b572:	5d                   	pop    %rbp
    b573:	c3                   	ret    

000000000000b574 <_ZN9__gnu_cxx16__aligned_membufINSt7__cxx1112basic_stringIcSt11char_traitsIcESaIcEEEE6_M_ptrEv>:
    b574:	f3 0f 1e fa          	endbr64 
    b578:	55                   	push   %rbp
    b579:	48 89 e5             	mov    %rsp,%rbp
    b57c:	48 83 ec 10          	sub    $0x10,%rsp
    b580:	48 89 7d f8          	mov    %rdi,-0x8(%rbp)
    b584:	48 8b 45 f8          	mov    -0x8(%rbp),%rax
    b588:	48 89 c7             	mov    %rax,%rdi
    b58b:	e8 ee 03 00 00       	call   b97e <_ZN9__gnu_cxx16__aligned_membufINSt7__cxx1112basic_stringIcSt11char_traitsIcESaIcEEEE7_M_addrEv>
    b590:	c9                   	leave  
    b591:	c3                   	ret    

000000000000b592 <_ZNSt15__new_allocatorISt13_Rb_tree_nodeINSt7__cxx1112basic_stringIcSt11char_traitsIcESaIcEEEEE10deallocateEPS7_m>:
    b592:	f3 0f 1e fa          	endbr64 
    b596:	55                   	push   %rbp
    b597:	48 89 e5             	mov    %rsp,%rbp
    b59a:	48 83 ec 20          	sub    $0x20,%rsp
    b59e:	48 89 7d f8          	mov    %rdi,-0x8(%rbp)
    b5a2:	48 89 75 f0          	mov    %rsi,-0x10(%rbp)
    b5a6:	48 89 55 e8          	mov    %rdx,-0x18(%rbp)
    b5aa:	48 8b 45 e8          	mov    -0x18(%rbp),%rax
    b5ae:	48 c1 e0 06          	shl    $0x6,%rax
    b5b2:	48 89 c2             	mov    %rax,%rdx
    b5b5:	48 8b 45 f0          	mov    -0x10(%rbp),%rax
    b5b9:	48 89 d6             	mov    %rdx,%rsi
    b5bc:	48 89 c7             	mov    %rax,%rdi
    b5bf:	e8 2c 81 ff ff       	call   36f0 <_init+0x6f0>
    b5c4:	c9                   	leave  
    b5c5:	c3                   	ret    

000000000000b5c6 <_ZNSt15__new_allocatorISt13_Rb_tree_nodeISt4pairIKNSt7__cxx1112basic_stringIcSt11char_traitsIcESaIcEEES7_EEE8allocateEmPKv>:
    b5c6:	f3 0f 1e fa          	endbr64 
    b5ca:	55                   	push   %rbp
    b5cb:	48 89 e5             	mov    %rsp,%rbp
    b5ce:	48 83 ec 30          	sub    $0x30,%rsp
    b5d2:	48 89 7d e8          	mov    %rdi,-0x18(%rbp)
    b5d6:	48 89 75 e0          	mov    %rsi,-0x20(%rbp)
    b5da:	48 89 55 d8          	mov    %rdx,-0x28(%rbp)
    b5de:	48 8b 45 e8          	mov    -0x18(%rbp),%rax
    b5e2:	48 89 45 f8          	mov    %rax,-0x8(%rbp)
    b5e6:	48 b8 55 55 55 55 55 	movabs $0x155555555555555,%rax
    b5ed:	55 55 01 
    b5f0:	48 3b 45 e0          	cmp    -0x20(%rbp),%rax
    b5f4:	0f 92 c0             	setb   %al
    b5f7:	0f b6 c0             	movzbl %al,%eax
    b5fa:	48 85 c0             	test   %rax,%rax
    b5fd:	0f 95 c0             	setne  %al
    b600:	84 c0                	test   %al,%al
    b602:	74 1a                	je     b61e <_ZNSt15__new_allocatorISt13_Rb_tree_nodeISt4pairIKNSt7__cxx1112basic_stringIcSt11char_traitsIcESaIcEEES7_EEE8allocateEmPKv+0x58>
    b604:	48 b8 aa aa aa aa aa 	movabs $0x2aaaaaaaaaaaaaa,%rax
    b60b:	aa aa 02 
    b60e:	48 3b 45 e0          	cmp    -0x20(%rbp),%rax
    b612:	73 05                	jae    b619 <_ZNSt15__new_allocatorISt13_Rb_tree_nodeISt4pairIKNSt7__cxx1112basic_stringIcSt11char_traitsIcESaIcEEES7_EEE8allocateEmPKv+0x53>
    b614:	e8 57 80 ff ff       	call   3670 <_init+0x670>
    b619:	e8 42 7f ff ff       	call   3560 <_init+0x560>
    b61e:	48 8b 55 e0          	mov    -0x20(%rbp),%rdx
    b622:	48 89 d0             	mov    %rdx,%rax
    b625:	48 01 c0             	add    %rax,%rax
    b628:	48 01 d0             	add    %rdx,%rax
    b62b:	48 c1 e0 05          	shl    $0x5,%rax
    b62f:	48 89 c7             	mov    %rax,%rdi
    b632:	e8 a9 80 ff ff       	call   36e0 <_init+0x6e0>
    b637:	90                   	nop
    b638:	c9                   	leave  
    b639:	c3                   	ret    

000000000000b63a <_ZNSt5tupleIJRKNSt7__cxx1112basic_stringIcSt11char_traitsIcESaIcEEEEEC1EOS8_>:
    b63a:	f3 0f 1e fa          	endbr64 
    b63e:	55                   	push   %rbp
    b63f:	48 89 e5             	mov    %rsp,%rbp
    b642:	48 83 ec 10          	sub    $0x10,%rsp
    b646:	48 89 7d f8          	mov    %rdi,-0x8(%rbp)
    b64a:	48 89 75 f0          	mov    %rsi,-0x10(%rbp)
    b64e:	48 8b 45 f8          	mov    -0x8(%rbp),%rax
    b652:	48 8b 55 f0          	mov    -0x10(%rbp),%rdx
    b656:	48 89 d6             	mov    %rdx,%rsi
    b659:	48 89 c7             	mov    %rax,%rdi
    b65c:	e8 2f 03 00 00       	call   b990 <_ZNSt11_Tuple_implILm0EJRKNSt7__cxx1112basic_stringIcSt11char_traitsIcESaIcEEEEEC1EOS8_>
    b661:	90                   	nop
    b662:	c9                   	leave  
    b663:	c3                   	ret    

000000000000b664 <_ZNSt8_Rb_treeINSt7__cxx1112basic_stringIcSt11char_traitsIcESaIcEEESt4pairIKS5_S5_ESt10_Select1stIS8_ESt4lessIS5_ESaIS8_EE7_M_copyILb0ENSE_11_Alloc_nodeEEEPSt13_Rb_tree_nodeIS8_ESJ_PSt18_Rb_tree_node_baseRT0_>:
    b664:	f3 0f 1e fa          	endbr64 
    b668:	55                   	push   %rbp
    b669:	48 89 e5             	mov    %rsp,%rbp
    b66c:	53                   	push   %rbx
    b66d:	48 83 ec 38          	sub    $0x38,%rsp
    b671:	48 89 7d d8          	mov    %rdi,-0x28(%rbp)
    b675:	48 89 75 d0          	mov    %rsi,-0x30(%rbp)
    b679:	48 89 55 c8          	mov    %rdx,-0x38(%rbp)
    b67d:	48 89 4d c0          	mov    %rcx,-0x40(%rbp)
    b681:	48 8b 55 c0          	mov    -0x40(%rbp),%rdx
    b685:	48 8b 4d d0          	mov    -0x30(%rbp),%rcx
    b689:	48 8b 45 d8          	mov    -0x28(%rbp),%rax
    b68d:	48 89 ce             	mov    %rcx,%rsi
    b690:	48 89 c7             	mov    %rax,%rdi
    b693:	e8 48 03 00 00       	call   b9e0 <_ZNSt8_Rb_treeINSt7__cxx1112basic_stringIcSt11char_traitsIcESaIcEEESt4pairIKS5_S5_ESt10_Select1stIS8_ESt4lessIS5_ESaIS8_EE13_M_clone_nodeILb0ENSE_11_Alloc_nodeEEEPSt13_Rb_tree_nodeIS8_ESJ_RT0_>
    b698:	48 89 45 e0          	mov    %rax,-0x20(%rbp)
    b69c:	48 8b 45 e0          	mov    -0x20(%rbp),%rax
    b6a0:	48 8b 55 c8          	mov    -0x38(%rbp),%rdx
    b6a4:	48 89 50 08          	mov    %rdx,0x8(%rax)
    b6a8:	48 8b 45 d0          	mov    -0x30(%rbp),%rax
    b6ac:	48 8b 40 18          	mov    0x18(%rax),%rax
    b6b0:	48 85 c0             	test   %rax,%rax
    b6b3:	74 2b                	je     b6e0 <_ZNSt8_Rb_treeINSt7__cxx1112basic_stringIcSt11char_traitsIcESaIcEEESt4pairIKS5_S5_ESt10_Select1stIS8_ESt4lessIS5_ESaIS8_EE7_M_copyILb0ENSE_11_Alloc_nodeEEEPSt13_Rb_tree_nodeIS8_ESJ_PSt18_Rb_tree_node_baseRT0_+0x7c>
    b6b5:	48 8b 45 d0          	mov    -0x30(%rbp),%rax
    b6b9:	48 89 c7             	mov    %rax,%rdi
    b6bc:	e8 af cc ff ff       	call   8370 <_ZNSt8_Rb_treeINSt7__cxx1112basic_stringIcSt11char_traitsIcESaIcEEESt4pairIKS5_S5_ESt10_Select1stIS8_ESt4lessIS5_ESaIS8_EE8_S_rightEPSt18_Rb_tree_node_base>
    b6c1:	48 89 c6             	mov    %rax,%rsi
    b6c4:	48 8b 4d c0          	mov    -0x40(%rbp),%rcx
    b6c8:	48 8b 55 e0          	mov    -0x20(%rbp),%rdx
    b6cc:	48 8b 45 d8          	mov    -0x28(%rbp),%rax
    b6d0:	48 89 c7             	mov    %rax,%rdi
    b6d3:	e8 8c ff ff ff       	call   b664 <_ZNSt8_Rb_treeINSt7__cxx1112basic_stringIcSt11char_traitsIcESaIcEEESt4pairIKS5_S5_ESt10_Select1stIS8_ESt4lessIS5_ESaIS8_EE7_M_copyILb0ENSE_11_Alloc_nodeEEEPSt13_Rb_tree_nodeIS8_ESJ_PSt18_Rb_tree_node_baseRT0_>
    b6d8:	48 8b 55 e0          	mov    -0x20(%rbp),%rdx
    b6dc:	48 89 42 18          	mov    %rax,0x18(%rdx)
    b6e0:	48 8b 45 e0          	mov    -0x20(%rbp),%rax
    b6e4:	48 89 45 c8          	mov    %rax,-0x38(%rbp)
    b6e8:	48 8b 45 d0          	mov    -0x30(%rbp),%rax
    b6ec:	48 89 c7             	mov    %rax,%rdi
    b6ef:	e8 92 cc ff ff       	call   8386 <_ZNSt8_Rb_treeINSt7__cxx1112basic_stringIcSt11char_traitsIcESaIcEEESt4pairIKS5_S5_ESt10_Select1stIS8_ESt4lessIS5_ESaIS8_EE7_S_leftEPSt18_Rb_tree_node_base>
    b6f4:	48 89 45 d0          	mov    %rax,-0x30(%rbp)
    b6f8:	e9 83 00 00 00       	jmp    b780 <_ZNSt8_Rb_treeINSt7__cxx1112basic_stringIcSt11char_traitsIcESaIcEEESt4pairIKS5_S5_ESt10_Select1stIS8_ESt4lessIS5_ESaIS8_EE7_M_copyILb0ENSE_11_Alloc_nodeEEEPSt13_Rb_tree_nodeIS8_ESJ_PSt18_Rb_tree_node_baseRT0_+0x11c>
    b6fd:	48 8b 55 c0          	mov    -0x40(%rbp),%rdx
    b701:	48 8b 4d d0          	mov    -0x30(%rbp),%rcx
    b705:	48 8b 45 d8          	mov    -0x28(%rbp),%rax
    b709:	48 89 ce             	mov    %rcx,%rsi
    b70c:	48 89 c7             	mov    %rax,%rdi
    b70f:	e8 cc 02 00 00       	call   b9e0 <_ZNSt8_Rb_treeINSt7__cxx1112basic_stringIcSt11char_traitsIcESaIcEEESt4pairIKS5_S5_ESt10_Select1stIS8_ESt4lessIS5_ESaIS8_EE13_M_clone_nodeILb0ENSE_11_Alloc_nodeEEEPSt13_Rb_tree_nodeIS8_ESJ_RT0_>
    b714:	48 89 45 e8          	mov    %rax,-0x18(%rbp)
    b718:	48 8b 45 c8          	mov    -0x38(%rbp),%rax
    b71c:	48 8b 55 e8          	mov    -0x18(%rbp),%rdx
    b720:	48 89 50 10          	mov    %rdx,0x10(%rax)
    b724:	48 8b 45 e8          	mov    -0x18(%rbp),%rax
    b728:	48 8b 55 c8          	mov    -0x38(%rbp),%rdx
    b72c:	48 89 50 08          	mov    %rdx,0x8(%rax)
    b730:	48 8b 45 d0          	mov    -0x30(%rbp),%rax
    b734:	48 8b 40 18          	mov    0x18(%rax),%rax
    b738:	48 85 c0             	test   %rax,%rax
    b73b:	74 2b                	je     b768 <_ZNSt8_Rb_treeINSt7__cxx1112basic_stringIcSt11char_traitsIcESaIcEEESt4pairIKS5_S5_ESt10_Select1stIS8_ESt4lessIS5_ESaIS8_EE7_M_copyILb0ENSE_11_Alloc_nodeEEEPSt13_Rb_tree_nodeIS8_ESJ_PSt18_Rb_tree_node_baseRT0_+0x104>
    b73d:	48 8b 45 d0          	mov    -0x30(%rbp),%rax
    b741:	48 89 c7             	mov    %rax,%rdi
    b744:	e8 27 cc ff ff       	call   8370 <_ZNSt8_Rb_treeINSt7__cxx1112basic_stringIcSt11char_traitsIcESaIcEEESt4pairIKS5_S5_ESt10_Select1stIS8_ESt4lessIS5_ESaIS8_EE8_S_rightEPSt18_Rb_tree_node_base>
    b749:	48 89 c6             	mov    %rax,%rsi
    b74c:	48 8b 4d c0          	mov    -0x40(%rbp),%rcx
    b750:	48 8b 55 e8          	mov    -0x18(%rbp),%rdx
    b754:	48 8b 45 d8          	mov    -0x28(%rbp),%rax
    b758:	48 89 c7             	mov    %rax,%rdi
    b75b:	e8 04 ff ff ff       	call   b664 <_ZNSt8_Rb_treeINSt7__cxx1112basic_stringIcSt11char_traitsIcESaIcEEESt4pairIKS5_S5_ESt10_Select1stIS8_ESt4lessIS5_ESaIS8_EE7_M_copyILb0ENSE_11_Alloc_nodeEEEPSt13_Rb_tree_nodeIS8_ESJ_PSt18_Rb_tree_node_baseRT0_>
    b760:	48 8b 55 e8          	mov    -0x18(%rbp),%rdx
    b764:	48 89 42 18          	mov    %rax,0x18(%rdx)
    b768:	48 8b 45 e8          	mov    -0x18(%rbp),%rax
    b76c:	48 89 45 c8          	mov    %rax,-0x38(%rbp)
    b770:	48 8b 45 d0          	mov    -0x30(%rbp),%rax
    b774:	48 89 c7             	mov    %rax,%rdi
    b777:	e8 0a cc ff ff       	call   8386 <_ZNSt8_Rb_treeINSt7__cxx1112basic_stringIcSt11char_traitsIcESaIcEEESt4pairIKS5_S5_ESt10_Select1stIS8_ESt4lessIS5_ESaIS8_EE7_S_leftEPSt18_Rb_tree_node_base>
    b77c:	48 89 45 d0          	mov    %rax,-0x30(%rbp)
    b780:	48 83 7d d0 00       	cmpq   $0x0,-0x30(%rbp)
    b785:	0f 85 72 ff ff ff    	jne    b6fd <_ZNSt8_Rb_treeINSt7__cxx1112basic_stringIcSt11char_traitsIcESaIcEEESt4pairIKS5_S5_ESt10_Select1stIS8_ESt4lessIS5_ESaIS8_EE7_M_copyILb0ENSE_11_Alloc_nodeEEEPSt13_Rb_tree_nodeIS8_ESJ_PSt18_Rb_tree_node_baseRT0_+0x99>
    b78b:	48 8b 45 e0          	mov    -0x20(%rbp),%rax
    b78f:	eb 3b                	jmp    b7cc <_ZNSt8_Rb_treeINSt7__cxx1112basic_stringIcSt11char_traitsIcESaIcEEESt4pairIKS5_S5_ESt10_Select1stIS8_ESt4lessIS5_ESaIS8_EE7_M_copyILb0ENSE_11_Alloc_nodeEEEPSt13_Rb_tree_nodeIS8_ESJ_PSt18_Rb_tree_node_baseRT0_+0x168>
    b791:	f3 0f 1e fa          	endbr64 
    b795:	48 89 c7             	mov    %rax,%rdi
    b798:	e8 e3 7d ff ff       	call   3580 <_init+0x580>
    b79d:	48 8b 55 e0          	mov    -0x20(%rbp),%rdx
    b7a1:	48 8b 45 d8          	mov    -0x28(%rbp),%rax
    b7a5:	48 89 d6             	mov    %rdx,%rsi
    b7a8:	48 89 c7             	mov    %rax,%rdi
    b7ab:	e8 88 b7 ff ff       	call   6f38 <_ZNSt8_Rb_treeINSt7__cxx1112basic_stringIcSt11char_traitsIcESaIcEEESt4pairIKS5_S5_ESt10_Select1stIS8_ESt4lessIS5_ESaIS8_EE8_M_eraseEPSt13_Rb_tree_nodeIS8_E>
    b7b0:	e8 8b 80 ff ff       	call   3840 <_init+0x840>
    b7b5:	f3 0f 1e fa          	endbr64 
    b7b9:	48 89 c3             	mov    %rax,%rbx
    b7bc:	e8 ff 80 ff ff       	call   38c0 <_init+0x8c0>
    b7c1:	48 89 d8             	mov    %rbx,%rax
    b7c4:	48 89 c7             	mov    %rax,%rdi
    b7c7:	e8 44 81 ff ff       	call   3910 <_init+0x910>
    b7cc:	48 8b 5d f8          	mov    -0x8(%rbp),%rbx
    b7d0:	c9                   	leave  
    b7d1:	c3                   	ret    

000000000000b7d2 <_ZNSt8_Rb_treeINSt7__cxx1112basic_stringIcSt11char_traitsIcESaIcEEESt4pairIKS5_S5_ESt10_Select1stIS8_ESt4lessIS5_ESaIS8_EE10_S_minimumEPSt18_Rb_tree_node_base>:
    b7d2:	f3 0f 1e fa          	endbr64 
    b7d6:	55                   	push   %rbp
    b7d7:	48 89 e5             	mov    %rsp,%rbp
    b7da:	48 83 ec 10          	sub    $0x10,%rsp
    b7de:	48 89 7d f8          	mov    %rdi,-0x8(%rbp)
    b7e2:	48 8b 45 f8          	mov    -0x8(%rbp),%rax
    b7e6:	48 89 c7             	mov    %rax,%rdi
    b7e9:	e8 f7 a0 ff ff       	call   58e5 <_ZNSt18_Rb_tree_node_base10_S_minimumEPS_>
    b7ee:	c9                   	leave  
    b7ef:	c3                   	ret    

000000000000b7f0 <_ZNSt8_Rb_treeINSt7__cxx1112basic_stringIcSt11char_traitsIcESaIcEEESt4pairIKS5_S5_ESt10_Select1stIS8_ESt4lessIS5_ESaIS8_EE10_S_maximumEPSt18_Rb_tree_node_base>:
    b7f0:	f3 0f 1e fa          	endbr64 
    b7f4:	55                   	push   %rbp
    b7f5:	48 89 e5             	mov    %rsp,%rbp
    b7f8:	48 83 ec 10          	sub    $0x10,%rsp
    b7fc:	48 89 7d f8          	mov    %rdi,-0x8(%rbp)
    b800:	48 8b 45 f8          	mov    -0x8(%rbp),%rax
    b804:	48 89 c7             	mov    %rax,%rdi
    b807:	e8 06 a1 ff ff       	call   5912 <_ZNSt18_Rb_tree_node_base10_S_maximumEPS_>
    b80c:	c9                   	leave  
    b80d:	c3                   	ret    

000000000000b80e <_ZSt4moveIRSt3mapINSt7__cxx1112basic_stringIcSt11char_traitsIcESaIcEEES6_St4lessIS6_ESaISt4pairIKS6_S6_EEEEONSt16remove_referenceIT_E4typeEOSG_>:
    b80e:	f3 0f 1e fa          	endbr64 
    b812:	55                   	push   %rbp
    b813:	48 89 e5             	mov    %rsp,%rbp
    b816:	48 89 7d f8          	mov    %rdi,-0x8(%rbp)
    b81a:	48 8b 45 f8          	mov    -0x8(%rbp),%rax
    b81e:	5d                   	pop    %rbp
    b81f:	c3                   	ret    

000000000000b820 <_ZSt10_ConstructINSt7__cxx1112basic_stringIcSt11char_traitsIcESaIcEEEJRKPKcEEvPT_DpOT0_>:
    b820:	f3 0f 1e fa          	endbr64 
    b824:	55                   	push   %rbp
    b825:	48 89 e5             	mov    %rsp,%rbp
    b828:	41 56                	push   %r14
    b82a:	41 55                	push   %r13
    b82c:	41 54                	push   %r12
    b82e:	53                   	push   %rbx
    b82f:	48 83 ec 30          	sub    $0x30,%rsp
    b833:	48 89 7d b8          	mov    %rdi,-0x48(%rbp)
    b837:	48 89 75 b0          	mov    %rsi,-0x50(%rbp)
    b83b:	64 48 8b 04 25 28 00 	mov    %fs:0x28,%rax
    b842:	00 00 
    b844:	48 89 45 d8          	mov    %rax,-0x28(%rbp)
    b848:	31 c0                	xor    %eax,%eax
    b84a:	48 8b 5d b8          	mov    -0x48(%rbp),%rbx
    b84e:	48 89 de             	mov    %rbx,%rsi
    b851:	bf 20 00 00 00       	mov    $0x20,%edi
    b856:	e8 7b 9f ff ff       	call   57d6 <_ZnwmPv>
    b85b:	49 89 c4             	mov    %rax,%r12
    b85e:	41 be 01 00 00 00    	mov    $0x1,%r14d
    b864:	48 8d 45 cf          	lea    -0x31(%rbp),%rax
    b868:	48 89 45 d0          	mov    %rax,-0x30(%rbp)
    b86c:	90                   	nop
    b86d:	90                   	nop
    b86e:	48 8b 45 b0          	mov    -0x50(%rbp),%rax
    b872:	48 89 c7             	mov    %rax,%rdi
    b875:	e8 50 e7 ff ff       	call   9fca <_ZSt7forwardIRKPKcEOT_RNSt16remove_referenceIS4_E4typeE>
    b87a:	48 8b 00             	mov    (%rax),%rax
    b87d:	48 8d 55 cf          	lea    -0x31(%rbp),%rdx
    b881:	48 89 c6             	mov    %rax,%rsi
    b884:	4c 89 e7             	mov    %r12,%rdi
    b887:	e8 66 aa ff ff       	call   62f2 <_ZNSt7__cxx1112basic_stringIcSt11char_traitsIcESaIcEEC1IS3_EEPKcRKS3_>
    b88c:	48 8d 45 cf          	lea    -0x31(%rbp),%rax
    b890:	48 89 c7             	mov    %rax,%rdi
    b893:	e8 40 b4 ff ff       	call   6cd8 <_ZNSt15__new_allocatorIcED1Ev>
    b898:	90                   	nop
    b899:	90                   	nop
    b89a:	48 8b 45 d8          	mov    -0x28(%rbp),%rax
    b89e:	64 48 2b 04 25 28 00 	sub    %fs:0x28,%rax
    b8a5:	00 00 
    b8a7:	74 4a                	je     b8f3 <_ZSt10_ConstructINSt7__cxx1112basic_stringIcSt11char_traitsIcESaIcEEEJRKPKcEEvPT_DpOT0_+0xd3>
    b8a9:	eb 43                	jmp    b8ee <_ZSt10_ConstructINSt7__cxx1112basic_stringIcSt11char_traitsIcESaIcEEEJRKPKcEEvPT_DpOT0_+0xce>
    b8ab:	f3 0f 1e fa          	endbr64 
    b8af:	49 89 c5             	mov    %rax,%r13
    b8b2:	48 8d 45 cf          	lea    -0x31(%rbp),%rax
    b8b6:	48 89 c7             	mov    %rax,%rdi
    b8b9:	e8 1a b4 ff ff       	call   6cd8 <_ZNSt15__new_allocatorIcED1Ev>
    b8be:	90                   	nop
    b8bf:	45 84 f6             	test   %r14b,%r14b
    b8c2:	74 0b                	je     b8cf <_ZSt10_ConstructINSt7__cxx1112basic_stringIcSt11char_traitsIcESaIcEEEJRKPKcEEvPT_DpOT0_+0xaf>
    b8c4:	48 89 de             	mov    %rbx,%rsi
    b8c7:	4c 89 e7             	mov    %r12,%rdi
    b8ca:	e8 1d 9f ff ff       	call   57ec <_ZdlPvS_>
    b8cf:	4c 89 e8             	mov    %r13,%rax
    b8d2:	48 8b 55 d8          	mov    -0x28(%rbp),%rdx
    b8d6:	64 48 2b 14 25 28 00 	sub    %fs:0x28,%rdx
    b8dd:	00 00 
    b8df:	74 05                	je     b8e6 <_ZSt10_ConstructINSt7__cxx1112basic_stringIcSt11char_traitsIcESaIcEEEJRKPKcEEvPT_DpOT0_+0xc6>
    b8e1:	e8 9a 7e ff ff       	call   3780 <_init+0x780>
    b8e6:	48 89 c7             	mov    %rax,%rdi
    b8e9:	e8 22 80 ff ff       	call   3910 <_init+0x910>
    b8ee:	e8 8d 7e ff ff       	call   3780 <_init+0x780>
    b8f3:	48 83 c4 30          	add    $0x30,%rsp
    b8f7:	5b                   	pop    %rbx
    b8f8:	41 5c                	pop    %r12
    b8fa:	41 5d                	pop    %r13
    b8fc:	41 5e                	pop    %r14
    b8fe:	5d                   	pop    %rbp
    b8ff:	c3                   	ret    

000000000000b900 <_ZSt10_ConstructINSt7__cxx1112basic_stringIcSt11char_traitsIcESaIcEEEJRKS5_EEvPT_DpOT0_>:
    b900:	f3 0f 1e fa          	endbr64 
    b904:	55                   	push   %rbp
    b905:	48 89 e5             	mov    %rsp,%rbp
    b908:	41 56                	push   %r14
    b90a:	41 55                	push   %r13
    b90c:	41 54                	push   %r12
    b90e:	53                   	push   %rbx
    b90f:	48 83 ec 10          	sub    $0x10,%rsp
    b913:	48 89 7d d8          	mov    %rdi,-0x28(%rbp)
    b917:	48 89 75 d0          	mov    %rsi,-0x30(%rbp)
    b91b:	48 8b 5d d8          	mov    -0x28(%rbp),%rbx
    b91f:	48 89 de             	mov    %rbx,%rsi
    b922:	bf 20 00 00 00       	mov    $0x20,%edi
    b927:	e8 aa 9e ff ff       	call   57d6 <_ZnwmPv>
    b92c:	49 89 c4             	mov    %rax,%r12
    b92f:	41 be 01 00 00 00    	mov    $0x1,%r14d
    b935:	48 8b 45 d0          	mov    -0x30(%rbp),%rax
    b939:	48 89 c7             	mov    %rax,%rdi
    b93c:	e8 77 d6 ff ff       	call   8fb8 <_ZSt7forwardIRKNSt7__cxx1112basic_stringIcSt11char_traitsIcESaIcEEEEOT_RNSt16remove_referenceIS8_E4typeE>
    b941:	48 89 c6             	mov    %rax,%rsi
    b944:	4c 89 e7             	mov    %r12,%rdi
    b947:	e8 54 7c ff ff       	call   35a0 <_init+0x5a0>
    b94c:	eb 22                	jmp    b970 <_ZSt10_ConstructINSt7__cxx1112basic_stringIcSt11char_traitsIcESaIcEEEJRKS5_EEvPT_DpOT0_+0x70>
    b94e:	f3 0f 1e fa          	endbr64 
    b952:	49 89 c5             	mov    %rax,%r13
    b955:	45 84 f6             	test   %r14b,%r14b
    b958:	74 0b                	je     b965 <_ZSt10_ConstructINSt7__cxx1112basic_stringIcSt11char_traitsIcESaIcEEEJRKS5_EEvPT_DpOT0_+0x65>
    b95a:	48 89 de             	mov    %rbx,%rsi
    b95d:	4c 89 e7             	mov    %r12,%rdi
    b960:	e8 87 9e ff ff       	call   57ec <_ZdlPvS_>
    b965:	4c 89 e8             	mov    %r13,%rax
    b968:	48 89 c7             	mov    %rax,%rdi
    b96b:	e8 a0 7f ff ff       	call   3910 <_init+0x910>
    b970:	48 83 c4 10          	add    $0x10,%rsp
    b974:	5b                   	pop    %rbx
    b975:	41 5c                	pop    %r12
    b977:	41 5d                	pop    %r13
    b979:	41 5e                	pop    %r14
    b97b:	5d                   	pop    %rbp
    b97c:	c3                   	ret    
    b97d:	90                   	nop

000000000000b97e <_ZN9__gnu_cxx16__aligned_membufINSt7__cxx1112basic_stringIcSt11char_traitsIcESaIcEEEE7_M_addrEv>:
    b97e:	f3 0f 1e fa          	endbr64 
    b982:	55                   	push   %rbp
    b983:	48 89 e5             	mov    %rsp,%rbp
    b986:	48 89 7d f8          	mov    %rdi,-0x8(%rbp)
    b98a:	48 8b 45 f8          	mov    -0x8(%rbp),%rax
    b98e:	5d                   	pop    %rbp
    b98f:	c3                   	ret    

000000000000b990 <_ZNSt11_Tuple_implILm0EJRKNSt7__cxx1112basic_stringIcSt11char_traitsIcESaIcEEEEEC1EOS8_>:
    b990:	f3 0f 1e fa          	endbr64 
    b994:	55                   	push   %rbp
    b995:	48 89 e5             	mov    %rsp,%rbp
    b998:	48 89 7d f8          	mov    %rdi,-0x8(%rbp)
    b99c:	48 89 75 f0          	mov    %rsi,-0x10(%rbp)
    b9a0:	48 8b 45 f8          	mov    -0x8(%rbp),%rax
    b9a4:	48 8b 55 f0          	mov    -0x10(%rbp),%rdx
    b9a8:	48 8b 12             	mov    (%rdx),%rdx
    b9ab:	48 89 10             	mov    %rdx,(%rax)
    b9ae:	90                   	nop
    b9af:	5d                   	pop    %rbp
    b9b0:	c3                   	ret    
    b9b1:	90                   	nop

000000000000b9b2 <_ZNSt4pairIKNSt7__cxx1112basic_stringIcSt11char_traitsIcESaIcEEES5_EC1IJRS6_EJEEESt21piecewise_construct_tSt5tupleIJDpT_EESB_IJDpT0_EE>:
    b9b2:	f3 0f 1e fa          	endbr64 
    b9b6:	55                   	push   %rbp
    b9b7:	48 89 e5             	mov    %rsp,%rbp
    b9ba:	48 83 ec 20          	sub    $0x20,%rsp
    b9be:	48 89 7d f8          	mov    %rdi,-0x8(%rbp)
    b9c2:	48 89 75 f0          	mov    %rsi,-0x10(%rbp)
    b9c6:	48 8d 55 ef          	lea    -0x11(%rbp),%rdx
    b9ca:	48 8b 4d f0          	mov    -0x10(%rbp),%rcx
    b9ce:	48 8b 45 f8          	mov    -0x8(%rbp),%rax
    b9d2:	48 89 ce             	mov    %rcx,%rsi
    b9d5:	48 89 c7             	mov    %rax,%rdi
    b9d8:	e8 bb 01 00 00       	call   bb98 <_ZNSt4pairIKNSt7__cxx1112basic_stringIcSt11char_traitsIcESaIcEEES5_EC1IJRS6_EJLm0EEJEJEEERSt5tupleIJDpT_EERSA_IJDpT1_EESt12_Index_tupleIJXspT0_EEESJ_IJXspT2_EEE>
    b9dd:	90                   	nop
    b9de:	c9                   	leave  
    b9df:	c3                   	ret    

000000000000b9e0 <_ZNSt8_Rb_treeINSt7__cxx1112basic_stringIcSt11char_traitsIcESaIcEEESt4pairIKS5_S5_ESt10_Select1stIS8_ESt4lessIS5_ESaIS8_EE13_M_clone_nodeILb0ENSE_11_Alloc_nodeEEEPSt13_Rb_tree_nodeIS8_ESJ_RT0_>:
    b9e0:	f3 0f 1e fa          	endbr64 
    b9e4:	55                   	push   %rbp
    b9e5:	48 89 e5             	mov    %rsp,%rbp
    b9e8:	48 83 ec 30          	sub    $0x30,%rsp
    b9ec:	48 89 7d e8          	mov    %rdi,-0x18(%rbp)
    b9f0:	48 89 75 e0          	mov    %rsi,-0x20(%rbp)
    b9f4:	48 89 55 d8          	mov    %rdx,-0x28(%rbp)
    b9f8:	48 8b 45 e0          	mov    -0x20(%rbp),%rax
    b9fc:	48 89 c7             	mov    %rax,%rdi
    b9ff:	e8 9c ca ff ff       	call   84a0 <_ZNSt13_Rb_tree_nodeISt4pairIKNSt7__cxx1112basic_stringIcSt11char_traitsIcESaIcEEES6_EE9_M_valptrEv>
    ba04:	48 89 c7             	mov    %rax,%rdi
    ba07:	e8 df 01 00 00       	call   bbeb <_ZSt7forwardIRKSt4pairIKNSt7__cxx1112basic_stringIcSt11char_traitsIcESaIcEEES6_EEOT_RNSt16remove_referenceISB_E4typeE>
    ba0c:	48 89 c2             	mov    %rax,%rdx
    ba0f:	48 8b 45 d8          	mov    -0x28(%rbp),%rax
    ba13:	48 89 d6             	mov    %rdx,%rsi
    ba16:	48 89 c7             	mov    %rax,%rdi
    ba19:	e8 e0 01 00 00       	call   bbfe <_ZNKSt8_Rb_treeINSt7__cxx1112basic_stringIcSt11char_traitsIcESaIcEEESt4pairIKS5_S5_ESt10_Select1stIS8_ESt4lessIS5_ESaIS8_EE11_Alloc_nodeclIRKS8_EEPSt13_Rb_tree_nodeIS8_EOT_>
    ba1e:	48 89 45 f8          	mov    %rax,-0x8(%rbp)
    ba22:	48 8b 45 e0          	mov    -0x20(%rbp),%rax
    ba26:	8b 10                	mov    (%rax),%edx
    ba28:	48 8b 45 f8          	mov    -0x8(%rbp),%rax
    ba2c:	89 10                	mov    %edx,(%rax)
    ba2e:	48 8b 45 f8          	mov    -0x8(%rbp),%rax
    ba32:	48 c7 40 10 00 00 00 	movq   $0x0,0x10(%rax)
    ba39:	00 
    ba3a:	48 8b 45 f8          	mov    -0x8(%rbp),%rax
    ba3e:	48 c7 40 18 00 00 00 	movq   $0x0,0x18(%rax)
    ba45:	00 
    ba46:	48 8b 45 f8          	mov    -0x8(%rbp),%rax
    ba4a:	c9                   	leave  
    ba4b:	c3                   	ret    

000000000000ba4c <_ZSt7forwardISt3mapINSt7__cxx1112basic_stringIcSt11char_traitsIcESaIcEEES6_St4lessIS6_ESaISt4pairIKS6_S6_EEEEOT_RNSt16remove_referenceISE_E4typeE>:
    ba4c:	f3 0f 1e fa          	endbr64 
    ba50:	55                   	push   %rbp
    ba51:	48 89 e5             	mov    %rsp,%rbp
    ba54:	48 89 7d f8          	mov    %rdi,-0x8(%rbp)
    ba58:	48 8b 45 f8          	mov    -0x8(%rbp),%rax
    ba5c:	5d                   	pop    %rbp
    ba5d:	c3                   	ret    

000000000000ba5e <_ZNSt8_Rb_treeINSt7__cxx1112basic_stringIcSt11char_traitsIcESaIcEEESt4pairIKS5_S5_ESt10_Select1stIS8_ESt4lessIS5_ESaIS8_EE13_Rb_tree_implISC_Lb1EEC1EOSG_>:
    ba5e:	f3 0f 1e fa          	endbr64 
    ba62:	55                   	push   %rbp
    ba63:	48 89 e5             	mov    %rsp,%rbp
    ba66:	48 83 ec 30          	sub    $0x30,%rsp
    ba6a:	48 89 7d d8          	mov    %rdi,-0x28(%rbp)
    ba6e:	48 89 75 d0          	mov    %rsi,-0x30(%rbp)
    ba72:	48 8b 45 d8          	mov    -0x28(%rbp),%rax
    ba76:	48 89 45 e0          	mov    %rax,-0x20(%rbp)
    ba7a:	48 8b 45 d0          	mov    -0x30(%rbp),%rax
    ba7e:	48 89 45 e8          	mov    %rax,-0x18(%rbp)
    ba82:	48 8b 45 e0          	mov    -0x20(%rbp),%rax
    ba86:	48 89 45 f0          	mov    %rax,-0x10(%rbp)
    ba8a:	48 8b 45 e8          	mov    -0x18(%rbp),%rax
    ba8e:	48 89 45 f8          	mov    %rax,-0x8(%rbp)
    ba92:	90                   	nop
    ba93:	90                   	nop
    ba94:	48 8b 45 d8          	mov    -0x28(%rbp),%rax
    ba98:	48 8b 55 d0          	mov    -0x30(%rbp),%rdx
    ba9c:	48 89 d6             	mov    %rdx,%rsi
    ba9f:	48 89 c7             	mov    %rax,%rdi
    baa2:	e8 91 01 00 00       	call   bc38 <_ZNSt20_Rb_tree_key_compareISt4lessINSt7__cxx1112basic_stringIcSt11char_traitsIcESaIcEEEEEC1EOS8_>
    baa7:	48 8b 45 d8          	mov    -0x28(%rbp),%rax
    baab:	48 83 c0 08          	add    $0x8,%rax
    baaf:	48 8b 55 d0          	mov    -0x30(%rbp),%rdx
    bab3:	48 83 c2 08          	add    $0x8,%rdx
    bab7:	48 89 d6             	mov    %rdx,%rsi
    baba:	48 89 c7             	mov    %rax,%rdi
    babd:	e8 a8 9e ff ff       	call   596a <_ZNSt15_Rb_tree_headerC1EOS_>
    bac2:	90                   	nop
    bac3:	c9                   	leave  
    bac4:	c3                   	ret    
    bac5:	90                   	nop

000000000000bac6 <_ZNSt8_Rb_treeINSt7__cxx1112basic_stringIcSt11char_traitsIcESaIcEEESt4pairIKS5_S5_ESt10_Select1stIS8_ESt4lessIS5_ESaIS8_EEC1EOSE_>:
    bac6:	f3 0f 1e fa          	endbr64 
    baca:	55                   	push   %rbp
    bacb:	48 89 e5             	mov    %rsp,%rbp
    bace:	48 83 ec 10          	sub    $0x10,%rsp
    bad2:	48 89 7d f8          	mov    %rdi,-0x8(%rbp)
    bad6:	48 89 75 f0          	mov    %rsi,-0x10(%rbp)
    bada:	48 8b 45 f8          	mov    -0x8(%rbp),%rax
    bade:	48 8b 55 f0          	mov    -0x10(%rbp),%rdx
    bae2:	48 89 d6             	mov    %rdx,%rsi
    bae5:	48 89 c7             	mov    %rax,%rdi
    bae8:	e8 71 ff ff ff       	call   ba5e <_ZNSt8_Rb_treeINSt7__cxx1112basic_stringIcSt11char_traitsIcESaIcEEESt4pairIKS5_S5_ESt10_Select1stIS8_ESt4lessIS5_ESaIS8_EE13_Rb_tree_implISC_Lb1EEC1EOSG_>
    baed:	90                   	nop
    baee:	c9                   	leave  
    baef:	c3                   	ret    

000000000000baf0 <_ZNSt3mapINSt7__cxx1112basic_stringIcSt11char_traitsIcESaIcEEES5_St4lessIS5_ESaISt4pairIKS5_S5_EEEC1EOSC_>:
    baf0:	f3 0f 1e fa          	endbr64 
    baf4:	55                   	push   %rbp
    baf5:	48 89 e5             	mov    %rsp,%rbp
    baf8:	48 83 ec 10          	sub    $0x10,%rsp
    bafc:	48 89 7d f8          	mov    %rdi,-0x8(%rbp)
    bb00:	48 89 75 f0          	mov    %rsi,-0x10(%rbp)
    bb04:	48 8b 45 f8          	mov    -0x8(%rbp),%rax
    bb08:	48 8b 55 f0          	mov    -0x10(%rbp),%rdx
    bb0c:	48 89 d6             	mov    %rdx,%rsi
    bb0f:	48 89 c7             	mov    %rax,%rdi
    bb12:	e8 af ff ff ff       	call   bac6 <_ZNSt8_Rb_treeINSt7__cxx1112basic_stringIcSt11char_traitsIcESaIcEEESt4pairIKS5_S5_ESt10_Select1stIS8_ESt4lessIS5_ESaIS8_EEC1EOSE_>
    bb17:	90                   	nop
    bb18:	c9                   	leave  
    bb19:	c3                   	ret    

000000000000bb1a <_ZSt7forwardINSt7__cxx1112basic_stringIcSt11char_traitsIcESaIcEEEEOT_RNSt16remove_referenceIS6_E4typeE>:
    bb1a:	f3 0f 1e fa          	endbr64 
    bb1e:	55                   	push   %rbp
    bb1f:	48 89 e5             	mov    %rsp,%rbp
    bb22:	48 89 7d f8          	mov    %rdi,-0x8(%rbp)
    bb26:	48 8b 45 f8          	mov    -0x8(%rbp),%rax
    bb2a:	5d                   	pop    %rbp
    bb2b:	c3                   	ret    

000000000000bb2c <_ZNSt15__new_allocatorISt13_Rb_tree_nodeINSt7__cxx1112basic_stringIcSt11char_traitsIcESaIcEEEEE8allocateEmPKv>:
    bb2c:	f3 0f 1e fa          	endbr64 
    bb30:	55                   	push   %rbp
    bb31:	48 89 e5             	mov    %rsp,%rbp
    bb34:	48 83 ec 30          	sub    $0x30,%rsp
    bb38:	48 89 7d e8          	mov    %rdi,-0x18(%rbp)
    bb3c:	48 89 75 e0          	mov    %rsi,-0x20(%rbp)
    bb40:	48 89 55 d8          	mov    %rdx,-0x28(%rbp)
    bb44:	48 8b 45 e8          	mov    -0x18(%rbp),%rax
    bb48:	48 89 45 f8          	mov    %rax,-0x8(%rbp)
    bb4c:	48 b8 ff ff ff ff ff 	movabs $0x1ffffffffffffff,%rax
    bb53:	ff ff 01 
    bb56:	48 3b 45 e0          	cmp    -0x20(%rbp),%rax
    bb5a:	0f 92 c0             	setb   %al
    bb5d:	0f b6 c0             	movzbl %al,%eax
    bb60:	48 85 c0             	test   %rax,%rax
    bb63:	0f 95 c0             	setne  %al
    bb66:	84 c0                	test   %al,%al
    bb68:	74 1a                	je     bb84 <_ZNSt15__new_allocatorISt13_Rb_tree_nodeINSt7__cxx1112basic_stringIcSt11char_traitsIcESaIcEEEEE8allocateEmPKv+0x58>
    bb6a:	48 b8 ff ff ff ff ff 	movabs $0x3ffffffffffffff,%rax
    bb71:	ff ff 03 
    bb74:	48 3b 45 e0          	cmp    -0x20(%rbp),%rax
    bb78:	73 05                	jae    bb7f <_ZNSt15__new_allocatorISt13_Rb_tree_nodeINSt7__cxx1112basic_stringIcSt11char_traitsIcESaIcEEEEE8allocateEmPKv+0x53>
    bb7a:	e8 f1 7a ff ff       	call   3670 <_init+0x670>
    bb7f:	e8 dc 79 ff ff       	call   3560 <_init+0x560>
    bb84:	48 8b 45 e0          	mov    -0x20(%rbp),%rax
    bb88:	48 c1 e0 06          	shl    $0x6,%rax
    bb8c:	48 89 c7             	mov    %rax,%rdi
    bb8f:	e8 4c 7b ff ff       	call   36e0 <_init+0x6e0>
    bb94:	90                   	nop
    bb95:	c9                   	leave  
    bb96:	c3                   	ret    
    bb97:	90                   	nop

000000000000bb98 <_ZNSt4pairIKNSt7__cxx1112basic_stringIcSt11char_traitsIcESaIcEEES5_EC1IJRS6_EJLm0EEJEJEEERSt5tupleIJDpT_EERSA_IJDpT1_EESt12_Index_tupleIJXspT0_EEESJ_IJXspT2_EEE>:
    bb98:	f3 0f 1e fa          	endbr64 
    bb9c:	55                   	push   %rbp
    bb9d:	48 89 e5             	mov    %rsp,%rbp
    bba0:	53                   	push   %rbx
    bba1:	48 83 ec 28          	sub    $0x28,%rsp
    bba5:	48 89 7d e8          	mov    %rdi,-0x18(%rbp)
    bba9:	48 89 75 e0          	mov    %rsi,-0x20(%rbp)
    bbad:	48 89 55 d8          	mov    %rdx,-0x28(%rbp)
    bbb1:	48 8b 5d e8          	mov    -0x18(%rbp),%rbx
    bbb5:	48 8b 45 e0          	mov    -0x20(%rbp),%rax
    bbb9:	48 89 c7             	mov    %rax,%rdi
    bbbc:	e8 8a 00 00 00       	call   bc4b <_ZSt3getILm0EJRKNSt7__cxx1112basic_stringIcSt11char_traitsIcESaIcEEEEERNSt13tuple_elementIXT_ESt5tupleIJDpT0_EEE4typeERSC_>
    bbc1:	48 89 c7             	mov    %rax,%rdi
    bbc4:	e8 ef d3 ff ff       	call   8fb8 <_ZSt7forwardIRKNSt7__cxx1112basic_stringIcSt11char_traitsIcESaIcEEEEOT_RNSt16remove_referenceIS8_E4typeE>
    bbc9:	48 89 c6             	mov    %rax,%rsi
    bbcc:	48 89 df             	mov    %rbx,%rdi
    bbcf:	e8 cc 79 ff ff       	call   35a0 <_init+0x5a0>
    bbd4:	48 8b 45 e8          	mov    -0x18(%rbp),%rax
    bbd8:	48 83 c0 20          	add    $0x20,%rax
    bbdc:	48 89 c7             	mov    %rax,%rdi
    bbdf:	e8 2c 7c ff ff       	call   3810 <_init+0x810>
    bbe4:	90                   	nop
    bbe5:	48 8b 5d f8          	mov    -0x8(%rbp),%rbx
    bbe9:	c9                   	leave  
    bbea:	c3                   	ret    

000000000000bbeb <_ZSt7forwardIRKSt4pairIKNSt7__cxx1112basic_stringIcSt11char_traitsIcESaIcEEES6_EEOT_RNSt16remove_referenceISB_E4typeE>:
    bbeb:	f3 0f 1e fa          	endbr64 
    bbef:	55                   	push   %rbp
    bbf0:	48 89 e5             	mov    %rsp,%rbp
    bbf3:	48 89 7d f8          	mov    %rdi,-0x8(%rbp)
    bbf7:	48 8b 45 f8          	mov    -0x8(%rbp),%rax
    bbfb:	5d                   	pop    %rbp
    bbfc:	c3                   	ret    
    bbfd:	90                   	nop

000000000000bbfe <_ZNKSt8_Rb_treeINSt7__cxx1112basic_stringIcSt11char_traitsIcESaIcEEESt4pairIKS5_S5_ESt10_Select1stIS8_ESt4lessIS5_ESaIS8_EE11_Alloc_nodeclIRKS8_EEPSt13_Rb_tree_nodeIS8_EOT_>:
    bbfe:	f3 0f 1e fa          	endbr64 
    bc02:	55                   	push   %rbp
    bc03:	48 89 e5             	mov    %rsp,%rbp
    bc06:	53                   	push   %rbx
    bc07:	48 83 ec 18          	sub    $0x18,%rsp
    bc0b:	48 89 7d e8          	mov    %rdi,-0x18(%rbp)
    bc0f:	48 89 75 e0          	mov    %rsi,-0x20(%rbp)
    bc13:	48 8b 45 e8          	mov    -0x18(%rbp),%rax
    bc17:	48 8b 18             	mov    (%rax),%rbx
    bc1a:	48 8b 45 e0          	mov    -0x20(%rbp),%rax
    bc1e:	48 89 c7             	mov    %rax,%rdi
    bc21:	e8 c5 ff ff ff       	call   bbeb <_ZSt7forwardIRKSt4pairIKNSt7__cxx1112basic_stringIcSt11char_traitsIcESaIcEEES6_EEOT_RNSt16remove_referenceISB_E4typeE>
    bc26:	48 89 c6             	mov    %rax,%rsi
    bc29:	48 89 df             	mov    %rbx,%rdi
    bc2c:	e8 39 00 00 00       	call   bc6a <_ZNSt8_Rb_treeINSt7__cxx1112basic_stringIcSt11char_traitsIcESaIcEEESt4pairIKS5_S5_ESt10_Select1stIS8_ESt4lessIS5_ESaIS8_EE14_M_create_nodeIJRKS8_EEEPSt13_Rb_tree_nodeIS8_EDpOT_>
    bc31:	48 8b 5d f8          	mov    -0x8(%rbp),%rbx
    bc35:	c9                   	leave  
    bc36:	c3                   	ret    
    bc37:	90                   	nop

000000000000bc38 <_ZNSt20_Rb_tree_key_compareISt4lessINSt7__cxx1112basic_stringIcSt11char_traitsIcESaIcEEEEEC1EOS8_>:
    bc38:	f3 0f 1e fa          	endbr64 
    bc3c:	55                   	push   %rbp
    bc3d:	48 89 e5             	mov    %rsp,%rbp
    bc40:	48 89 7d f8          	mov    %rdi,-0x8(%rbp)
    bc44:	48 89 75 f0          	mov    %rsi,-0x10(%rbp)
    bc48:	90                   	nop
    bc49:	5d                   	pop    %rbp
    bc4a:	c3                   	ret    

000000000000bc4b <_ZSt3getILm0EJRKNSt7__cxx1112basic_stringIcSt11char_traitsIcESaIcEEEEERNSt13tuple_elementIXT_ESt5tupleIJDpT0_EEE4typeERSC_>:
    bc4b:	f3 0f 1e fa          	endbr64 
    bc4f:	55                   	push   %rbp
    bc50:	48 89 e5             	mov    %rsp,%rbp
    bc53:	48 83 ec 10          	sub    $0x10,%rsp
    bc57:	48 89 7d f8          	mov    %rdi,-0x8(%rbp)
    bc5b:	48 8b 45 f8          	mov    -0x8(%rbp),%rax
    bc5f:	48 89 c7             	mov    %rax,%rdi
    bc62:	e8 4f 00 00 00       	call   bcb6 <_ZSt12__get_helperILm0ERKNSt7__cxx1112basic_stringIcSt11char_traitsIcESaIcEEEJEERT0_RSt11_Tuple_implIXT_EJS8_DpT1_EE>
    bc67:	c9                   	leave  
    bc68:	c3                   	ret    
    bc69:	90                   	nop

000000000000bc6a <_ZNSt8_Rb_treeINSt7__cxx1112basic_stringIcSt11char_traitsIcESaIcEEESt4pairIKS5_S5_ESt10_Select1stIS8_ESt4lessIS5_ESaIS8_EE14_M_create_nodeIJRKS8_EEEPSt13_Rb_tree_nodeIS8_EDpOT_>:
    bc6a:	f3 0f 1e fa          	endbr64 
    bc6e:	55                   	push   %rbp
    bc6f:	48 89 e5             	mov    %rsp,%rbp
    bc72:	48 83 ec 20          	sub    $0x20,%rsp
    bc76:	48 89 7d e8          	mov    %rdi,-0x18(%rbp)
    bc7a:	48 89 75 e0          	mov    %rsi,-0x20(%rbp)
    bc7e:	48 8b 45 e8          	mov    -0x18(%rbp),%rax
    bc82:	48 89 c7             	mov    %rax,%rdi
    bc85:	e8 0a e8 ff ff       	call   a494 <_ZNSt8_Rb_treeINSt7__cxx1112basic_stringIcSt11char_traitsIcESaIcEEESt4pairIKS5_S5_ESt10_Select1stIS8_ESt4lessIS5_ESaIS8_EE11_M_get_nodeEv>
    bc8a:	48 89 45 f8          	mov    %rax,-0x8(%rbp)
    bc8e:	48 8b 45 e0          	mov    -0x20(%rbp),%rax
    bc92:	48 89 c7             	mov    %rax,%rdi
    bc95:	e8 51 ff ff ff       	call   bbeb <_ZSt7forwardIRKSt4pairIKNSt7__cxx1112basic_stringIcSt11char_traitsIcESaIcEEES6_EEOT_RNSt16remove_referenceISB_E4typeE>
    bc9a:	48 89 c2             	mov    %rax,%rdx
    bc9d:	48 8b 4d f8          	mov    -0x8(%rbp),%rcx
    bca1:	48 8b 45 e8          	mov    -0x18(%rbp),%rax
    bca5:	48 89 ce             	mov    %rcx,%rsi
    bca8:	48 89 c7             	mov    %rax,%rdi
    bcab:	e8 24 00 00 00       	call   bcd4 <_ZNSt8_Rb_treeINSt7__cxx1112basic_stringIcSt11char_traitsIcESaIcEEESt4pairIKS5_S5_ESt10_Select1stIS8_ESt4lessIS5_ESaIS8_EE17_M_construct_nodeIJRKS8_EEEvPSt13_Rb_tree_nodeIS8_EDpOT_>
    bcb0:	48 8b 45 f8          	mov    -0x8(%rbp),%rax
    bcb4:	c9                   	leave  
    bcb5:	c3                   	ret    

000000000000bcb6 <_ZSt12__get_helperILm0ERKNSt7__cxx1112basic_stringIcSt11char_traitsIcESaIcEEEJEERT0_RSt11_Tuple_implIXT_EJS8_DpT1_EE>:
    bcb6:	f3 0f 1e fa          	endbr64 
    bcba:	55                   	push   %rbp
    bcbb:	48 89 e5             	mov    %rsp,%rbp
    bcbe:	48 83 ec 10          	sub    $0x10,%rsp
    bcc2:	48 89 7d f8          	mov    %rdi,-0x8(%rbp)
    bcc6:	48 8b 45 f8          	mov    -0x8(%rbp),%rax
    bcca:	48 89 c7             	mov    %rax,%rdi
    bccd:	e8 1b 01 00 00       	call   bded <_ZNSt11_Tuple_implILm0EJRKNSt7__cxx1112basic_stringIcSt11char_traitsIcESaIcEEEEE7_M_headERS8_>
    bcd2:	c9                   	leave  
    bcd3:	c3                   	ret    

000000000000bcd4 <_ZNSt8_Rb_treeINSt7__cxx1112basic_stringIcSt11char_traitsIcESaIcEEESt4pairIKS5_S5_ESt10_Select1stIS8_ESt4lessIS5_ESaIS8_EE17_M_construct_nodeIJRKS8_EEEvPSt13_Rb_tree_nodeIS8_EDpOT_>:
    bcd4:	f3 0f 1e fa          	endbr64 
    bcd8:	55                   	push   %rbp
    bcd9:	48 89 e5             	mov    %rsp,%rbp
    bcdc:	41 56                	push   %r14
    bcde:	41 55                	push   %r13
    bce0:	41 54                	push   %r12
    bce2:	53                   	push   %rbx
    bce3:	48 83 ec 50          	sub    $0x50,%rsp
    bce7:	48 89 7d a8          	mov    %rdi,-0x58(%rbp)
    bceb:	48 89 75 a0          	mov    %rsi,-0x60(%rbp)
    bcef:	48 89 55 98          	mov    %rdx,-0x68(%rbp)
    bcf3:	48 8b 45 a0          	mov    -0x60(%rbp),%rax
    bcf7:	48 89 c6             	mov    %rax,%rsi
    bcfa:	bf 60 00 00 00       	mov    $0x60,%edi
    bcff:	e8 d2 9a ff ff       	call   57d6 <_ZnwmPv>
    bd04:	48 8b 45 98          	mov    -0x68(%rbp),%rax
    bd08:	48 89 c7             	mov    %rax,%rdi
    bd0b:	e8 db fe ff ff       	call   bbeb <_ZSt7forwardIRKSt4pairIKNSt7__cxx1112basic_stringIcSt11char_traitsIcESaIcEEES6_EEOT_RNSt16remove_referenceISB_E4typeE>
    bd10:	48 89 c3             	mov    %rax,%rbx
    bd13:	48 8b 45 a0          	mov    -0x60(%rbp),%rax
    bd17:	48 89 c7             	mov    %rax,%rdi
    bd1a:	e8 81 c7 ff ff       	call   84a0 <_ZNSt13_Rb_tree_nodeISt4pairIKNSt7__cxx1112basic_stringIcSt11char_traitsIcESaIcEEES6_EE9_M_valptrEv>
    bd1f:	49 89 c4             	mov    %rax,%r12
    bd22:	48 8b 45 a8          	mov    -0x58(%rbp),%rax
    bd26:	48 89 c7             	mov    %rax,%rdi
    bd29:	e8 42 e7 ff ff       	call   a470 <_ZNSt8_Rb_treeINSt7__cxx1112basic_stringIcSt11char_traitsIcESaIcEEESt4pairIKS5_S5_ESt10_Select1stIS8_ESt4lessIS5_ESaIS8_EE21_M_get_Node_allocatorEv>
    bd2e:	48 89 45 b0          	mov    %rax,-0x50(%rbp)
    bd32:	4c 89 65 b8          	mov    %r12,-0x48(%rbp)
    bd36:	48 89 5d c0          	mov    %rbx,-0x40(%rbp)
    bd3a:	48 8b 45 c0          	mov    -0x40(%rbp),%rax
    bd3e:	48 89 c7             	mov    %rax,%rdi
    bd41:	e8 a5 fe ff ff       	call   bbeb <_ZSt7forwardIRKSt4pairIKNSt7__cxx1112basic_stringIcSt11char_traitsIcESaIcEEES6_EEOT_RNSt16remove_referenceISB_E4typeE>
    bd46:	48 8b 55 b0          	mov    -0x50(%rbp),%rdx
    bd4a:	48 89 55 c8          	mov    %rdx,-0x38(%rbp)
    bd4e:	48 8b 55 b8          	mov    -0x48(%rbp),%rdx
    bd52:	48 89 55 d0          	mov    %rdx,-0x30(%rbp)
    bd56:	48 89 45 d8          	mov    %rax,-0x28(%rbp)
    bd5a:	48 8b 5d d0          	mov    -0x30(%rbp),%rbx
    bd5e:	48 89 de             	mov    %rbx,%rsi
    bd61:	bf 40 00 00 00       	mov    $0x40,%edi
    bd66:	e8 6b 9a ff ff       	call   57d6 <_ZnwmPv>
    bd6b:	49 89 c4             	mov    %rax,%r12
    bd6e:	41 be 01 00 00 00    	mov    $0x1,%r14d
    bd74:	48 8b 45 d8          	mov    -0x28(%rbp),%rax
    bd78:	48 89 c7             	mov    %rax,%rdi
    bd7b:	e8 6b fe ff ff       	call   bbeb <_ZSt7forwardIRKSt4pairIKNSt7__cxx1112basic_stringIcSt11char_traitsIcESaIcEEES6_EEOT_RNSt16remove_referenceISB_E4typeE>
    bd80:	48 89 c6             	mov    %rax,%rsi
    bd83:	4c 89 e7             	mov    %r12,%rdi
    bd86:	e8 95 00 00 00       	call   be20 <_ZNSt4pairIKNSt7__cxx1112basic_stringIcSt11char_traitsIcESaIcEEES5_EC1ERKS7_>
    bd8b:	90                   	nop
    bd8c:	90                   	nop
    bd8d:	eb 51                	jmp    bde0 <_ZNSt8_Rb_treeINSt7__cxx1112basic_stringIcSt11char_traitsIcESaIcEEESt4pairIKS5_S5_ESt10_Select1stIS8_ESt4lessIS5_ESaIS8_EE17_M_construct_nodeIJRKS8_EEEvPSt13_Rb_tree_nodeIS8_EDpOT_+0x10c>
    bd8f:	f3 0f 1e fa          	endbr64 
    bd93:	49 89 c5             	mov    %rax,%r13
    bd96:	45 84 f6             	test   %r14b,%r14b
    bd99:	74 0b                	je     bda6 <_ZNSt8_Rb_treeINSt7__cxx1112basic_stringIcSt11char_traitsIcESaIcEEESt4pairIKS5_S5_ESt10_Select1stIS8_ESt4lessIS5_ESaIS8_EE17_M_construct_nodeIJRKS8_EEEvPSt13_Rb_tree_nodeIS8_EDpOT_+0xd2>
    bd9b:	48 89 de             	mov    %rbx,%rsi
    bd9e:	4c 89 e7             	mov    %r12,%rdi
    bda1:	e8 46 9a ff ff       	call   57ec <_ZdlPvS_>
    bda6:	4c 89 e8             	mov    %r13,%rax
    bda9:	48 89 c7             	mov    %rax,%rdi
    bdac:	e8 cf 77 ff ff       	call   3580 <_init+0x580>
    bdb1:	48 8b 55 a0          	mov    -0x60(%rbp),%rdx
    bdb5:	48 8b 45 a8          	mov    -0x58(%rbp),%rax
    bdb9:	48 89 d6             	mov    %rdx,%rsi
    bdbc:	48 89 c7             	mov    %rax,%rdi
    bdbf:	e8 fe d7 ff ff       	call   95c2 <_ZNSt8_Rb_treeINSt7__cxx1112basic_stringIcSt11char_traitsIcESaIcEEESt4pairIKS5_S5_ESt10_Select1stIS8_ESt4lessIS5_ESaIS8_EE11_M_put_nodeEPSt13_Rb_tree_nodeIS8_E>
    bdc4:	e8 77 7a ff ff       	call   3840 <_init+0x840>
    bdc9:	f3 0f 1e fa          	endbr64 
    bdcd:	48 89 c3             	mov    %rax,%rbx
    bdd0:	e8 eb 7a ff ff       	call   38c0 <_init+0x8c0>
    bdd5:	48 89 d8             	mov    %rbx,%rax
    bdd8:	48 89 c7             	mov    %rax,%rdi
    bddb:	e8 30 7b ff ff       	call   3910 <_init+0x910>
    bde0:	48 83 c4 50          	add    $0x50,%rsp
    bde4:	5b                   	pop    %rbx
    bde5:	41 5c                	pop    %r12
    bde7:	41 5d                	pop    %r13
    bde9:	41 5e                	pop    %r14
    bdeb:	5d                   	pop    %rbp
    bdec:	c3                   	ret    

000000000000bded <_ZNSt11_Tuple_implILm0EJRKNSt7__cxx1112basic_stringIcSt11char_traitsIcESaIcEEEEE7_M_headERS8_>:
    bded:	f3 0f 1e fa          	endbr64 
    bdf1:	55                   	push   %rbp
    bdf2:	48 89 e5             	mov    %rsp,%rbp
    bdf5:	48 83 ec 10          	sub    $0x10,%rsp
    bdf9:	48 89 7d f8          	mov    %rdi,-0x8(%rbp)
    bdfd:	48 8b 45 f8          	mov    -0x8(%rbp),%rax
    be01:	48 89 c7             	mov    %rax,%rdi
    be04:	e8 02 00 00 00       	call   be0b <_ZNSt10_Head_baseILm0ERKNSt7__cxx1112basic_stringIcSt11char_traitsIcESaIcEEELb0EE7_M_headERS8_>
    be09:	c9                   	leave  
    be0a:	c3                   	ret    

000000000000be0b <_ZNSt10_Head_baseILm0ERKNSt7__cxx1112basic_stringIcSt11char_traitsIcESaIcEEELb0EE7_M_headERS8_>:
    be0b:	f3 0f 1e fa          	endbr64 
    be0f:	55                   	push   %rbp
    be10:	48 89 e5             	mov    %rsp,%rbp
    be13:	48 89 7d f8          	mov    %rdi,-0x8(%rbp)
    be17:	48 8b 45 f8          	mov    -0x8(%rbp),%rax
    be1b:	48 8b 00             	mov    (%rax),%rax
    be1e:	5d                   	pop    %rbp
    be1f:	c3                   	ret    

000000000000be20 <_ZNSt4pairIKNSt7__cxx1112basic_stringIcSt11char_traitsIcESaIcEEES5_EC1ERKS7_>:
    be20:	f3 0f 1e fa          	endbr64 
    be24:	55                   	push   %rbp
    be25:	48 89 e5             	mov    %rsp,%rbp
    be28:	53                   	push   %rbx
    be29:	48 83 ec 18          	sub    $0x18,%rsp
    be2d:	48 89 7d e8          	mov    %rdi,-0x18(%rbp)
    be31:	48 89 75 e0          	mov    %rsi,-0x20(%rbp)
    be35:	48 8b 45 e8          	mov    -0x18(%rbp),%rax
    be39:	48 8b 55 e0          	mov    -0x20(%rbp),%rdx
    be3d:	48 89 d6             	mov    %rdx,%rsi
    be40:	48 89 c7             	mov    %rax,%rdi
    be43:	e8 58 77 ff ff       	call   35a0 <_init+0x5a0>
    be48:	48 8b 45 e8          	mov    -0x18(%rbp),%rax
    be4c:	48 83 c0 20          	add    $0x20,%rax
    be50:	48 8b 55 e0          	mov    -0x20(%rbp),%rdx
    be54:	48 83 c2 20          	add    $0x20,%rdx
    be58:	48 89 d6             	mov    %rdx,%rsi
    be5b:	48 89 c7             	mov    %rax,%rdi
    be5e:	e8 3d 77 ff ff       	call   35a0 <_init+0x5a0>
    be63:	eb 1e                	jmp    be83 <_ZNSt4pairIKNSt7__cxx1112basic_stringIcSt11char_traitsIcESaIcEEES5_EC1ERKS7_+0x63>
    be65:	f3 0f 1e fa          	endbr64 
    be69:	48 89 c3             	mov    %rax,%rbx
    be6c:	48 8b 45 e8          	mov    -0x18(%rbp),%rax
    be70:	48 89 c7             	mov    %rax,%rdi
    be73:	e8 78 77 ff ff       	call   35f0 <_init+0x5f0>
    be78:	48 89 d8             	mov    %rbx,%rax
    be7b:	48 89 c7             	mov    %rax,%rdi
    be7e:	e8 8d 7a ff ff       	call   3910 <_init+0x910>
    be83:	48 8b 5d f8          	mov    -0x8(%rbp),%rbx
    be87:	c9                   	leave  
    be88:	c3                   	ret    

Disassembly of section .fini:

000000000000be8c <_fini>:
    be8c:	f3 0f 1e fa          	endbr64 
    be90:	48 83 ec 08          	sub    $0x8,%rsp
    be94:	48 83 c4 08          	add    $0x8,%rsp
    be98:	c3                   	ret    
